(i__main__
LogFile
p0
(dp1
S'_installed_files'
p2
(dp3
S'../../../Hlt/HltGlobalMonitor/v1r0/slc4_amd64_gcc34/libHltGlobalMonitor.so'
p4
S'../../../../InstallArea/slc4_amd64_gcc34/lib/libHltGlobalMonitor.so'
p5
sS'../../../../../../../../sw/Gaudi/releases/GAUDI/GAUDI_v19r6/GaudiPolicy/v7r2/cmt/fragments/__init__.py'
p6
S'../../../../InstallArea/python/HltGlobalMonitor/__init__.py'
p7
sS'../../Hlt/HltGlobalMonitor/v1r0/genConf/HltGlobalMonitor'
p8
(dp9
S'../../../Hlt/HltGlobalMonitor/v1r0/genConf/HltGlobalMonitor/HltGlobalMonitorConf.py'
p10
S'../../../../InstallArea/python/HltGlobalMonitor/HltGlobalMonitorConf.py'
p11
sS'../../../Hlt/HltGlobalMonitor/v1r0/genConf/HltGlobalMonitor/HltGlobalMonitor_confDb.py'
p12
S'../../../../InstallArea/python/HltGlobalMonitor/HltGlobalMonitor_confDb.py'
p13
sssb.