(i__main__
LogFile
p0
(dp1
S'_installed_files'
p2
(dp3
S'../../../Phys/CC2DDStudies/CC2DDStudies'
p4
(dp5
sS'../../../Phys/CC2DDStudies/x86_64-slc6-gcc48-opt/CC2DD.exe'
p6
S'../../../InstallArea/x86_64-slc6-gcc48-opt/bin/CC2DD.exe'
p7
ssb.