(i__main__
LogFile
p0
(dp1
S'_installed_files'
p2
(dp3
S'../../../Det/BcmDet/v1r0/slc4_ia32_gcc34/libBcmDet.so'
p4
S'../../../../InstallArea/slc4_ia32_gcc34/lib/libBcmDet.so'
p5
sS'../../../Det/BcmDet/v1r0/slc4_ia32_gcc34/libBcmDetLib.so'
p6
S'../../../../InstallArea/slc4_ia32_gcc34/lib/libBcmDetLib.so'
p7
sS'/afs/cern.ch/user/m/mlieng/cmtuser/Gauss_v30r5/Det/BcmDet/v1r0/genConf/BcmDet'
p8
(dp9
S'/afs/cern.ch/user/m/mlieng/cmtuser/Gauss_v30r5/Det/BcmDet/v1r0/genConf/BcmDet/BcmDetConf.py'
p10
S'/afs/cern.ch/user/m/mlieng/cmtuser/Gauss_v30r5/InstallArea/python/BcmDet/BcmDetConf.py'
p11
sS'/afs/cern.ch/user/m/mlieng/cmtuser/Gauss_v30r5/Det/BcmDet/v1r0/genConf/BcmDet/BcmDet_confDb.py'
p12
S'/afs/cern.ch/user/m/mlieng/cmtuser/Gauss_v30r5/InstallArea/python/BcmDet/BcmDet_confDb.py'
p13
ssS'../../../../../../../../sw/Gaudi/releases/GAUDI/GAUDI_v19r7/GaudiPolicy/v8r0/cmt/fragments/__init__.py'
p14
S'../../../../InstallArea/python/BcmDet/__init__.py'
p15
sS'../../../Det/BcmDet/v1r0/slc4_ia32_gcc34/libBcmDetDict.so'
p16
S'../../../../InstallArea/slc4_ia32_gcc34/lib/libBcmDetDict.so'
p17
sS'../../Det/BcmDet/v1r0/genConf/BcmDet'
p18
(dp19
S'../../../Det/BcmDet/v1r0/genConf/BcmDet/BcmDetConf.py'
p20
S'../../../../InstallArea/python/BcmDet/BcmDetConf.py'
p21
sS'../../../Det/BcmDet/v1r0/genConf/BcmDet/BcmDet_confDb.py'
p22
S'../../../../InstallArea/python/BcmDet/BcmDet_confDb.py'
p23
ssS'/afs/cern.ch/sw/Gaudi/releases/GAUDI/GAUDI_v19r5/GaudiPolicy/v7r1/cmt/fragments/__init__.py'
p24
S'/afs/cern.ch/user/m/mlieng/cmtuser/Gauss_v30r5/InstallArea/python/BcmDet/__init__.py'
p25
ssb.