(i__main__
LogFile
p0
(dp1
S'_installed_files'
p2
(dp3
S'../../Rich/RichMirrorAlignmentOnline/python'
p4
(dp5
S'../../../../Rich/RichMirrorAlignmentOnline/python/PyMirrAlignOnline/__init__.py'
p6
S'../../../InstallArea/x86_64-slc6-gcc48-opt/python/PyMirrAlignOnline/__init__.py'
p7
sS'../../../../Rich/RichMirrorAlignmentOnline/python/PyMirrAlignOnline/Analyzer.py'
p8
S'../../../InstallArea/x86_64-slc6-gcc48-opt/python/PyMirrAlignOnline/Analyzer.py'
p9
sS'../../../../Rich/RichMirrorAlignmentOnline/python/PyMirrAlignOnline/Iterator.py'
p10
S'../../../InstallArea/x86_64-slc6-gcc48-opt/python/PyMirrAlignOnline/Iterator.py'
p11
sS'../../../../Rich/RichMirrorAlignmentOnline/python/PyMirrAlignOnline/Communicator.py'
p12
S'../../../InstallArea/x86_64-slc6-gcc48-opt/python/PyMirrAlignOnline/Communicator.py'
p13
sssb.