(i__main__
LogFile
p0
(dp1
S'_installed_files'
p2
(dp3
S'../Hlt/Hlt2SharedParticles/python'
p4
(dp5
S'../../../Hlt/Hlt2SharedParticles/python/Hlt2SharedParticles/DiMuon.py.bak'
p6
S'../../../InstallArea/python/Hlt2SharedParticles/DiMuon.py.bak'
p7
sS'../../../Hlt/Hlt2SharedParticles/python/Hlt2SharedParticles/DiMuon.py'
p8
S'../../../InstallArea/python/Hlt2SharedParticles/DiMuon.py'
p9
sssb.