(i__main__
LogFile
p0
(dp1
S'_installed_files'
p2
(dp3
S'/afs/cern.ch/lhcb/group/davinci/vol1/DEV/DaVinci_v19r8/MicroDST/MicroDSTTools/v1r0/genConf/MicroDSTTools'
p4
(dp5
S'/afs/cern.ch/lhcb/group/davinci/vol1/DEV/DaVinci_v19r8/MicroDST/MicroDSTTools/v1r0/genConf/MicroDSTTools/MicroDSTToolsConf.py'
p6
S'/afs/cern.ch/lhcb/group/davinci/vol1/DEV/DaVinci_v19r8/InstallArea/python/MicroDSTTools/MicroDSTToolsConf.py'
p7
sS'/afs/cern.ch/lhcb/group/davinci/vol1/DEV/DaVinci_v19r8/MicroDST/MicroDSTTools/v1r0/genConf/MicroDSTTools/MicroDSTTools_confDb.py'
p8
S'/afs/cern.ch/lhcb/group/davinci/vol1/DEV/DaVinci_v19r8/InstallArea/python/MicroDSTTools/MicroDSTTools_confDb.py'
p9
ssS'/afs/cern.ch/sw/Gaudi/releases/GAUDI/GAUDI_v19r5/GaudiPolicy/v7r1/cmt/fragments/__init__.py'
p10
S'/afs/cern.ch/lhcb/group/davinci/vol1/DEV/DaVinci_v19r8/InstallArea/python/MicroDSTTools/__init__.py'
p11
ssb.