##----------------------------------------------------------------------##

# Valgrind addrcheck error suppression file
# Last update with LHCB_v18r9, gcc 3.2.3, valgrind 2.0.0

# Format of this file is:
# {
#     name_of_suppression
#     kind: one of Param Value1 Value2 Value4 Value8
#                   Free Addr1 Addr2 Addr4 Addr8
#                   Cond (previously known as Value0)
#     (if Param: name of system call param, if Free: name of free-ing fn)
#     caller0 name, or /name/of/so/file.so
#     caller1 name, or ditto
#     (optionally: caller2 name)
#     (optionally: caller3 name) - according to doc. But valgrind dies...
# }


# Gaudi v16r2, reported to Hubert
{
  m_algManager and m_svcManager
  Addrcheck:Leak
  fun:_Znwj
  fun:_ZN14ApplicationMgrC1EP10IInterface
  fun:_ZNK13ObjectFactoryI14ApplicationMgrE11instantiateEP10IInterface
}

{
  Service manager
  Addrcheck:Leak
  fun:_Znwj
  fun:_ZNK10SvcFactoryI17EvtPersistencySvcE11instantiateERKSsP11ISvcLocator
  fun:_ZN14ServiceManager13createServiceERKSsS1_RP8IService
}

{
  GaudiTool::msgStream
  Addrcheck:Leak
  fun:_Znwj
  fun:_ZNK9GaudiTool9msgStreamEN3MSG5LevelE
  fun:_ZNK9GaudiTool5debugEv
}
 
{
  pthread? First seen with Brunel v27r5
  Addrcheck:Leak
  fun:malloc
  fun:my_malloc
  fun:get_or_allocate_specifics_ptr
}

# Memory leaks due to linked Root 3.10.02 - 4.04.02 libraries
{
  libMatrix
  Addrcheck:Leak
  fun:malloc
  fun:G__memfunc_para_setup
  fun:G__parse_parameter_link
}

{
  libMatrix2
  Addrcheck:Leak
  fun:malloc
  fun:G__savestring
  fun:G__memfunc_setup
}

{
  libMatrix3
  Addrcheck:Leak
  fun:malloc
  fun:G__memfunc_next
  fun:G__memfunc_setup
}

{
  Seen in Boole v8r2, Brunel v27r5. Reported to Rene 2005-04-13
  Addrcheck:Leak
  fun:_Znwj
  fun:_ZN16TCollectionProxy16genExplicitProxyERKSt9type_infojjiPFPvS3_ES5_S5_S5_S5_S5_S5_S5_S5_
  fun:_ZN4CINT4Type11createClassEv
}

{
  Seen in Boole v8r2, Brunel v27r5. Reported to Rene 2005-04-13
  Addrcheck:Leak
  fun:_Znwj
  fun:_ZN8TStorage11ObjectAllocEj
  fun:_ZN9THostAuth16CreateSecContextEPKcS1_iiS1_S1_7TDatimePvi
}

{
  Seen in Boole v8r2, Brunel v27r5. Reported to Rene 2005-04-13
  Addrcheck:Leak
  fun:_Znwj
  fun:_ZN8TStorage11ObjectAllocEj
  fun:_ZN7TObjectnwEj
}

{
  Seen in Boole v8r2, Brunel v27r5. Reported to Rene 2005-04-13
  Addrcheck:Leak
  fun:_Znaj
  fun:_ZN13TStreamerInfo7CompileEv
  fun:_ZN13TStreamerInfo8BuildOldEv
}

{
  Seen in Boole v8r2 - v9r5. Reported to Rene 2005-04-13
  Addrcheck:Leak
  fun:_Znaj
  fun:_ZN13TStreamerInfo7CompileEv
  fun:_ZN13TStreamerInfo5BuildEv
}

{
  Seen in Boole v8r2, Brunel v27r5. Reported to Rene 2005-04-13
  Addrcheck:Leak
  fun:_Znaj
  fun:_ZN10TStringRef6GetRepEii
  fun:_ZN7TStringC1EPKc
}

{
  Seen in Boole v9r5.
  Addrcheck:Leak
  fun:_Znwj
  fun:_ZN24TEmulatedCollectionProxy12InitializeExEv
  fun:_ZN24TEmulatedCollectionProxyC2EPKc
}
  
{
  Seen with RootHistCnv. See also POOL bug 3047
  Addrcheck:Leak
  fun:malloc
  fun:R__huft_build
  fun:R__Inflate_fixed
  fun:R__Inflate_block
}

# SEAL_1_3_4 - SEAL_1_6_0 - Will not fix (see comments to bug report)
{
  SEAL bug 3050
  Addrcheck:Leak
  fun:_Znwj
  fun:_ZNSt24__default_alloc_templateILb1ELi0EE14_S_chunk_allocEjRi
  fun:_ZNSt24__default_alloc_templateILb1ELi0EE9_S_refillEj
}

# SEAL_1_6_3 - seen with Boole v9r5
{
  Plugin manager with PoolDb
  Addrcheck:Leak
  fun:_Znwj
  fun:_ZN4seal11ModuleCache5parseERKNS_8FilenameEPNS_16ModuleDescriptorE
  fun:_ZN4seal11ModuleCache4loadEv
}

# POOL_1_7_0 - POOL_2_0_7. Visible in Boole v9r5
{
  Savannah bugs 7900, 10700
  Addrcheck:Leak
  fun:_Znwj
  fun:_ZN4pool18PoolXMLFileCatalog19StartXMLFileCatalogEv
  fun:_ZNK4pool14XMLFileCatalog5startEv
}


# CLHEP 1.9.1.0
{
  From XmlCnvSvc, Savannah report 7880
  Addrcheck:Leak
  fun:_Znaj
  fun:_ZN7HepTool9Evaluator8evaluateEPKc
  fun:_ZN9XmlCnvSvc4evalEPKcb
}

# Several POOL 2_0_0 leaks (Savannah report 7882)
{
  From PersistencySvc
  Addrcheck:Leak
  fun:_Znwj
  fun:_ZN4pool12DbSessionObjC1Ev
  fun:_ZN4pool9DbSession4openEv
}

{
  From PersistencySvc/2. Visible in Boole v9r5
  Addrcheck:Leak
  fun:_Znwj
  fun:_ZN4pool8RootOODb12createDomainEv
  fun:_ZN4pool11DbDomainObjC1ERKNS_9DbSessionERKNS_6DbTypeEl
}

{
  From DbStorageExplorer
  Addrcheck:Leak
  fun:_Znwj
  fun:_ZN4pool8RootOODb12createDomainEv
  fun:_ZN4pool14DbContainerObjC1ERKNS_10DbDatabaseERKSsRKNS_6DbTypeEl
}

{
  From DbStorageExplorer/2
  Addrcheck:Leak
  fun:_Znwj
  fun:_ZN4pool13DbDatabaseObjC1ERKNS_8DbDomainERKSsS5_l
  fun:_ZNK4pool10DbDatabase4openERKNS_8DbDomainERKSsS5_l
}

# Several SEAL 1_6_0 leaks (Savannah report 7881)
{
  From POOL/cint
  Addrcheck:Leak
  fun:_Znwj
  fun:_ZN4seal22PluginFactoryImplTypesIFPN4pool13ICINTStreamerEPKNS_7reflect5ClassEEE11AutoFactoryI20PoolDbCustomStreamerI8L1BufferEE6createES7_
  fun:_ZN4seal22PluginFactoryImplTypesIFPN4pool13ICINTStreamerEPKNS_7reflect5ClassEEE4Info6createES7_
}

{
  From POOL/cint
  Addrcheck:Leak
  fun:_Znwj
  fun:_ZN4seal22PluginFactoryImplTypesIFPN4pool13ICINTStreamerEPKNS_7reflect5ClassEEE11AutoFactoryI20PoolDbCustomStreamerI9RawBufferEE6createES7_
  fun:_ZN4seal22PluginFactoryImplTypesIFPN4pool13ICINTStreamerEPKNS_7reflect5ClassEEE4Info6createES7_
}

{
  From SEAL/reflection
  Addrcheck:Leak
  fun:_Znwj
  fun:_ZNSt24__default_alloc_templateILb1ELi0EE8allocateEj
  fun:_ZNSs4_Rep9_S_createEjRKSaIcE
}

# LHCb v18r9. Visible in Boole v9r5
{
  UpdateManagerSvc - reported to Marco/Juan
  Addrcheck:Leak
  fun:_Znwj
  fun:_ZN17IUpdateManagerSvc17registerConditionI16GeometryInfoPlusEE10StatusCodePT_RKSsRKN20ObjectMemberFunctionIS3_E18MemberFunctionTypeE
  fun:_ZN16GeometryInfoPlus17registerConditionEv
}

{
  GeometryInfoPlus - reported to Marco/Juan
  Addrcheck:Leak
  fun:_Znwj
  fun:_ZNK10SvcFactoryI16UpdateManagerSvcE11instantiateERKSsP11ISvcLocator
  fun:_ZN14ServiceManager13createServiceERKSsS1_RP8IService
}
