(i__main__
LogFile
p0
(dp1
S'_installed_files'
p2
(dp3
S'../../../Phys/BplusToPhiMuNu/x86_64-slc6-gcc48-opt/genConf/BplusToPhiMuNu'
p4
(dp5
S'../../../../Phys/BplusToPhiMuNu/x86_64-slc6-gcc48-opt/genConf/BplusToPhiMuNu/BplusToPhiMuNuConf.py'
p6
S'../../../InstallArea/x86_64-slc6-gcc48-opt/python/BplusToPhiMuNu/BplusToPhiMuNuConf.py'
p7
ssS'../../../Phys/BplusToPhiMuNu/x86_64-slc6-gcc48-opt/libBplusToPhiMuNu.so'
p8
S'../../../InstallArea/x86_64-slc6-gcc48-opt/lib/libBplusToPhiMuNu.so'
p9
sS'../../../../GaudiPolicy/cmt/fragments/__init__.py'
p10
S'../../../InstallArea/x86_64-slc6-gcc48-opt/python/BplusToPhiMuNu/__init__.py'
p11
ssb.