(i__main__
LogFile
p0
(dp1
S'_installed_files'
p2
(dp3
S'../../../../../../../../../../sw/Gaudi/releases/GAUDI/GAUDI_v25r2/GaudiPolicy/cmt/fragments/__init__.py'
p4
S'../../../InstallArea/x86_64-slc6-gcc48-opt/python/Ostap/__init__.py'
p5
sS'../../Analysis/Ostap/scripts'
p6
(dp7
S'../../../Analysis/Ostap/scripts/ostap'
p8
S'../../../InstallArea/x86_64-slc6-gcc48-opt/scripts/ostap'
p9
ssS'../../Analysis/Ostap/python'
p10
(dp11
S'../../../../Analysis/Ostap/python/Ostap/Corr2D.py'
p12
S'../../../InstallArea/x86_64-slc6-gcc48-opt/python/Ostap/Corr2D.py'
p13
sS'../../../../Analysis/Ostap/python/Ostap/HParamDeco.py'
p14
S'../../../InstallArea/x86_64-slc6-gcc48-opt/python/Ostap/HParamDeco.py'
p15
sS'../../../../Analysis/Ostap/python/Ostap/Models.py'
p16
S'../../../InstallArea/x86_64-slc6-gcc48-opt/python/Ostap/Models.py'
p17
sS'../../../../Analysis/Ostap/python/Ostap/HTextDeco.py'
p18
S'../../../InstallArea/x86_64-slc6-gcc48-opt/python/Ostap/HTextDeco.py'
p19
sS'../../../../Analysis/Ostap/python/Ostap/LHCbStyle.py'
p20
S'../../../InstallArea/x86_64-slc6-gcc48-opt/python/Ostap/LHCbStyle.py'
p21
sS'../../../../Analysis/Ostap/python/Ostap/Fit2DModels.py'
p22
S'../../../InstallArea/x86_64-slc6-gcc48-opt/python/Ostap/Fit2DModels.py'
p23
sS'../../../../Analysis/Ostap/python/Ostap/uStat.py'
p24
S'../../../InstallArea/x86_64-slc6-gcc48-opt/python/Ostap/uStat.py'
p25
sS'../../../../Analysis/Ostap/python/Ostap/FitModels.py'
p26
S'../../../InstallArea/x86_64-slc6-gcc48-opt/python/Ostap/FitModels.py'
p27
sS'../../../../Analysis/Ostap/python/Ostap/FitSignalModels.py'
p28
S'../../../InstallArea/x86_64-slc6-gcc48-opt/python/Ostap/FitSignalModels.py'
p29
sS'../../../../Analysis/Ostap/python/Ostap/PyRoUts.py'
p30
S'../../../InstallArea/x86_64-slc6-gcc48-opt/python/Ostap/PyRoUts.py'
p31
sS'../../../../Analysis/Ostap/python/Ostap/FitBasic.py'
p32
S'../../../InstallArea/x86_64-slc6-gcc48-opt/python/Ostap/FitBasic.py'
p33
sS'../../../../Analysis/Ostap/python/Ostap/sqlitedict.py'
p34
S'../../../InstallArea/x86_64-slc6-gcc48-opt/python/Ostap/sqlitedict.py'
p35
sS'../../../../Analysis/Ostap/python/Ostap/TreeDeco.py'
p36
S'../../../InstallArea/x86_64-slc6-gcc48-opt/python/Ostap/TreeDeco.py'
p37
sS'../../../../Analysis/Ostap/python/Ostap/FitSpecificModels.py'
p38
S'../../../InstallArea/x86_64-slc6-gcc48-opt/python/Ostap/FitSpecificModels.py'
p39
sS'../../../../Analysis/Ostap/python/Ostap/PyTMVA.py'
p40
S'../../../InstallArea/x86_64-slc6-gcc48-opt/python/Ostap/PyTMVA.py'
p41
sS'../../../../Analysis/Ostap/python/Ostap/OstapBender.py'
p42
S'../../../InstallArea/x86_64-slc6-gcc48-opt/python/Ostap/OstapBender.py'
p43
sS'../../../../Analysis/Ostap/python/Ostap/MiscDeco.py'
p44
S'../../../InstallArea/x86_64-slc6-gcc48-opt/python/Ostap/MiscDeco.py'
p45
sS'../../../../Analysis/Ostap/python/Ostap/FitOtherModels.py'
p46
S'../../../InstallArea/x86_64-slc6-gcc48-opt/python/Ostap/FitOtherModels.py'
p47
sS'../../../../Analysis/Ostap/python/Ostap/SQLiteShelve.py'
p48
S'../../../InstallArea/x86_64-slc6-gcc48-opt/python/Ostap/SQLiteShelve.py'
p49
sS'../../../../Analysis/Ostap/python/Ostap/RooFitDeco.py'
p50
S'../../../InstallArea/x86_64-slc6-gcc48-opt/python/Ostap/RooFitDeco.py'
p51
sS'../../../../Analysis/Ostap/python/Ostap/ostapline.py'
p52
S'../../../InstallArea/x86_64-slc6-gcc48-opt/python/Ostap/ostapline.py'
p53
sS'../../../../Analysis/Ostap/python/Ostap/MinuitDeco.py'
p54
S'../../../InstallArea/x86_64-slc6-gcc48-opt/python/Ostap/MinuitDeco.py'
p55
sS'../../../../Analysis/Ostap/python/Ostap/Selectors.py'
p56
S'../../../InstallArea/x86_64-slc6-gcc48-opt/python/Ostap/Selectors.py'
p57
sS'../../../../Analysis/Ostap/python/Ostap/Utils.py'
p58
S'../../../InstallArea/x86_64-slc6-gcc48-opt/python/Ostap/Utils.py'
p59
sS'../../../../Analysis/Ostap/python/Ostap/GetLumi.py'
p60
S'../../../InstallArea/x86_64-slc6-gcc48-opt/python/Ostap/GetLumi.py'
p61
sS'../../../../Analysis/Ostap/python/Ostap/HCmpDeco.py'
p62
S'../../../InstallArea/x86_64-slc6-gcc48-opt/python/Ostap/HCmpDeco.py'
p63
sS'../../../../Analysis/Ostap/python/Ostap/__init__.py'
p64
S'../../../InstallArea/x86_64-slc6-gcc48-opt/python/Ostap/__init__.py'
p65
sS'../../../../Analysis/Ostap/python/Ostap/progress_bar.py'
p66
S'../../../InstallArea/x86_64-slc6-gcc48-opt/python/Ostap/progress_bar.py'
p67
sS'../../../../Analysis/Ostap/python/Ostap/Data.py'
p68
S'../../../InstallArea/x86_64-slc6-gcc48-opt/python/Ostap/Data.py'
p69
sS'../../../../Analysis/Ostap/python/Ostap/FitBkgModels.py'
p70
S'../../../InstallArea/x86_64-slc6-gcc48-opt/python/Ostap/FitBkgModels.py'
p71
sS'../../../../Analysis/Ostap/python/Ostap/Reweighting.py'
p72
S'../../../InstallArea/x86_64-slc6-gcc48-opt/python/Ostap/Reweighting.py'
p73
sS'../../../../Analysis/Ostap/python/Ostap/ZipShelve.py'
p74
S'../../../InstallArea/x86_64-slc6-gcc48-opt/python/Ostap/ZipShelve.py'
p75
sS'../../../../Analysis/Ostap/python/Ostap/shelve_ext.py'
p76
S'../../../InstallArea/x86_64-slc6-gcc48-opt/python/Ostap/shelve_ext.py'
p77
sssb.