(i__main__
LogFile
p0
(dp1
S'_installed_files'
p2
(dp3
S'../../../../../../../../sw/lcg/app/nightlies/dev1/Thu/GAUDI/GAUDI_HEAD/GaudiPolicy/cmt/fragments/__init__.py'
p4
S'../../../InstallArea/python/HltSettings/__init__.py'
p5
sS'../Hlt/HltSettings/python'
p6
(dp7
S'../../../Hlt/HltSettings/python/HltSettings/Physics_10000Vis_1000L0_40Hlt1_CharmingHlt2_Jul09.py'
p8
S'../../../InstallArea/python/HltSettings/Physics_10000Vis_1000L0_40Hlt1_CharmingHlt2_Jul09.py'
p9
sS'../../../Hlt/HltSettings/python/HltSettings/Exclusive_Nominal.py'
p10
S'../../../InstallArea/python/HltSettings/Exclusive_Nominal.py'
p11
sS'../../../Hlt/HltSettings/python/HltSettings/Commissioning_Nominal.py'
p12
S'../../../InstallArea/python/HltSettings/Commissioning_Nominal.py'
p13
sS'../../../Hlt/HltSettings/python/HltSettings/Physics_10000Vis_1000L0_40Hlt1_HadronicHlt2_Jul09.py'
p14
S'../../../InstallArea/python/HltSettings/Physics_10000Vis_1000L0_40Hlt1_HadronicHlt2_Jul09.py'
p15
sS'../../../Hlt/HltSettings/python/HltSettings/Physics_320Vis_300L0_10Hlt1_Aug09.py'
p16
S'../../../InstallArea/python/HltSettings/Physics_320Vis_300L0_10Hlt1_Aug09.py'
p17
sS'../../../Hlt/HltSettings/python/HltSettings/Phi_Nominal.py'
p18
S'../../../InstallArea/python/HltSettings/Phi_Nominal.py'
p19
sS'../../../Hlt/HltSettings/python/HltSettings/Physics_10000Vis_1000L0_40Hlt1_EffectiveHlt2_Jul09.py'
p20
S'../../../InstallArea/python/HltSettings/Physics_10000Vis_1000L0_40Hlt1_EffectiveHlt2_Jul09.py'
p21
sS'../../../Hlt/HltSettings/python/HltSettings/Physics_10000Vis_1000L0_40Hlt1_LeptonicHlt2_Jul09.py'
p22
S'../../../InstallArea/python/HltSettings/Physics_10000Vis_1000L0_40Hlt1_LeptonicHlt2_Jul09.py'
p23
sS'../../../Hlt/HltSettings/python/HltSettings/Physics_10000Vis_1000L0_40Hlt1_Apr09.py'
p24
S'../../../InstallArea/python/HltSettings/Physics_10000Vis_1000L0_40Hlt1_Apr09.py'
p25
sssb.