(i__main__
LogFile
p0
(dp1
S'_installed_files'
p2
(dp3
S'../../../../../../../../sw/Gaudi/releases/GAUDI/GAUDI_v21r2/GaudiPolicy/cmt/fragments/__init__.py'
p4
S'../../../InstallArea/python/OTCalibration/__init__.py'
p5
sS'../../../../../../../../sw/Gaudi/releases/GAUDI/GAUDI_v20r4/GaudiPolicy/cmt/fragments/__init__.py'
p6
S'../../../InstallArea/python/OTCalibration/__init__.py'
p7
sS'../../Calibration/OTCalibration/genConf/OTCalibration'
p8
(dp9
S'../../../Calibration/OTCalibration/genConf/OTCalibration/OTCalibrationConf.py'
p10
S'../../../InstallArea/python/OTCalibration/OTCalibrationConf.py'
p11
sS'../../../Calibration/OTCalibration/genConf/OTCalibration/OTCalibration_user_confDb.py'
p12
S'../../../InstallArea/python/OTCalibration/OTCalibration_user_confDb.py'
p13
sS'../../../Calibration/OTCalibration/genConf/OTCalibration/OTCalibration_confDb.py'
p14
S'../../../InstallArea/python/OTCalibration/OTCalibration_confDb.py'
p15
ssS'../../../Calibration/OTCalibration/slc4_amd64_gcc34/libOTCalibration.so'
p16
S'../../../InstallArea/slc4_amd64_gcc34/lib/libOTCalibration.so'
p17
sS'../Calibration/OTCalibration/python'
p18
(dp19
S'../../../Calibration/OTCalibration/python/OTCalibration/ConfiguredCosmicsSequences.py'
p20
S'../../../InstallArea/python/OTCalibration/ConfiguredCosmicsSequences.py'
p21
sssb.