(i__main__
LogFile
p0
(dp1
S'_installed_files'
p2
(dp3
S'../../../../../../../../sw/Gaudi/releases/GAUDI/GAUDI_v20r4/GaudiPolicy/cmt/fragments/__init__.py'
p4
S'../../../InstallArea/python/OTCalibration/__init__.py'
p5
sS'../../Calibration/OTCalibration/genConf/OTCalibration'
p6
(dp7
S'../../../Calibration/OTCalibration/genConf/OTCalibration/OTCalibrationConf.py'
p8
S'../../../InstallArea/python/OTCalibration/OTCalibrationConf.py'
p9
sS'../../../Calibration/OTCalibration/genConf/OTCalibration/OTCalibration_confDb.py'
p10
S'../../../InstallArea/python/OTCalibration/OTCalibration_confDb.py'
p11
ssS'../../../Calibration/OTCalibration/slc4_amd64_gcc34/libOTCalibration.so'
p12
S'../../../InstallArea/slc4_amd64_gcc34/lib/libOTCalibration.so'
p13
sS'../Calibration/OTCalibration/python'
p14
(dp15
S'../../../Calibration/OTCalibration/python/OTCalibration/ConfiguredCosmicsSequences.py'
p16
S'../../../InstallArea/python/OTCalibration/ConfiguredCosmicsSequences.py'
p17
sssb.