(dp0
I68179
(lp1
S'LFN:/lhcb/data/2010/RAW/EXPRESS/LHCb/COLLISION10/68179/068179_0000000001.raw'
p2
asI68181
(lp3
S'LFN:/lhcb/data/2010/RAW/EXPRESS/LHCb/COLLISION10/68181/068181_0000000003.raw'
p4
asI68254
(lp5
S'LFN:/lhcb/data/2010/RAW/EXPRESS/LHCb/COLLISION10/68254/068254_0000000003.raw'
p6
asI68909
(lp7
S'LFN:/lhcb/data/2010/RAW/EXPRESS/LHCb/COLLISION10/68909/068909_0000000002.raw'
p8
as.