(dp0
I75691
(lp1
S'LFN:/lhcb/data/2010/RAW/EXPRESS/LHCb/COLLISION10/75691/075691_0000000131.raw'
p2
aS'LFN:/lhcb/data/2010/RAW/EXPRESS/LHCb/COLLISION10/75691/075691_0000000196.raw'
p3
aS'LFN:/lhcb/data/2010/RAW/EXPRESS/LHCb/COLLISION10/75691/075691_0000000378.raw'
p4
aS'LFN:/lhcb/data/2010/RAW/EXPRESS/LHCb/COLLISION10/75691/075691_0000000596.raw'
p5
aS'LFN:/lhcb/data/2010/RAW/EXPRESS/LHCb/COLLISION10/75691/075691_0000000004.raw'
p6
aS'LFN:/lhcb/data/2010/RAW/EXPRESS/LHCb/COLLISION10/75691/075691_0000000257.raw'
p7
aS'LFN:/lhcb/data/2010/RAW/EXPRESS/LHCb/COLLISION10/75691/075691_0000000432.raw'
p8
aS'LFN:/lhcb/data/2010/RAW/EXPRESS/LHCb/COLLISION10/75691/075691_0000000545.raw'
p9
aS'LFN:/lhcb/data/2010/RAW/EXPRESS/LHCb/COLLISION10/75691/075691_0000000055.raw'
p10
aS'LFN:/lhcb/data/2010/RAW/EXPRESS/LHCb/COLLISION10/75691/075691_0000000318.raw'
p11
aS'LFN:/lhcb/data/2010/RAW/EXPRESS/LHCb/COLLISION10/75691/075691_0000000489.raw'
p12
aS'LFN:/lhcb/data/2010/RAW/EXPRESS/LHCb/COLLISION10/75691/075691_0000000650.raw'
p13
asI75715
(lp14
S'LFN:/lhcb/data/2010/RAW/EXPRESS/LHCb/COLLISION10/75715/075715_0000000004.raw'
p15
aS'LFN:/lhcb/data/2010/RAW/EXPRESS/LHCb/COLLISION10/75715/075715_0000000059.raw'
p16
aS'LFN:/lhcb/data/2010/RAW/EXPRESS/LHCb/COLLISION10/75715/075715_0000000505.raw'
p17
aS'LFN:/lhcb/data/2010/RAW/EXPRESS/LHCb/COLLISION10/75715/075715_0000000619.raw'
p18
aS'LFN:/lhcb/data/2010/RAW/EXPRESS/LHCb/COLLISION10/75715/075715_0000000674.raw'
p19
aS'LFN:/lhcb/data/2010/RAW/EXPRESS/LHCb/COLLISION10/75715/075715_0000000271.raw'
p20
aS'LFN:/lhcb/data/2010/RAW/EXPRESS/LHCb/COLLISION10/75715/075715_0000000330.raw'
p21
aS'LFN:/lhcb/data/2010/RAW/EXPRESS/LHCb/COLLISION10/75715/075715_0000000563.raw'
p22
aS'LFN:/lhcb/data/2010/RAW/EXPRESS/LHCb/COLLISION10/75715/075715_0000000139.raw'
p23
aS'LFN:/lhcb/data/2010/RAW/EXPRESS/LHCb/COLLISION10/75715/075715_0000000207.raw'
p24
aS'LFN:/lhcb/data/2010/RAW/EXPRESS/LHCb/COLLISION10/75715/075715_0000000390.raw'
p25
aS'LFN:/lhcb/data/2010/RAW/EXPRESS/LHCb/COLLISION10/75715/075715_0000000452.raw'
p26
asI74788
(lp27
S'LFN:/lhcb/data/2010/RAW/EXPRESS/LHCb/COLLISION10/74788/074788_0000000004.raw'
p28
aS'LFN:/lhcb/data/2010/RAW/EXPRESS/LHCb/COLLISION10/74788/074788_0000000003.raw'
p29
aS'LFN:/lhcb/data/2010/RAW/EXPRESS/LHCb/COLLISION10/74788/074788_0000000019.raw'
p30
aS'LFN:/lhcb/data/2010/RAW/EXPRESS/LHCb/COLLISION10/74788/074788_0000000032.raw'
p31
asI74789
(lp32
S'LFN:/lhcb/data/2010/RAW/EXPRESS/LHCb/COLLISION10/74789/074789_0000000002.raw'
p33
aS'LFN:/lhcb/data/2010/RAW/EXPRESS/LHCb/COLLISION10/74789/074789_0000000004.raw'
p34
asI74790
(lp35
S'LFN:/lhcb/data/2010/RAW/EXPRESS/LHCb/COLLISION10/74790/074790_0000000003.raw'
p36
asI76845
(lp37
S'LFN:/lhcb/data/2010/RAW/EXPRESS/LHCb/COLLISION10/76845/076845_0000000019.raw'
p38
aS'LFN:/lhcb/data/2010/RAW/EXPRESS/LHCb/COLLISION10/76845/076845_0000000169.raw'
p39
aS'LFN:/lhcb/data/2010/RAW/EXPRESS/LHCb/COLLISION10/76845/076845_0000000297.raw'
p40
aS'LFN:/lhcb/data/2010/RAW/EXPRESS/LHCb/COLLISION10/76845/076845_0000000337.raw'
p41
aS'LFN:/lhcb/data/2010/RAW/EXPRESS/LHCb/COLLISION10/76845/076845_0000000377.raw'
p42
aS'LFN:/lhcb/data/2010/RAW/EXPRESS/LHCb/COLLISION10/76845/076845_0000000255.raw'
p43
aS'LFN:/lhcb/data/2010/RAW/EXPRESS/LHCb/COLLISION10/76845/076845_0000000003.raw'
p44
aS'LFN:/lhcb/data/2010/RAW/EXPRESS/LHCb/COLLISION10/76845/076845_0000000073.raw'
p45
aS'LFN:/lhcb/data/2010/RAW/EXPRESS/LHCb/COLLISION10/76845/076845_0000000123.raw'
p46
aS'LFN:/lhcb/data/2010/RAW/EXPRESS/LHCb/COLLISION10/76845/076845_0000000213.raw'
p47
asI76846
(lp48
S'LFN:/lhcb/data/2010/RAW/EXPRESS/LHCb/COLLISION10/76846/076846_0000000005.raw'
p49
aS'LFN:/lhcb/data/2010/RAW/EXPRESS/LHCb/COLLISION10/76846/076846_0000000015.raw'
p50
aS'LFN:/lhcb/data/2010/RAW/EXPRESS/LHCb/COLLISION10/76846/076846_0000000111.raw'
p51
aS'LFN:/lhcb/data/2010/RAW/EXPRESS/LHCb/COLLISION10/76846/076846_0000000269.raw'
p52
aS'LFN:/lhcb/data/2010/RAW/EXPRESS/LHCb/COLLISION10/76846/076846_0000000069.raw'
p53
aS'LFN:/lhcb/data/2010/RAW/EXPRESS/LHCb/COLLISION10/76846/076846_0000000153.raw'
p54
aS'LFN:/lhcb/data/2010/RAW/EXPRESS/LHCb/COLLISION10/76846/076846_0000000193.raw'
p55
aS'LFN:/lhcb/data/2010/RAW/EXPRESS/LHCb/COLLISION10/76846/076846_0000000232.raw'
p56
asI76847
(lp57
S'LFN:/lhcb/data/2010/RAW/EXPRESS/LHCb/COLLISION10/76847/076847_0000000063.raw'
p58
aS'LFN:/lhcb/data/2010/RAW/EXPRESS/LHCb/COLLISION10/76847/076847_0000000019.raw'
p59
aS'LFN:/lhcb/data/2010/RAW/EXPRESS/LHCb/COLLISION10/76847/076847_0000000005.raw'
p60
asI76848
(lp61
S'LFN:/lhcb/data/2010/RAW/EXPRESS/LHCb/COLLISION10/76848/076848_0000000004.raw'
p62
aS'LFN:/lhcb/data/2010/RAW/EXPRESS/LHCb/COLLISION10/76848/076848_0000000282.raw'
p63
aS'LFN:/lhcb/data/2010/RAW/EXPRESS/LHCb/COLLISION10/76848/076848_0000000103.raw'
p64
aS'LFN:/lhcb/data/2010/RAW/EXPRESS/LHCb/COLLISION10/76848/076848_0000000179.raw'
p65
aS'LFN:/lhcb/data/2010/RAW/EXPRESS/LHCb/COLLISION10/76848/076848_0000000063.raw'
p66
aS'LFN:/lhcb/data/2010/RAW/EXPRESS/LHCb/COLLISION10/76848/076848_0000000019.raw'
p67
aS'LFN:/lhcb/data/2010/RAW/EXPRESS/LHCb/COLLISION10/76848/076848_0000000141.raw'
p68
aS'LFN:/lhcb/data/2010/RAW/EXPRESS/LHCb/COLLISION10/76848/076848_0000000213.raw'
p69
aS'LFN:/lhcb/data/2010/RAW/EXPRESS/LHCb/COLLISION10/76848/076848_0000000248.raw'
p70
aS'LFN:/lhcb/data/2010/RAW/EXPRESS/LHCb/COLLISION10/76848/076848_0000000316.raw'
p71
asI74802
(lp72
S'LFN:/lhcb/data/2010/RAW/EXPRESS/LHCb/COLLISION10/74802/074802_0000000004.raw'
p73
aS'LFN:/lhcb/data/2010/RAW/EXPRESS/LHCb/COLLISION10/74802/074802_0000000001.raw'
p74
asI74803
(lp75
S'LFN:/lhcb/data/2010/RAW/EXPRESS/LHCb/COLLISION10/74803/074803_0000000059.raw'
p76
aS'LFN:/lhcb/data/2010/RAW/EXPRESS/LHCb/COLLISION10/74803/074803_0000000129.raw'
p77
aS'LFN:/lhcb/data/2010/RAW/EXPRESS/LHCb/COLLISION10/74803/074803_0000000002.raw'
p78
aS'LFN:/lhcb/data/2010/RAW/EXPRESS/LHCb/COLLISION10/74803/074803_0000000004.raw'
p79
aS'LFN:/lhcb/data/2010/RAW/EXPRESS/LHCb/COLLISION10/74803/074803_0000000084.raw'
p80
aS'LFN:/lhcb/data/2010/RAW/EXPRESS/LHCb/COLLISION10/74803/074803_0000000108.raw'
p81
aS'LFN:/lhcb/data/2010/RAW/EXPRESS/LHCb/COLLISION10/74803/074803_0000000032.raw'
p82
asI74804
(lp83
S'LFN:/lhcb/data/2010/RAW/EXPRESS/LHCb/COLLISION10/74804/074804_0000000004.raw'
p84
aS'LFN:/lhcb/data/2010/RAW/EXPRESS/LHCb/COLLISION10/74804/074804_0000000003.raw'
p85
asI74805
(lp86
S'LFN:/lhcb/data/2010/RAW/EXPRESS/LHCb/COLLISION10/74805/074805_0000000030.raw'
p87
aS'LFN:/lhcb/data/2010/RAW/EXPRESS/LHCb/COLLISION10/74805/074805_0000000054.raw'
p88
aS'LFN:/lhcb/data/2010/RAW/EXPRESS/LHCb/COLLISION10/74805/074805_0000000002.raw'
p89
aS'LFN:/lhcb/data/2010/RAW/EXPRESS/LHCb/COLLISION10/74805/074805_0000000004.raw'
p90
aS'LFN:/lhcb/data/2010/RAW/EXPRESS/LHCb/COLLISION10/74805/074805_0000000075.raw'
p91
asI74806
(lp92
S'LFN:/lhcb/data/2010/RAW/EXPRESS/LHCb/COLLISION10/74806/074806_0000000048.raw'
p93
aS'LFN:/lhcb/data/2010/RAW/EXPRESS/LHCb/COLLISION10/74806/074806_0000000086.raw'
p94
aS'LFN:/lhcb/data/2010/RAW/EXPRESS/LHCb/COLLISION10/74806/074806_0000000105.raw'
p95
aS'LFN:/lhcb/data/2010/RAW/EXPRESS/LHCb/COLLISION10/74806/074806_0000000004.raw'
p96
aS'LFN:/lhcb/data/2010/RAW/EXPRESS/LHCb/COLLISION10/74806/074806_0000000003.raw'
p97
aS'LFN:/lhcb/data/2010/RAW/EXPRESS/LHCb/COLLISION10/74806/074806_0000000027.raw'
p98
aS'LFN:/lhcb/data/2010/RAW/EXPRESS/LHCb/COLLISION10/74806/074806_0000000069.raw'
p99
asI74807
(lp100
S'LFN:/lhcb/data/2010/RAW/EXPRESS/LHCb/COLLISION10/74807/074807_0000000004.raw'
p101
aS'LFN:/lhcb/data/2010/RAW/EXPRESS/LHCb/COLLISION10/74807/074807_0000000026.raw'
p102
aS'LFN:/lhcb/data/2010/RAW/EXPRESS/LHCb/COLLISION10/74807/074807_0000000122.raw'
p103
aS'LFN:/lhcb/data/2010/RAW/EXPRESS/LHCb/COLLISION10/74807/074807_0000000003.raw'
p104
aS'LFN:/lhcb/data/2010/RAW/EXPRESS/LHCb/COLLISION10/74807/074807_0000000062.raw'
p105
aS'LFN:/lhcb/data/2010/RAW/EXPRESS/LHCb/COLLISION10/74807/074807_0000000078.raw'
p106
aS'LFN:/lhcb/data/2010/RAW/EXPRESS/LHCb/COLLISION10/74807/074807_0000000107.raw'
p107
aS'LFN:/lhcb/data/2010/RAW/EXPRESS/LHCb/COLLISION10/74807/074807_0000000150.raw'
p108
aS'LFN:/lhcb/data/2010/RAW/EXPRESS/LHCb/COLLISION10/74807/074807_0000000163.raw'
p109
aS'LFN:/lhcb/data/2010/RAW/EXPRESS/LHCb/COLLISION10/74807/074807_0000000045.raw'
p110
aS'LFN:/lhcb/data/2010/RAW/EXPRESS/LHCb/COLLISION10/74807/074807_0000000093.raw'
p111
aS'LFN:/lhcb/data/2010/RAW/EXPRESS/LHCb/COLLISION10/74807/074807_0000000135.raw'
p112
aS'LFN:/lhcb/data/2010/RAW/EXPRESS/LHCb/COLLISION10/74807/074807_0000000177.raw'
p113
asI74808
(lp114
S'LFN:/lhcb/data/2010/RAW/EXPRESS/LHCb/COLLISION10/74808/074808_0000000067.raw'
p115
aS'LFN:/lhcb/data/2010/RAW/EXPRESS/LHCb/COLLISION10/74808/074808_0000000002.raw'
p116
aS'LFN:/lhcb/data/2010/RAW/EXPRESS/LHCb/COLLISION10/74808/074808_0000000053.raw'
p117
aS'LFN:/lhcb/data/2010/RAW/EXPRESS/LHCb/COLLISION10/74808/074808_0000000023.raw'
p118
aS'LFN:/lhcb/data/2010/RAW/EXPRESS/LHCb/COLLISION10/74808/074808_0000000039.raw'
p119
aS'LFN:/lhcb/data/2010/RAW/EXPRESS/LHCb/COLLISION10/74808/074808_0000000004.raw'
p120
aS'LFN:/lhcb/data/2010/RAW/EXPRESS/LHCb/COLLISION10/74808/074808_0000000081.raw'
p121
asI74809
(lp122
S'LFN:/lhcb/data/2010/RAW/EXPRESS/LHCb/COLLISION10/74809/074809_0000000004.raw'
p123
aS'LFN:/lhcb/data/2010/RAW/EXPRESS/LHCb/COLLISION10/74809/074809_0000000001.raw'
p124
asI74810
(lp125
S'LFN:/lhcb/data/2010/RAW/EXPRESS/LHCb/COLLISION10/74810/074810_0000000004.raw'
p126
aS'LFN:/lhcb/data/2010/RAW/EXPRESS/LHCb/COLLISION10/74810/074810_0000000003.raw'
p127
asI74811
(lp128
S'LFN:/lhcb/data/2010/RAW/EXPRESS/LHCb/COLLISION10/74811/074811_0000000003.raw'
p129
aS'LFN:/lhcb/data/2010/RAW/EXPRESS/LHCb/COLLISION10/74811/074811_0000000004.raw'
p130
asI74812
(lp131
S'LFN:/lhcb/data/2010/RAW/EXPRESS/LHCb/COLLISION10/74812/074812_0000000004.raw'
p132
aS'LFN:/lhcb/data/2010/RAW/EXPRESS/LHCb/COLLISION10/74812/074812_0000000003.raw'
p133
asI74813
(lp134
S'LFN:/lhcb/data/2010/RAW/EXPRESS/LHCb/COLLISION10/74813/074813_0000000004.raw'
p135
aS'LFN:/lhcb/data/2010/RAW/EXPRESS/LHCb/COLLISION10/74813/074813_0000000001.raw'
p136
asI74814
(lp137
S'LFN:/lhcb/data/2010/RAW/EXPRESS/LHCb/COLLISION10/74814/074814_0000000002.raw'
p138
aS'LFN:/lhcb/data/2010/RAW/EXPRESS/LHCb/COLLISION10/74814/074814_0000000004.raw'
p139
asI74815
(lp140
S'LFN:/lhcb/data/2010/RAW/EXPRESS/LHCb/COLLISION10/74815/074815_0000000004.raw'
p141
aS'LFN:/lhcb/data/2010/RAW/EXPRESS/LHCb/COLLISION10/74815/074815_0000000003.raw'
p142
asI74816
(lp143
S'LFN:/lhcb/data/2010/RAW/EXPRESS/LHCb/COLLISION10/74816/074816_0000000004.raw'
p144
aS'LFN:/lhcb/data/2010/RAW/EXPRESS/LHCb/COLLISION10/74816/074816_0000000002.raw'
p145
asI74817
(lp146
S'LFN:/lhcb/data/2010/RAW/EXPRESS/LHCb/COLLISION10/74817/074817_0000000002.raw'
p147
aS'LFN:/lhcb/data/2010/RAW/EXPRESS/LHCb/COLLISION10/74817/074817_0000000004.raw'
p148
asI74818
(lp149
S'LFN:/lhcb/data/2010/RAW/EXPRESS/LHCb/COLLISION10/74818/074818_0000000002.raw'
p150
aS'LFN:/lhcb/data/2010/RAW/EXPRESS/LHCb/COLLISION10/74818/074818_0000000004.raw'
p151
asI74819
(lp152
S'LFN:/lhcb/data/2010/RAW/EXPRESS/LHCb/COLLISION10/74819/074819_0000000003.raw'
p153
aS'LFN:/lhcb/data/2010/RAW/EXPRESS/LHCb/COLLISION10/74819/074819_0000000004.raw'
p154
asI74820
(lp155
S'LFN:/lhcb/data/2010/RAW/EXPRESS/LHCb/COLLISION10/74820/074820_0000000004.raw'
p156
aS'LFN:/lhcb/data/2010/RAW/EXPRESS/LHCb/COLLISION10/74820/074820_0000000001.raw'
p157
asI74821
(lp158
S'LFN:/lhcb/data/2010/RAW/EXPRESS/LHCb/COLLISION10/74821/074821_0000000004.raw'
p159
aS'LFN:/lhcb/data/2010/RAW/EXPRESS/LHCb/COLLISION10/74821/074821_0000000002.raw'
p160
asI74822
(lp161
S'LFN:/lhcb/data/2010/RAW/EXPRESS/LHCb/COLLISION10/74822/074822_0000000002.raw'
p162
aS'LFN:/lhcb/data/2010/RAW/EXPRESS/LHCb/COLLISION10/74822/074822_0000000004.raw'
p163
asI75335
(lp164
S'LFN:/lhcb/data/2010/RAW/EXPRESS/LHCb/COLLISION10/75335/075335_0000000001.raw'
p165
aS'LFN:/lhcb/data/2010/RAW/EXPRESS/LHCb/COLLISION10/75335/075335_0000000049.raw'
p166
aS'LFN:/lhcb/data/2010/RAW/EXPRESS/LHCb/COLLISION10/75335/075335_0000000023.raw'
p167
aS'LFN:/lhcb/data/2010/RAW/EXPRESS/LHCb/COLLISION10/75335/075335_0000000075.raw'
p168
aS'LFN:/lhcb/data/2010/RAW/EXPRESS/LHCb/COLLISION10/75335/075335_0000000098.raw'
p169
aS'LFN:/lhcb/data/2010/RAW/EXPRESS/LHCb/COLLISION10/75335/075335_0000000122.raw'
p170
asI75336
(lp171
S'LFN:/lhcb/data/2010/RAW/EXPRESS/LHCb/COLLISION10/75336/075336_0000000002.raw'
p172
asI74825
(lp173
S'LFN:/lhcb/data/2010/RAW/EXPRESS/LHCb/COLLISION10/74825/074825_0000000001.raw'
p174
aS'LFN:/lhcb/data/2010/RAW/EXPRESS/LHCb/COLLISION10/74825/074825_0000000005.raw'
p175
asI74826
(lp176
S'LFN:/lhcb/data/2010/RAW/EXPRESS/LHCb/COLLISION10/74826/074826_0000000004.raw'
p177
aS'LFN:/lhcb/data/2010/RAW/EXPRESS/LHCb/COLLISION10/74826/074826_0000000003.raw'
p178
asI75339
(lp179
S'LFN:/lhcb/data/2010/RAW/EXPRESS/LHCb/COLLISION10/75339/075339_0000000075.raw'
p180
aS'LFN:/lhcb/data/2010/RAW/EXPRESS/LHCb/COLLISION10/75339/075339_0000000203.raw'
p181
aS'LFN:/lhcb/data/2010/RAW/EXPRESS/LHCb/COLLISION10/75339/075339_0000000023.raw'
p182
aS'LFN:/lhcb/data/2010/RAW/EXPRESS/LHCb/COLLISION10/75339/075339_0000000183.raw'
p183
aS'LFN:/lhcb/data/2010/RAW/EXPRESS/LHCb/COLLISION10/75339/075339_0000000223.raw'
p184
aS'LFN:/lhcb/data/2010/RAW/EXPRESS/LHCb/COLLISION10/75339/075339_0000000162.raw'
p185
aS'LFN:/lhcb/data/2010/RAW/EXPRESS/LHCb/COLLISION10/75339/075339_0000000140.raw'
p186
aS'LFN:/lhcb/data/2010/RAW/EXPRESS/LHCb/COLLISION10/75339/075339_0000000118.raw'
p187
aS'LFN:/lhcb/data/2010/RAW/EXPRESS/LHCb/COLLISION10/75339/075339_0000000001.raw'
p188
aS'LFN:/lhcb/data/2010/RAW/EXPRESS/LHCb/COLLISION10/75339/075339_0000000049.raw'
p189
aS'LFN:/lhcb/data/2010/RAW/EXPRESS/LHCb/COLLISION10/75339/075339_0000000097.raw'
p190
asI75340
(lp191
S'LFN:/lhcb/data/2010/RAW/EXPRESS/LHCb/COLLISION10/75340/075340_0000000023.raw'
p192
aS'LFN:/lhcb/data/2010/RAW/EXPRESS/LHCb/COLLISION10/75340/075340_0000000002.raw'
p193
asI74829
(lp194
S'LFN:/lhcb/data/2010/RAW/EXPRESS/LHCb/COLLISION10/74829/074829_0000000037.raw'
p195
aS'LFN:/lhcb/data/2010/RAW/EXPRESS/LHCb/COLLISION10/74829/074829_0000000002.raw'
p196
aS'LFN:/lhcb/data/2010/RAW/EXPRESS/LHCb/COLLISION10/74829/074829_0000000004.raw'
p197
aS'LFN:/lhcb/data/2010/RAW/EXPRESS/LHCb/COLLISION10/74829/074829_0000000022.raw'
p198
asI75344
(lp199
S'LFN:/lhcb/data/2010/RAW/EXPRESS/LHCb/COLLISION10/75344/075344_0000000093.raw'
p200
aS'LFN:/lhcb/data/2010/RAW/EXPRESS/LHCb/COLLISION10/75344/075344_0000000001.raw'
p201
aS'LFN:/lhcb/data/2010/RAW/EXPRESS/LHCb/COLLISION10/75344/075344_0000000043.raw'
p202
aS'LFN:/lhcb/data/2010/RAW/EXPRESS/LHCb/COLLISION10/75344/075344_0000000142.raw'
p203
asI75345
(lp204
S'LFN:/lhcb/data/2010/RAW/EXPRESS/LHCb/COLLISION10/75345/075345_0000000002.raw'
p205
asI75346
(lp206
S'LFN:/lhcb/data/2010/RAW/EXPRESS/LHCb/COLLISION10/75346/075346_0000000002.raw'
p207
asI75347
(lp208
S'LFN:/lhcb/data/2010/RAW/EXPRESS/LHCb/COLLISION10/75347/075347_0000000001.raw'
p209
asI74836
(lp210
S'LFN:/lhcb/data/2010/RAW/EXPRESS/LHCb/COLLISION10/74836/074836_0000000033.raw'
p211
aS'LFN:/lhcb/data/2010/RAW/EXPRESS/LHCb/COLLISION10/74836/074836_0000000078.raw'
p212
aS'LFN:/lhcb/data/2010/RAW/EXPRESS/LHCb/COLLISION10/74836/074836_0000000008.raw'
p213
aS'LFN:/lhcb/data/2010/RAW/EXPRESS/LHCb/COLLISION10/74836/074836_0000000021.raw'
p214
aS'LFN:/lhcb/data/2010/RAW/EXPRESS/LHCb/COLLISION10/74836/074836_0000000056.raw'
p215
aS'LFN:/lhcb/data/2010/RAW/EXPRESS/LHCb/COLLISION10/74836/074836_0000000002.raw'
p216
aS'LFN:/lhcb/data/2010/RAW/EXPRESS/LHCb/COLLISION10/74836/074836_0000000067.raw'
p217
aS'LFN:/lhcb/data/2010/RAW/EXPRESS/LHCb/COLLISION10/74836/074836_0000000044.raw'
p218
asI75349
(lp219
S'LFN:/lhcb/data/2010/RAW/EXPRESS/LHCb/COLLISION10/75349/075349_0000000001.raw'
p220
asI75350
(lp221
S'LFN:/lhcb/data/2010/RAW/EXPRESS/LHCb/COLLISION10/75350/075350_0000000002.raw'
p222
asI74853
(lp223
S'LFN:/lhcb/data/2010/RAW/EXPRESS/LHCb/COLLISION10/74853/074853_0000000001.raw'
p224
aS'LFN:/lhcb/data/2010/RAW/EXPRESS/LHCb/COLLISION10/74853/074853_0000000004.raw'
p225
asI74854
(lp226
S'LFN:/lhcb/data/2010/RAW/EXPRESS/LHCb/COLLISION10/74854/074854_0000000086.raw'
p227
aS'LFN:/lhcb/data/2010/RAW/EXPRESS/LHCb/COLLISION10/74854/074854_0000000003.raw'
p228
aS'LFN:/lhcb/data/2010/RAW/EXPRESS/LHCb/COLLISION10/74854/074854_0000000035.raw'
p229
aS'LFN:/lhcb/data/2010/RAW/EXPRESS/LHCb/COLLISION10/74854/074854_0000000061.raw'
p230
aS'LFN:/lhcb/data/2010/RAW/EXPRESS/LHCb/COLLISION10/74854/074854_0000000109.raw'
p231
aS'LFN:/lhcb/data/2010/RAW/EXPRESS/LHCb/COLLISION10/74854/074854_0000000154.raw'
p232
aS'LFN:/lhcb/data/2010/RAW/EXPRESS/LHCb/COLLISION10/74854/074854_0000000199.raw'
p233
aS'LFN:/lhcb/data/2010/RAW/EXPRESS/LHCb/COLLISION10/74854/074854_0000000004.raw'
p234
aS'LFN:/lhcb/data/2010/RAW/EXPRESS/LHCb/COLLISION10/74854/074854_0000000132.raw'
p235
aS'LFN:/lhcb/data/2010/RAW/EXPRESS/LHCb/COLLISION10/74854/074854_0000000220.raw'
p236
aS'LFN:/lhcb/data/2010/RAW/EXPRESS/LHCb/COLLISION10/74854/074854_0000000177.raw'
p237
asI74855
(lp238
S'LFN:/lhcb/data/2010/RAW/EXPRESS/LHCb/COLLISION10/74855/074855_0000000002.raw'
p239
aS'LFN:/lhcb/data/2010/RAW/EXPRESS/LHCb/COLLISION10/74855/074855_0000000004.raw'
p240
aS'LFN:/lhcb/data/2010/RAW/EXPRESS/LHCb/COLLISION10/74855/074855_0000000057.raw'
p241
aS'LFN:/lhcb/data/2010/RAW/EXPRESS/LHCb/COLLISION10/74855/074855_0000000032.raw'
p242
asI74857
(lp243
S'LFN:/lhcb/data/2010/RAW/EXPRESS/LHCb/COLLISION10/74857/074857_0000000080.raw'
p244
aS'LFN:/lhcb/data/2010/RAW/EXPRESS/LHCb/COLLISION10/74857/074857_0000000101.raw'
p245
aS'LFN:/lhcb/data/2010/RAW/EXPRESS/LHCb/COLLISION10/74857/074857_0000000004.raw'
p246
aS'LFN:/lhcb/data/2010/RAW/EXPRESS/LHCb/COLLISION10/74857/074857_0000000143.raw'
p247
aS'LFN:/lhcb/data/2010/RAW/EXPRESS/LHCb/COLLISION10/74857/074857_0000000001.raw'
p248
aS'LFN:/lhcb/data/2010/RAW/EXPRESS/LHCb/COLLISION10/74857/074857_0000000033.raw'
p249
aS'LFN:/lhcb/data/2010/RAW/EXPRESS/LHCb/COLLISION10/74857/074857_0000000057.raw'
p250
aS'LFN:/lhcb/data/2010/RAW/EXPRESS/LHCb/COLLISION10/74857/074857_0000000122.raw'
p251
aS'LFN:/lhcb/data/2010/RAW/EXPRESS/LHCb/COLLISION10/74857/074857_0000000163.raw'
p252
asI74858
(lp253
S'LFN:/lhcb/data/2010/RAW/EXPRESS/LHCb/COLLISION10/74858/074858_0000000002.raw'
p254
asI74861
(lp255
S'LFN:/lhcb/data/2010/RAW/EXPRESS/LHCb/COLLISION10/74861/074861_0000000002.raw'
p256
aS'LFN:/lhcb/data/2010/RAW/EXPRESS/LHCb/COLLISION10/74861/074861_0000000018.raw'
p257
asI74862
(lp258
S'LFN:/lhcb/data/2010/RAW/EXPRESS/LHCb/COLLISION10/74862/074862_0000000018.raw'
p259
aS'LFN:/lhcb/data/2010/RAW/EXPRESS/LHCb/COLLISION10/74862/074862_0000000178.raw'
p260
aS'LFN:/lhcb/data/2010/RAW/EXPRESS/LHCb/COLLISION10/74862/074862_0000000001.raw'
p261
aS'LFN:/lhcb/data/2010/RAW/EXPRESS/LHCb/COLLISION10/74862/074862_0000000065.raw'
p262
aS'LFN:/lhcb/data/2010/RAW/EXPRESS/LHCb/COLLISION10/74862/074862_0000000105.raw'
p263
aS'LFN:/lhcb/data/2010/RAW/EXPRESS/LHCb/COLLISION10/74862/074862_0000000043.raw'
p264
aS'LFN:/lhcb/data/2010/RAW/EXPRESS/LHCb/COLLISION10/74862/074862_0000000123.raw'
p265
aS'LFN:/lhcb/data/2010/RAW/EXPRESS/LHCb/COLLISION10/74862/074862_0000000160.raw'
p266
aS'LFN:/lhcb/data/2010/RAW/EXPRESS/LHCb/COLLISION10/74862/074862_0000000085.raw'
p267
aS'LFN:/lhcb/data/2010/RAW/EXPRESS/LHCb/COLLISION10/74862/074862_0000000141.raw'
p268
asI74863
(lp269
S'LFN:/lhcb/data/2010/RAW/EXPRESS/LHCb/COLLISION10/74863/074863_0000000100.raw'
p270
aS'LFN:/lhcb/data/2010/RAW/EXPRESS/LHCb/COLLISION10/74863/074863_0000000017.raw'
p271
aS'LFN:/lhcb/data/2010/RAW/EXPRESS/LHCb/COLLISION10/74863/074863_0000000041.raw'
p272
aS'LFN:/lhcb/data/2010/RAW/EXPRESS/LHCb/COLLISION10/74863/074863_0000000081.raw'
p273
aS'LFN:/lhcb/data/2010/RAW/EXPRESS/LHCb/COLLISION10/74863/074863_0000000137.raw'
p274
aS'LFN:/lhcb/data/2010/RAW/EXPRESS/LHCb/COLLISION10/74863/074863_0000000155.raw'
p275
aS'LFN:/lhcb/data/2010/RAW/EXPRESS/LHCb/COLLISION10/74863/074863_0000000061.raw'
p276
aS'LFN:/lhcb/data/2010/RAW/EXPRESS/LHCb/COLLISION10/74863/074863_0000000173.raw'
p277
aS'LFN:/lhcb/data/2010/RAW/EXPRESS/LHCb/COLLISION10/74863/074863_0000000002.raw'
p278
aS'LFN:/lhcb/data/2010/RAW/EXPRESS/LHCb/COLLISION10/74863/074863_0000000119.raw'
p279
asI74865
(lp280
S'LFN:/lhcb/data/2010/RAW/EXPRESS/LHCb/COLLISION10/74865/074865_0000000002.raw'
p281
asI74866
(lp282
S'LFN:/lhcb/data/2010/RAW/EXPRESS/LHCb/COLLISION10/74866/074866_0000000017.raw'
p283
aS'LFN:/lhcb/data/2010/RAW/EXPRESS/LHCb/COLLISION10/74866/074866_0000000113.raw'
p284
aS'LFN:/lhcb/data/2010/RAW/EXPRESS/LHCb/COLLISION10/74866/074866_0000000217.raw'
p285
aS'LFN:/lhcb/data/2010/RAW/EXPRESS/LHCb/COLLISION10/74866/074866_0000000078.raw'
p286
aS'LFN:/lhcb/data/2010/RAW/EXPRESS/LHCb/COLLISION10/74866/074866_0000000166.raw'
p287
aS'LFN:/lhcb/data/2010/RAW/EXPRESS/LHCb/COLLISION10/74866/074866_0000000096.raw'
p288
aS'LFN:/lhcb/data/2010/RAW/EXPRESS/LHCb/COLLISION10/74866/074866_0000000200.raw'
p289
aS'LFN:/lhcb/data/2010/RAW/EXPRESS/LHCb/COLLISION10/74866/074866_0000000002.raw'
p290
aS'LFN:/lhcb/data/2010/RAW/EXPRESS/LHCb/COLLISION10/74866/074866_0000000059.raw'
p291
aS'LFN:/lhcb/data/2010/RAW/EXPRESS/LHCb/COLLISION10/74866/074866_0000000131.raw'
p292
aS'LFN:/lhcb/data/2010/RAW/EXPRESS/LHCb/COLLISION10/74866/074866_0000000039.raw'
p293
aS'LFN:/lhcb/data/2010/RAW/EXPRESS/LHCb/COLLISION10/74866/074866_0000000183.raw'
p294
aS'LFN:/lhcb/data/2010/RAW/EXPRESS/LHCb/COLLISION10/74866/074866_0000000148.raw'
p295
asI74867
(lp296
S'LFN:/lhcb/data/2010/RAW/EXPRESS/LHCb/COLLISION10/74867/074867_0000000056.raw'
p297
aS'LFN:/lhcb/data/2010/RAW/EXPRESS/LHCb/COLLISION10/74867/074867_0000000093.raw'
p298
aS'LFN:/lhcb/data/2010/RAW/EXPRESS/LHCb/COLLISION10/74867/074867_0000000017.raw'
p299
aS'LFN:/lhcb/data/2010/RAW/EXPRESS/LHCb/COLLISION10/74867/074867_0000000002.raw'
p300
aS'LFN:/lhcb/data/2010/RAW/EXPRESS/LHCb/COLLISION10/74867/074867_0000000038.raw'
p301
aS'LFN:/lhcb/data/2010/RAW/EXPRESS/LHCb/COLLISION10/74867/074867_0000000075.raw'
p302
asI76932
(lp303
S'LFN:/lhcb/data/2010/RAW/EXPRESS/LHCb/COLLISION10/76932/076932_0000000069.raw'
p304
aS'LFN:/lhcb/data/2010/RAW/EXPRESS/LHCb/COLLISION10/76932/076932_0000000001.raw'
p305
aS'LFN:/lhcb/data/2010/RAW/EXPRESS/LHCb/COLLISION10/76932/076932_0000000019.raw'
p306
asI76933
(lp307
S'LFN:/lhcb/data/2010/RAW/EXPRESS/LHCb/COLLISION10/76933/076933_0000000268.raw'
p308
aS'LFN:/lhcb/data/2010/RAW/EXPRESS/LHCb/COLLISION10/76933/076933_0000000069.raw'
p309
aS'LFN:/lhcb/data/2010/RAW/EXPRESS/LHCb/COLLISION10/76933/076933_0000000114.raw'
p310
aS'LFN:/lhcb/data/2010/RAW/EXPRESS/LHCb/COLLISION10/76933/076933_0000000153.raw'
p311
aS'LFN:/lhcb/data/2010/RAW/EXPRESS/LHCb/COLLISION10/76933/076933_0000000230.raw'
p312
aS'LFN:/lhcb/data/2010/RAW/EXPRESS/LHCb/COLLISION10/76933/076933_0000000193.raw'
p313
aS'LFN:/lhcb/data/2010/RAW/EXPRESS/LHCb/COLLISION10/76933/076933_0000000004.raw'
p314
aS'LFN:/lhcb/data/2010/RAW/EXPRESS/LHCb/COLLISION10/76933/076933_0000000019.raw'
p315
aS'LFN:/lhcb/data/2010/RAW/EXPRESS/LHCb/COLLISION10/76933/076933_0000000303.raw'
p316
aS'LFN:/lhcb/data/2010/RAW/EXPRESS/LHCb/COLLISION10/76933/076933_0000000339.raw'
p317
asI75409
(lp318
S'LFN:/lhcb/data/2010/RAW/EXPRESS/LHCb/COLLISION10/75409/075409_0000000139.raw'
p319
aS'LFN:/lhcb/data/2010/RAW/EXPRESS/LHCb/COLLISION10/75409/075409_0000000001.raw'
p320
aS'LFN:/lhcb/data/2010/RAW/EXPRESS/LHCb/COLLISION10/75409/075409_0000000216.raw'
p321
aS'LFN:/lhcb/data/2010/RAW/EXPRESS/LHCb/COLLISION10/75409/075409_0000000077.raw'
p322
aS'LFN:/lhcb/data/2010/RAW/EXPRESS/LHCb/COLLISION10/75409/075409_0000000039.raw'
p323
asI75410
(lp324
S'LFN:/lhcb/data/2010/RAW/EXPRESS/LHCb/COLLISION10/75410/075410_0000000231.raw'
p325
aS'LFN:/lhcb/data/2010/RAW/EXPRESS/LHCb/COLLISION10/75410/075410_0000000153.raw'
p326
aS'LFN:/lhcb/data/2010/RAW/EXPRESS/LHCb/COLLISION10/75410/075410_0000000067.raw'
p327
aS'LFN:/lhcb/data/2010/RAW/EXPRESS/LHCb/COLLISION10/75410/075410_0000000307.raw'
p328
aS'LFN:/lhcb/data/2010/RAW/EXPRESS/LHCb/COLLISION10/75410/075410_0000000002.raw'
p329
asI75411
(lp330
S'LFN:/lhcb/data/2010/RAW/EXPRESS/LHCb/COLLISION10/75411/075411_0000000129.raw'
p331
aS'LFN:/lhcb/data/2010/RAW/EXPRESS/LHCb/COLLISION10/75411/075411_0000000489.raw'
p332
aS'LFN:/lhcb/data/2010/RAW/EXPRESS/LHCb/COLLISION10/75411/075411_0000000298.raw'
p333
aS'LFN:/lhcb/data/2010/RAW/EXPRESS/LHCb/COLLISION10/75411/075411_0000000346.raw'
p334
aS'LFN:/lhcb/data/2010/RAW/EXPRESS/LHCb/COLLISION10/75411/075411_0000000394.raw'
p335
aS'LFN:/lhcb/data/2010/RAW/EXPRESS/LHCb/COLLISION10/75411/075411_0000000002.raw'
p336
aS'LFN:/lhcb/data/2010/RAW/EXPRESS/LHCb/COLLISION10/75411/075411_0000000058.raw'
p337
aS'LFN:/lhcb/data/2010/RAW/EXPRESS/LHCb/COLLISION10/75411/075411_0000000244.raw'
p338
aS'LFN:/lhcb/data/2010/RAW/EXPRESS/LHCb/COLLISION10/75411/075411_0000000191.raw'
p339
aS'LFN:/lhcb/data/2010/RAW/EXPRESS/LHCb/COLLISION10/75411/075411_0000000536.raw'
p340
aS'LFN:/lhcb/data/2010/RAW/EXPRESS/LHCb/COLLISION10/75411/075411_0000000443.raw'
p341
asI75412
(lp342
S'LFN:/lhcb/data/2010/RAW/EXPRESS/LHCb/COLLISION10/75412/075412_0000000002.raw'
p343
aS'LFN:/lhcb/data/2010/RAW/EXPRESS/LHCb/COLLISION10/75412/075412_0000000106.raw'
p344
aS'LFN:/lhcb/data/2010/RAW/EXPRESS/LHCb/COLLISION10/75412/075412_0000000047.raw'
p345
aS'LFN:/lhcb/data/2010/RAW/EXPRESS/LHCb/COLLISION10/75412/075412_0000000159.raw'
p346
asI75414
(lp347
S'LFN:/lhcb/data/2010/RAW/EXPRESS/LHCb/COLLISION10/75414/075414_0000000047.raw'
p348
aS'LFN:/lhcb/data/2010/RAW/EXPRESS/LHCb/COLLISION10/75414/075414_0000000204.raw'
p349
aS'LFN:/lhcb/data/2010/RAW/EXPRESS/LHCb/COLLISION10/75414/075414_0000000252.raw'
p350
aS'LFN:/lhcb/data/2010/RAW/EXPRESS/LHCb/COLLISION10/75414/075414_0000000105.raw'
p351
aS'LFN:/lhcb/data/2010/RAW/EXPRESS/LHCb/COLLISION10/75414/075414_0000000002.raw'
p352
aS'LFN:/lhcb/data/2010/RAW/EXPRESS/LHCb/COLLISION10/75414/075414_0000000154.raw'
p353
asI75415
(lp354
S'LFN:/lhcb/data/2010/RAW/EXPRESS/LHCb/COLLISION10/75415/075415_0000000047.raw'
p355
aS'LFN:/lhcb/data/2010/RAW/EXPRESS/LHCb/COLLISION10/75415/075415_0000000101.raw'
p356
aS'LFN:/lhcb/data/2010/RAW/EXPRESS/LHCb/COLLISION10/75415/075415_0000000001.raw'
p357
asI75416
(lp358
S'LFN:/lhcb/data/2010/RAW/EXPRESS/LHCb/COLLISION10/75416/075416_0000000047.raw'
p359
aS'LFN:/lhcb/data/2010/RAW/EXPRESS/LHCb/COLLISION10/75416/075416_0000000103.raw'
p360
aS'LFN:/lhcb/data/2010/RAW/EXPRESS/LHCb/COLLISION10/75416/075416_0000000199.raw'
p361
aS'LFN:/lhcb/data/2010/RAW/EXPRESS/LHCb/COLLISION10/75416/075416_0000000150.raw'
p362
aS'LFN:/lhcb/data/2010/RAW/EXPRESS/LHCb/COLLISION10/75416/075416_0000000002.raw'
p363
asI74905
(lp364
S'LFN:/lhcb/data/2010/RAW/EXPRESS/LHCb/COLLISION10/74905/074905_0000000059.raw'
p365
aS'LFN:/lhcb/data/2010/RAW/EXPRESS/LHCb/COLLISION10/74905/074905_0000000024.raw'
p366
aS'LFN:/lhcb/data/2010/RAW/EXPRESS/LHCb/COLLISION10/74905/074905_0000000104.raw'
p367
aS'LFN:/lhcb/data/2010/RAW/EXPRESS/LHCb/COLLISION10/74905/074905_0000000176.raw'
p368
aS'LFN:/lhcb/data/2010/RAW/EXPRESS/LHCb/COLLISION10/74905/074905_0000000002.raw'
p369
aS'LFN:/lhcb/data/2010/RAW/EXPRESS/LHCb/COLLISION10/74905/074905_0000000042.raw'
p370
aS'LFN:/lhcb/data/2010/RAW/EXPRESS/LHCb/COLLISION10/74905/074905_0000000074.raw'
p371
aS'LFN:/lhcb/data/2010/RAW/EXPRESS/LHCb/COLLISION10/74905/074905_0000000004.raw'
p372
aS'LFN:/lhcb/data/2010/RAW/EXPRESS/LHCb/COLLISION10/74905/074905_0000000148.raw'
p373
aS'LFN:/lhcb/data/2010/RAW/EXPRESS/LHCb/COLLISION10/74905/074905_0000000133.raw'
p374
aS'LFN:/lhcb/data/2010/RAW/EXPRESS/LHCb/COLLISION10/74905/074905_0000000089.raw'
p375
aS'LFN:/lhcb/data/2010/RAW/EXPRESS/LHCb/COLLISION10/74905/074905_0000000161.raw'
p376
aS'LFN:/lhcb/data/2010/RAW/EXPRESS/LHCb/COLLISION10/74905/074905_0000000118.raw'
p377
asI74906
(lp378
S'LFN:/lhcb/data/2010/RAW/EXPRESS/LHCb/COLLISION10/74906/074906_0000000023.raw'
p379
aS'LFN:/lhcb/data/2010/RAW/EXPRESS/LHCb/COLLISION10/74906/074906_0000000039.raw'
p380
aS'LFN:/lhcb/data/2010/RAW/EXPRESS/LHCb/COLLISION10/74906/074906_0000000004.raw'
p381
aS'LFN:/lhcb/data/2010/RAW/EXPRESS/LHCb/COLLISION10/74906/074906_0000000068.raw'
p382
aS'LFN:/lhcb/data/2010/RAW/EXPRESS/LHCb/COLLISION10/74906/074906_0000000054.raw'
p383
aS'LFN:/lhcb/data/2010/RAW/EXPRESS/LHCb/COLLISION10/74906/074906_0000000002.raw'
p384
aS'LFN:/lhcb/data/2010/RAW/EXPRESS/LHCb/COLLISION10/74906/074906_0000000082.raw'
p385
asI74907
(lp386
S'LFN:/lhcb/data/2010/RAW/EXPRESS/LHCb/COLLISION10/74907/074907_0000000003.raw'
p387
aS'LFN:/lhcb/data/2010/RAW/EXPRESS/LHCb/COLLISION10/74907/074907_0000000004.raw'
p388
aS'LFN:/lhcb/data/2010/RAW/EXPRESS/LHCb/COLLISION10/74907/074907_0000000022.raw'
p389
asI74908
(lp390
S'LFN:/lhcb/data/2010/RAW/EXPRESS/LHCb/COLLISION10/74908/074908_0000000004.raw'
p391
aS'LFN:/lhcb/data/2010/RAW/EXPRESS/LHCb/COLLISION10/74908/074908_0000000001.raw'
p392
asI75719
(lp393
S'LFN:/lhcb/data/2010/RAW/EXPRESS/LHCb/COLLISION10/75719/075719_0000000001.raw'
p394
asI75443
(lp395
S'LFN:/lhcb/data/2010/RAW/EXPRESS/LHCb/COLLISION10/75443/075443_0000000001.raw'
p396
aS'LFN:/lhcb/data/2010/RAW/EXPRESS/LHCb/COLLISION10/75443/075443_0000000063.raw'
p397
asI75444
(lp398
S'LFN:/lhcb/data/2010/RAW/EXPRESS/LHCb/COLLISION10/75444/075444_0000000211.raw'
p399
aS'LFN:/lhcb/data/2010/RAW/EXPRESS/LHCb/COLLISION10/75444/075444_0000000279.raw'
p400
aS'LFN:/lhcb/data/2010/RAW/EXPRESS/LHCb/COLLISION10/75444/075444_0000000063.raw'
p401
aS'LFN:/lhcb/data/2010/RAW/EXPRESS/LHCb/COLLISION10/75444/075444_0000000707.raw'
p402
aS'LFN:/lhcb/data/2010/RAW/EXPRESS/LHCb/COLLISION10/75444/075444_0000000468.raw'
p403
aS'LFN:/lhcb/data/2010/RAW/EXPRESS/LHCb/COLLISION10/75444/075444_0000000591.raw'
p404
aS'LFN:/lhcb/data/2010/RAW/EXPRESS/LHCb/COLLISION10/75444/075444_0000000408.raw'
p405
aS'LFN:/lhcb/data/2010/RAW/EXPRESS/LHCb/COLLISION10/75444/075444_0000000344.raw'
p406
aS'LFN:/lhcb/data/2010/RAW/EXPRESS/LHCb/COLLISION10/75444/075444_0000000001.raw'
p407
aS'LFN:/lhcb/data/2010/RAW/EXPRESS/LHCb/COLLISION10/75444/075444_0000000141.raw'
p408
aS'LFN:/lhcb/data/2010/RAW/EXPRESS/LHCb/COLLISION10/75444/075444_0000000529.raw'
p409
aS'LFN:/lhcb/data/2010/RAW/EXPRESS/LHCb/COLLISION10/75444/075444_0000000649.raw'
p410
asI75445
(lp411
S'LFN:/lhcb/data/2010/RAW/EXPRESS/LHCb/COLLISION10/75445/075445_0000000134.raw'
p412
aS'LFN:/lhcb/data/2010/RAW/EXPRESS/LHCb/COLLISION10/75445/075445_0000000608.raw'
p413
aS'LFN:/lhcb/data/2010/RAW/EXPRESS/LHCb/COLLISION10/75445/075445_0000000001.raw'
p414
aS'LFN:/lhcb/data/2010/RAW/EXPRESS/LHCb/COLLISION10/75445/075445_0000000661.raw'
p415
aS'LFN:/lhcb/data/2010/RAW/EXPRESS/LHCb/COLLISION10/75445/075445_0000000443.raw'
p416
aS'LFN:/lhcb/data/2010/RAW/EXPRESS/LHCb/COLLISION10/75445/075445_0000000499.raw'
p417
aS'LFN:/lhcb/data/2010/RAW/EXPRESS/LHCb/COLLISION10/75445/075445_0000000326.raw'
p418
aS'LFN:/lhcb/data/2010/RAW/EXPRESS/LHCb/COLLISION10/75445/075445_0000000385.raw'
p419
aS'LFN:/lhcb/data/2010/RAW/EXPRESS/LHCb/COLLISION10/75445/075445_0000000059.raw'
p420
aS'LFN:/lhcb/data/2010/RAW/EXPRESS/LHCb/COLLISION10/75445/075445_0000000264.raw'
p421
aS'LFN:/lhcb/data/2010/RAW/EXPRESS/LHCb/COLLISION10/75445/075445_0000000554.raw'
p422
aS'LFN:/lhcb/data/2010/RAW/EXPRESS/LHCb/COLLISION10/75445/075445_0000000201.raw'
p423
asI75446
(lp424
S'LFN:/lhcb/data/2010/RAW/EXPRESS/LHCb/COLLISION10/75446/075446_0000000455.raw'
p425
aS'LFN:/lhcb/data/2010/RAW/EXPRESS/LHCb/COLLISION10/75446/075446_0000000352.raw'
p426
aS'LFN:/lhcb/data/2010/RAW/EXPRESS/LHCb/COLLISION10/75446/075446_0000000555.raw'
p427
aS'LFN:/lhcb/data/2010/RAW/EXPRESS/LHCb/COLLISION10/75446/075446_0000000051.raw'
p428
aS'LFN:/lhcb/data/2010/RAW/EXPRESS/LHCb/COLLISION10/75446/075446_0000000183.raw'
p429
aS'LFN:/lhcb/data/2010/RAW/EXPRESS/LHCb/COLLISION10/75446/075446_0000000002.raw'
p430
aS'LFN:/lhcb/data/2010/RAW/EXPRESS/LHCb/COLLISION10/75446/075446_0000000242.raw'
p431
aS'LFN:/lhcb/data/2010/RAW/EXPRESS/LHCb/COLLISION10/75446/075446_0000000121.raw'
p432
aS'LFN:/lhcb/data/2010/RAW/EXPRESS/LHCb/COLLISION10/75446/075446_0000000298.raw'
p433
aS'LFN:/lhcb/data/2010/RAW/EXPRESS/LHCb/COLLISION10/75446/075446_0000000402.raw'
p434
aS'LFN:/lhcb/data/2010/RAW/EXPRESS/LHCb/COLLISION10/75446/075446_0000000506.raw'
p435
aS'LFN:/lhcb/data/2010/RAW/EXPRESS/LHCb/COLLISION10/75446/075446_0000000606.raw'
p436
asI75447
(lp437
S'LFN:/lhcb/data/2010/RAW/EXPRESS/LHCb/COLLISION10/75447/075447_0000000001.raw'
p438
aS'LFN:/lhcb/data/2010/RAW/EXPRESS/LHCb/COLLISION10/75447/075447_0000000051.raw'
p439
aS'LFN:/lhcb/data/2010/RAW/EXPRESS/LHCb/COLLISION10/75447/075447_0000000116.raw'
p440
aS'LFN:/lhcb/data/2010/RAW/EXPRESS/LHCb/COLLISION10/75447/075447_0000000174.raw'
p441
asI75448
(lp442
S'LFN:/lhcb/data/2010/RAW/EXPRESS/LHCb/COLLISION10/75448/075448_0000000001.raw'
p443
asI75449
(lp444
S'LFN:/lhcb/data/2010/RAW/EXPRESS/LHCb/COLLISION10/75449/075449_0000000179.raw'
p445
aS'LFN:/lhcb/data/2010/RAW/EXPRESS/LHCb/COLLISION10/75449/075449_0000000451.raw'
p446
aS'LFN:/lhcb/data/2010/RAW/EXPRESS/LHCb/COLLISION10/75449/075449_0000000603.raw'
p447
aS'LFN:/lhcb/data/2010/RAW/EXPRESS/LHCb/COLLISION10/75449/075449_0000000055.raw'
p448
aS'LFN:/lhcb/data/2010/RAW/EXPRESS/LHCb/COLLISION10/75449/075449_0000000117.raw'
p449
aS'LFN:/lhcb/data/2010/RAW/EXPRESS/LHCb/COLLISION10/75449/075449_0000000397.raw'
p450
aS'LFN:/lhcb/data/2010/RAW/EXPRESS/LHCb/COLLISION10/75449/075449_0000000236.raw'
p451
aS'LFN:/lhcb/data/2010/RAW/EXPRESS/LHCb/COLLISION10/75449/075449_0000000348.raw'
p452
aS'LFN:/lhcb/data/2010/RAW/EXPRESS/LHCb/COLLISION10/75449/075449_0000000500.raw'
p453
aS'LFN:/lhcb/data/2010/RAW/EXPRESS/LHCb/COLLISION10/75449/075449_0000000001.raw'
p454
aS'LFN:/lhcb/data/2010/RAW/EXPRESS/LHCb/COLLISION10/75449/075449_0000000290.raw'
p455
aS'LFN:/lhcb/data/2010/RAW/EXPRESS/LHCb/COLLISION10/75449/075449_0000000550.raw'
p456
asI75450
(lp457
S'LFN:/lhcb/data/2010/RAW/EXPRESS/LHCb/COLLISION10/75450/075450_0000000582.raw'
p458
aS'LFN:/lhcb/data/2010/RAW/EXPRESS/LHCb/COLLISION10/75450/075450_0000000117.raw'
p459
aS'LFN:/lhcb/data/2010/RAW/EXPRESS/LHCb/COLLISION10/75450/075450_0000000283.raw'
p460
aS'LFN:/lhcb/data/2010/RAW/EXPRESS/LHCb/COLLISION10/75450/075450_0000000435.raw'
p461
aS'LFN:/lhcb/data/2010/RAW/EXPRESS/LHCb/COLLISION10/75450/075450_0000000051.raw'
p462
aS'LFN:/lhcb/data/2010/RAW/EXPRESS/LHCb/COLLISION10/75450/075450_0000000175.raw'
p463
aS'LFN:/lhcb/data/2010/RAW/EXPRESS/LHCb/COLLISION10/75450/075450_0000000002.raw'
p464
aS'LFN:/lhcb/data/2010/RAW/EXPRESS/LHCb/COLLISION10/75450/075450_0000000386.raw'
p465
aS'LFN:/lhcb/data/2010/RAW/EXPRESS/LHCb/COLLISION10/75450/075450_0000000228.raw'
p466
aS'LFN:/lhcb/data/2010/RAW/EXPRESS/LHCb/COLLISION10/75450/075450_0000000484.raw'
p467
aS'LFN:/lhcb/data/2010/RAW/EXPRESS/LHCb/COLLISION10/75450/075450_0000000532.raw'
p468
aS'LFN:/lhcb/data/2010/RAW/EXPRESS/LHCb/COLLISION10/75450/075450_0000000336.raw'
p469
asI75451
(lp470
S'LFN:/lhcb/data/2010/RAW/EXPRESS/LHCb/COLLISION10/75451/075451_0000000048.raw'
p471
aS'LFN:/lhcb/data/2010/RAW/EXPRESS/LHCb/COLLISION10/75451/075451_0000000109.raw'
p472
aS'LFN:/lhcb/data/2010/RAW/EXPRESS/LHCb/COLLISION10/75451/075451_0000000001.raw'
p473
aS'LFN:/lhcb/data/2010/RAW/EXPRESS/LHCb/COLLISION10/75451/075451_0000000167.raw'
p474
aS'LFN:/lhcb/data/2010/RAW/EXPRESS/LHCb/COLLISION10/75451/075451_0000000218.raw'
p475
aS'LFN:/lhcb/data/2010/RAW/EXPRESS/LHCb/COLLISION10/75451/075451_0000000270.raw'
p476
asI75452
(lp477
S'LFN:/lhcb/data/2010/RAW/EXPRESS/LHCb/COLLISION10/75452/075452_0000000051.raw'
p478
aS'LFN:/lhcb/data/2010/RAW/EXPRESS/LHCb/COLLISION10/75452/075452_0000000167.raw'
p479
aS'LFN:/lhcb/data/2010/RAW/EXPRESS/LHCb/COLLISION10/75452/075452_0000000319.raw'
p480
aS'LFN:/lhcb/data/2010/RAW/EXPRESS/LHCb/COLLISION10/75452/075452_0000000366.raw'
p481
aS'LFN:/lhcb/data/2010/RAW/EXPRESS/LHCb/COLLISION10/75452/075452_0000000415.raw'
p482
aS'LFN:/lhcb/data/2010/RAW/EXPRESS/LHCb/COLLISION10/75452/075452_0000000506.raw'
p483
aS'LFN:/lhcb/data/2010/RAW/EXPRESS/LHCb/COLLISION10/75452/075452_0000000270.raw'
p484
aS'LFN:/lhcb/data/2010/RAW/EXPRESS/LHCb/COLLISION10/75452/075452_0000000109.raw'
p485
aS'LFN:/lhcb/data/2010/RAW/EXPRESS/LHCb/COLLISION10/75452/075452_0000000460.raw'
p486
aS'LFN:/lhcb/data/2010/RAW/EXPRESS/LHCb/COLLISION10/75452/075452_0000000001.raw'
p487
aS'LFN:/lhcb/data/2010/RAW/EXPRESS/LHCb/COLLISION10/75452/075452_0000000217.raw'
p488
asI75453
(lp489
S'LFN:/lhcb/data/2010/RAW/EXPRESS/LHCb/COLLISION10/75453/075453_0000000001.raw'
p490
aS'LFN:/lhcb/data/2010/RAW/EXPRESS/LHCb/COLLISION10/75453/075453_0000000049.raw'
p491
aS'LFN:/lhcb/data/2010/RAW/EXPRESS/LHCb/COLLISION10/75453/075453_0000000109.raw'
p492
asI75454
(lp493
S'LFN:/lhcb/data/2010/RAW/EXPRESS/LHCb/COLLISION10/75454/075454_0000000001.raw'
p494
asI75721
(lp495
S'LFN:/lhcb/data/2010/RAW/EXPRESS/LHCb/COLLISION10/75721/075721_0000000228.raw'
p496
aS'LFN:/lhcb/data/2010/RAW/EXPRESS/LHCb/COLLISION10/75721/075721_0000000173.raw'
p497
aS'LFN:/lhcb/data/2010/RAW/EXPRESS/LHCb/COLLISION10/75721/075721_0000000474.raw'
p498
aS'LFN:/lhcb/data/2010/RAW/EXPRESS/LHCb/COLLISION10/75721/075721_0000000002.raw'
p499
aS'LFN:/lhcb/data/2010/RAW/EXPRESS/LHCb/COLLISION10/75721/075721_0000000379.raw'
p500
aS'LFN:/lhcb/data/2010/RAW/EXPRESS/LHCb/COLLISION10/75721/075721_0000000428.raw'
p501
aS'LFN:/lhcb/data/2010/RAW/EXPRESS/LHCb/COLLISION10/75721/075721_0000000280.raw'
p502
aS'LFN:/lhcb/data/2010/RAW/EXPRESS/LHCb/COLLISION10/75721/075721_0000000330.raw'
p503
aS'LFN:/lhcb/data/2010/RAW/EXPRESS/LHCb/COLLISION10/75721/075721_0000000117.raw'
p504
aS'LFN:/lhcb/data/2010/RAW/EXPRESS/LHCb/COLLISION10/75721/075721_0000000051.raw'
p505
asI75484
(lp506
S'LFN:/lhcb/data/2010/RAW/EXPRESS/LHCb/COLLISION10/75484/075484_0000000002.raw'
p507
asI75485
(lp508
S'LFN:/lhcb/data/2010/RAW/EXPRESS/LHCb/COLLISION10/75485/075485_0000000001.raw'
p509
aS'LFN:/lhcb/data/2010/RAW/EXPRESS/LHCb/COLLISION10/75485/075485_0000000133.raw'
p510
aS'LFN:/lhcb/data/2010/RAW/EXPRESS/LHCb/COLLISION10/75485/075485_0000000055.raw'
p511
aS'LFN:/lhcb/data/2010/RAW/EXPRESS/LHCb/COLLISION10/75485/075485_0000000203.raw'
p512
asI75488
(lp513
S'LFN:/lhcb/data/2010/RAW/EXPRESS/LHCb/COLLISION10/75488/075488_0000000002.raw'
p514
aS'LFN:/lhcb/data/2010/RAW/EXPRESS/LHCb/COLLISION10/75488/075488_0000000272.raw'
p515
aS'LFN:/lhcb/data/2010/RAW/EXPRESS/LHCb/COLLISION10/75488/075488_0000000206.raw'
p516
aS'LFN:/lhcb/data/2010/RAW/EXPRESS/LHCb/COLLISION10/75488/075488_0000000335.raw'
p517
aS'LFN:/lhcb/data/2010/RAW/EXPRESS/LHCb/COLLISION10/75488/075488_0000000137.raw'
p518
aS'LFN:/lhcb/data/2010/RAW/EXPRESS/LHCb/COLLISION10/75488/075488_0000000059.raw'
p519
asI75498
(lp520
S'LFN:/lhcb/data/2010/RAW/EXPRESS/LHCb/COLLISION10/75498/075498_0000000001.raw'
p521
aS'LFN:/lhcb/data/2010/RAW/EXPRESS/LHCb/COLLISION10/75498/075498_0000000123.raw'
p522
aS'LFN:/lhcb/data/2010/RAW/EXPRESS/LHCb/COLLISION10/75498/075498_0000000186.raw'
p523
aS'LFN:/lhcb/data/2010/RAW/EXPRESS/LHCb/COLLISION10/75498/075498_0000000055.raw'
p524
asI75499
(lp525
S'LFN:/lhcb/data/2010/RAW/EXPRESS/LHCb/COLLISION10/75499/075499_0000000001.raw'
p526
asI75500
(lp527
S'LFN:/lhcb/data/2010/RAW/EXPRESS/LHCb/COLLISION10/75500/075500_0000000002.raw'
p528
asI75501
(lp529
S'LFN:/lhcb/data/2010/RAW/EXPRESS/LHCb/COLLISION10/75501/075501_0000000003.raw'
p530
asI75645
(lp531
S'LFN:/lhcb/data/2010/RAW/EXPRESS/LHCb/COLLISION10/75645/075645_0000000388.raw'
p532
aS'LFN:/lhcb/data/2010/RAW/EXPRESS/LHCb/COLLISION10/75645/075645_0000000058.raw'
p533
aS'LFN:/lhcb/data/2010/RAW/EXPRESS/LHCb/COLLISION10/75645/075645_0000000002.raw'
p534
aS'LFN:/lhcb/data/2010/RAW/EXPRESS/LHCb/COLLISION10/75645/075645_0000000133.raw'
p535
aS'LFN:/lhcb/data/2010/RAW/EXPRESS/LHCb/COLLISION10/75645/075645_0000000265.raw'
p536
aS'LFN:/lhcb/data/2010/RAW/EXPRESS/LHCb/COLLISION10/75645/075645_0000000327.raw'
p537
aS'LFN:/lhcb/data/2010/RAW/EXPRESS/LHCb/COLLISION10/75645/075645_0000000199.raw'
p538
asI75513
(lp539
S'LFN:/lhcb/data/2010/RAW/EXPRESS/LHCb/COLLISION10/75513/075513_0000000006.raw'
p540
aS'LFN:/lhcb/data/2010/RAW/EXPRESS/LHCb/COLLISION10/75513/075513_0000000474.raw'
p541
aS'LFN:/lhcb/data/2010/RAW/EXPRESS/LHCb/COLLISION10/75513/075513_0000000117.raw'
p542
aS'LFN:/lhcb/data/2010/RAW/EXPRESS/LHCb/COLLISION10/75513/075513_0000000175.raw'
p543
aS'LFN:/lhcb/data/2010/RAW/EXPRESS/LHCb/COLLISION10/75513/075513_0000000280.raw'
p544
aS'LFN:/lhcb/data/2010/RAW/EXPRESS/LHCb/COLLISION10/75513/075513_0000000379.raw'
p545
aS'LFN:/lhcb/data/2010/RAW/EXPRESS/LHCb/COLLISION10/75513/075513_0000000429.raw'
p546
aS'LFN:/lhcb/data/2010/RAW/EXPRESS/LHCb/COLLISION10/75513/075513_0000000051.raw'
p547
aS'LFN:/lhcb/data/2010/RAW/EXPRESS/LHCb/COLLISION10/75513/075513_0000000228.raw'
p548
aS'LFN:/lhcb/data/2010/RAW/EXPRESS/LHCb/COLLISION10/75513/075513_0000000524.raw'
p549
aS'LFN:/lhcb/data/2010/RAW/EXPRESS/LHCb/COLLISION10/75513/075513_0000000330.raw'
p550
asI75514
(lp551
S'LFN:/lhcb/data/2010/RAW/EXPRESS/LHCb/COLLISION10/75514/075514_0000000049.raw'
p552
aS'LFN:/lhcb/data/2010/RAW/EXPRESS/LHCb/COLLISION10/75514/075514_0000000002.raw'
p553
aS'LFN:/lhcb/data/2010/RAW/EXPRESS/LHCb/COLLISION10/75514/075514_0000000108.raw'
p554
asI75515
(lp555
S'LFN:/lhcb/data/2010/RAW/EXPRESS/LHCb/COLLISION10/75515/075515_0000000051.raw'
p556
aS'LFN:/lhcb/data/2010/RAW/EXPRESS/LHCb/COLLISION10/75515/075515_0000000004.raw'
p557
asI75516
(lp558
S'LFN:/lhcb/data/2010/RAW/EXPRESS/LHCb/COLLISION10/75516/075516_0000000106.raw'
p559
aS'LFN:/lhcb/data/2010/RAW/EXPRESS/LHCb/COLLISION10/75516/075516_0000000258.raw'
p560
aS'LFN:/lhcb/data/2010/RAW/EXPRESS/LHCb/COLLISION10/75516/075516_0000000001.raw'
p561
aS'LFN:/lhcb/data/2010/RAW/EXPRESS/LHCb/COLLISION10/75516/075516_0000000209.raw'
p562
aS'LFN:/lhcb/data/2010/RAW/EXPRESS/LHCb/COLLISION10/75516/075516_0000000392.raw'
p563
aS'LFN:/lhcb/data/2010/RAW/EXPRESS/LHCb/COLLISION10/75516/075516_0000000051.raw'
p564
aS'LFN:/lhcb/data/2010/RAW/EXPRESS/LHCb/COLLISION10/75516/075516_0000000347.raw'
p565
aS'LFN:/lhcb/data/2010/RAW/EXPRESS/LHCb/COLLISION10/75516/075516_0000000301.raw'
p566
aS'LFN:/lhcb/data/2010/RAW/EXPRESS/LHCb/COLLISION10/75516/075516_0000000159.raw'
p567
asI76850
(lp568
S'LFN:/lhcb/data/2010/RAW/EXPRESS/LHCb/COLLISION10/76850/076850_0000000057.raw'
p569
aS'LFN:/lhcb/data/2010/RAW/EXPRESS/LHCb/COLLISION10/76850/076850_0000000015.raw'
p570
aS'LFN:/lhcb/data/2010/RAW/EXPRESS/LHCb/COLLISION10/76850/076850_0000000006.raw'
p571
asI76851
(lp572
S'LFN:/lhcb/data/2010/RAW/EXPRESS/LHCb/COLLISION10/76851/076851_0000000017.raw'
p573
aS'LFN:/lhcb/data/2010/RAW/EXPRESS/LHCb/COLLISION10/76851/076851_0000000057.raw'
p574
aS'LFN:/lhcb/data/2010/RAW/EXPRESS/LHCb/COLLISION10/76851/076851_0000000001.raw'
p575
asI75639
(lp576
S'LFN:/lhcb/data/2010/RAW/EXPRESS/LHCb/COLLISION10/75639/075639_0000000031.raw'
p577
aS'LFN:/lhcb/data/2010/RAW/EXPRESS/LHCb/COLLISION10/75639/075639_0000000002.raw'
p578
asI75640
(lp579
S'LFN:/lhcb/data/2010/RAW/EXPRESS/LHCb/COLLISION10/75640/075640_0000000121.raw'
p580
aS'LFN:/lhcb/data/2010/RAW/EXPRESS/LHCb/COLLISION10/75640/075640_0000000179.raw'
p581
aS'LFN:/lhcb/data/2010/RAW/EXPRESS/LHCb/COLLISION10/75640/075640_0000000303.raw'
p582
aS'LFN:/lhcb/data/2010/RAW/EXPRESS/LHCb/COLLISION10/75640/075640_0000000368.raw'
p583
aS'LFN:/lhcb/data/2010/RAW/EXPRESS/LHCb/COLLISION10/75640/075640_0000000001.raw'
p584
aS'LFN:/lhcb/data/2010/RAW/EXPRESS/LHCb/COLLISION10/75640/075640_0000000057.raw'
p585
aS'LFN:/lhcb/data/2010/RAW/EXPRESS/LHCb/COLLISION10/75640/075640_0000000240.raw'
p586
asI75642
(lp587
S'LFN:/lhcb/data/2010/RAW/EXPRESS/LHCb/COLLISION10/75642/075642_0000000140.raw'
p588
aS'LFN:/lhcb/data/2010/RAW/EXPRESS/LHCb/COLLISION10/75642/075642_0000000273.raw'
p589
aS'LFN:/lhcb/data/2010/RAW/EXPRESS/LHCb/COLLISION10/75642/075642_0000000005.raw'
p590
aS'LFN:/lhcb/data/2010/RAW/EXPRESS/LHCb/COLLISION10/75642/075642_0000000208.raw'
p591
aS'LFN:/lhcb/data/2010/RAW/EXPRESS/LHCb/COLLISION10/75642/075642_0000000059.raw'
p592
asI75644
(lp593
S'LFN:/lhcb/data/2010/RAW/EXPRESS/LHCb/COLLISION10/75644/075644_0000000001.raw'
p594
asI74621
(lp595
S'LFN:/lhcb/data/2010/RAW/EXPRESS/LHCb/COLLISION10/74621/074621_0000000001.raw'
p596
aS'LFN:/lhcb/data/2010/RAW/EXPRESS/LHCb/COLLISION10/74621/074621_0000000007.raw'
p597
aS'LFN:/lhcb/data/2010/RAW/EXPRESS/LHCb/COLLISION10/74621/074621_0000000029.raw'
p598
aS'LFN:/lhcb/data/2010/RAW/EXPRESS/LHCb/COLLISION10/74621/074621_0000000068.raw'
p599
aS'LFN:/lhcb/data/2010/RAW/EXPRESS/LHCb/COLLISION10/74621/074621_0000000048.raw'
p600
asI75646
(lp601
S'LFN:/lhcb/data/2010/RAW/EXPRESS/LHCb/COLLISION10/75646/075646_0000000001.raw'
p602
asI74624
(lp603
S'LFN:/lhcb/data/2010/RAW/EXPRESS/LHCb/COLLISION10/74624/074624_0000000002.raw'
p604
asI74631
(lp605
S'LFN:/lhcb/data/2010/RAW/EXPRESS/LHCb/COLLISION10/74631/074631_0000000007.raw'
p606
aS'LFN:/lhcb/data/2010/RAW/EXPRESS/LHCb/COLLISION10/74631/074631_0000000031.raw'
p607
aS'LFN:/lhcb/data/2010/RAW/EXPRESS/LHCb/COLLISION10/74631/074631_0000000167.raw'
p608
aS'LFN:/lhcb/data/2010/RAW/EXPRESS/LHCb/COLLISION10/74631/074631_0000000001.raw'
p609
aS'LFN:/lhcb/data/2010/RAW/EXPRESS/LHCb/COLLISION10/74631/074631_0000000050.raw'
p610
aS'LFN:/lhcb/data/2010/RAW/EXPRESS/LHCb/COLLISION10/74631/074631_0000000068.raw'
p611
aS'LFN:/lhcb/data/2010/RAW/EXPRESS/LHCb/COLLISION10/74631/074631_0000000085.raw'
p612
aS'LFN:/lhcb/data/2010/RAW/EXPRESS/LHCb/COLLISION10/74631/074631_0000000213.raw'
p613
aS'LFN:/lhcb/data/2010/RAW/EXPRESS/LHCb/COLLISION10/74631/074631_0000000102.raw'
p614
aS'LFN:/lhcb/data/2010/RAW/EXPRESS/LHCb/COLLISION10/74631/074631_0000000118.raw'
p615
aS'LFN:/lhcb/data/2010/RAW/EXPRESS/LHCb/COLLISION10/74631/074631_0000000134.raw'
p616
aS'LFN:/lhcb/data/2010/RAW/EXPRESS/LHCb/COLLISION10/74631/074631_0000000150.raw'
p617
aS'LFN:/lhcb/data/2010/RAW/EXPRESS/LHCb/COLLISION10/74631/074631_0000000182.raw'
p618
aS'LFN:/lhcb/data/2010/RAW/EXPRESS/LHCb/COLLISION10/74631/074631_0000000198.raw'
p619
asI74632
(lp620
S'LFN:/lhcb/data/2010/RAW/EXPRESS/LHCb/COLLISION10/74632/074632_0000000003.raw'
p621
aS'LFN:/lhcb/data/2010/RAW/EXPRESS/LHCb/COLLISION10/74632/074632_0000000007.raw'
p622
aS'LFN:/lhcb/data/2010/RAW/EXPRESS/LHCb/COLLISION10/74632/074632_0000000017.raw'
p623
asI74637
(lp624
S'LFN:/lhcb/data/2010/RAW/EXPRESS/LHCb/COLLISION10/74637/074637_0000000072.raw'
p625
aS'LFN:/lhcb/data/2010/RAW/EXPRESS/LHCb/COLLISION10/74637/074637_0000000002.raw'
p626
aS'LFN:/lhcb/data/2010/RAW/EXPRESS/LHCb/COLLISION10/74637/074637_0000000007.raw'
p627
aS'LFN:/lhcb/data/2010/RAW/EXPRESS/LHCb/COLLISION10/74637/074637_0000000016.raw'
p628
aS'LFN:/lhcb/data/2010/RAW/EXPRESS/LHCb/COLLISION10/74637/074637_0000000026.raw'
p629
aS'LFN:/lhcb/data/2010/RAW/EXPRESS/LHCb/COLLISION10/74637/074637_0000000034.raw'
p630
aS'LFN:/lhcb/data/2010/RAW/EXPRESS/LHCb/COLLISION10/74637/074637_0000000041.raw'
p631
aS'LFN:/lhcb/data/2010/RAW/EXPRESS/LHCb/COLLISION10/74637/074637_0000000050.raw'
p632
aS'LFN:/lhcb/data/2010/RAW/EXPRESS/LHCb/COLLISION10/74637/074637_0000000057.raw'
p633
aS'LFN:/lhcb/data/2010/RAW/EXPRESS/LHCb/COLLISION10/74637/074637_0000000065.raw'
p634
aS'LFN:/lhcb/data/2010/RAW/EXPRESS/LHCb/COLLISION10/74637/074637_0000000079.raw'
p635
asI74638
(lp636
S'LFN:/lhcb/data/2010/RAW/EXPRESS/LHCb/COLLISION10/74638/074638_0000000001.raw'
p637
asI75417
(lp638
S'LFN:/lhcb/data/2010/RAW/EXPRESS/LHCb/COLLISION10/75417/075417_0000000404.raw'
p639
aS'LFN:/lhcb/data/2010/RAW/EXPRESS/LHCb/COLLISION10/75417/075417_0000000444.raw'
p640
aS'LFN:/lhcb/data/2010/RAW/EXPRESS/LHCb/COLLISION10/75417/075417_0000000047.raw'
p641
aS'LFN:/lhcb/data/2010/RAW/EXPRESS/LHCb/COLLISION10/75417/075417_0000000146.raw'
p642
aS'LFN:/lhcb/data/2010/RAW/EXPRESS/LHCb/COLLISION10/75417/075417_0000000099.raw'
p643
aS'LFN:/lhcb/data/2010/RAW/EXPRESS/LHCb/COLLISION10/75417/075417_0000000238.raw'
p644
aS'LFN:/lhcb/data/2010/RAW/EXPRESS/LHCb/COLLISION10/75417/075417_0000000279.raw'
p645
aS'LFN:/lhcb/data/2010/RAW/EXPRESS/LHCb/COLLISION10/75417/075417_0000000193.raw'
p646
aS'LFN:/lhcb/data/2010/RAW/EXPRESS/LHCb/COLLISION10/75417/075417_0000000364.raw'
p647
aS'LFN:/lhcb/data/2010/RAW/EXPRESS/LHCb/COLLISION10/75417/075417_0000000002.raw'
p648
aS'LFN:/lhcb/data/2010/RAW/EXPRESS/LHCb/COLLISION10/75417/075417_0000000321.raw'
p649
asI75160
(lp650
S'LFN:/lhcb/data/2010/RAW/EXPRESS/LHCb/COLLISION10/75160/075160_0000000027.raw'
p651
aS'LFN:/lhcb/data/2010/RAW/EXPRESS/LHCb/COLLISION10/75160/075160_0000000005.raw'
p652
asI75161
(lp653
S'LFN:/lhcb/data/2010/RAW/EXPRESS/LHCb/COLLISION10/75161/075161_0000000212.raw'
p654
aS'LFN:/lhcb/data/2010/RAW/EXPRESS/LHCb/COLLISION10/75161/075161_0000000276.raw'
p655
aS'LFN:/lhcb/data/2010/RAW/EXPRESS/LHCb/COLLISION10/75161/075161_0000000001.raw'
p656
aS'LFN:/lhcb/data/2010/RAW/EXPRESS/LHCb/COLLISION10/75161/075161_0000000305.raw'
p657
aS'LFN:/lhcb/data/2010/RAW/EXPRESS/LHCb/COLLISION10/75161/075161_0000000027.raw'
p658
aS'LFN:/lhcb/data/2010/RAW/EXPRESS/LHCb/COLLISION10/75161/075161_0000000183.raw'
p659
aS'LFN:/lhcb/data/2010/RAW/EXPRESS/LHCb/COLLISION10/75161/075161_0000000061.raw'
p660
aS'LFN:/lhcb/data/2010/RAW/EXPRESS/LHCb/COLLISION10/75161/075161_0000000117.raw'
p661
aS'LFN:/lhcb/data/2010/RAW/EXPRESS/LHCb/COLLISION10/75161/075161_0000000149.raw'
p662
aS'LFN:/lhcb/data/2010/RAW/EXPRESS/LHCb/COLLISION10/75161/075161_0000000245.raw'
p663
aS'LFN:/lhcb/data/2010/RAW/EXPRESS/LHCb/COLLISION10/75161/075161_0000000090.raw'
p664
asI75418
(lp665
S'LFN:/lhcb/data/2010/RAW/EXPRESS/LHCb/COLLISION10/75418/075418_0000000002.raw'
p666
asI75166
(lp667
S'LFN:/lhcb/data/2010/RAW/EXPRESS/LHCb/COLLISION10/75166/075166_0000000001.raw'
p668
asI75174
(lp669
S'LFN:/lhcb/data/2010/RAW/EXPRESS/LHCb/COLLISION10/75174/075174_0000000031.raw'
p670
aS'LFN:/lhcb/data/2010/RAW/EXPRESS/LHCb/COLLISION10/75174/075174_0000000183.raw'
p671
aS'LFN:/lhcb/data/2010/RAW/EXPRESS/LHCb/COLLISION10/75174/075174_0000000005.raw'
p672
aS'LFN:/lhcb/data/2010/RAW/EXPRESS/LHCb/COLLISION10/75174/075174_0000000098.raw'
p673
aS'LFN:/lhcb/data/2010/RAW/EXPRESS/LHCb/COLLISION10/75174/075174_0000000065.raw'
p674
aS'LFN:/lhcb/data/2010/RAW/EXPRESS/LHCb/COLLISION10/75174/075174_0000000153.raw'
p675
aS'LFN:/lhcb/data/2010/RAW/EXPRESS/LHCb/COLLISION10/75174/075174_0000000126.raw'
p676
asI75687
(lp677
S'LFN:/lhcb/data/2010/RAW/EXPRESS/LHCb/COLLISION10/75687/075687_0000000001.raw'
p678
aS'LFN:/lhcb/data/2010/RAW/EXPRESS/LHCb/COLLISION10/75687/075687_0000000226.raw'
p679
aS'LFN:/lhcb/data/2010/RAW/EXPRESS/LHCb/COLLISION10/75687/075687_0000000360.raw'
p680
aS'LFN:/lhcb/data/2010/RAW/EXPRESS/LHCb/COLLISION10/75687/075687_0000000296.raw'
p681
aS'LFN:/lhcb/data/2010/RAW/EXPRESS/LHCb/COLLISION10/75687/075687_0000000152.raw'
p682
aS'LFN:/lhcb/data/2010/RAW/EXPRESS/LHCb/COLLISION10/75687/075687_0000000424.raw'
p683
aS'LFN:/lhcb/data/2010/RAW/EXPRESS/LHCb/COLLISION10/75687/075687_0000000067.raw'
p684
aS'LFN:/lhcb/data/2010/RAW/EXPRESS/LHCb/COLLISION10/75687/075687_0000000486.raw'
p685
aS'LFN:/lhcb/data/2010/RAW/EXPRESS/LHCb/COLLISION10/75687/075687_0000000545.raw'
p686
asI75176
(lp687
S'LFN:/lhcb/data/2010/RAW/EXPRESS/LHCb/COLLISION10/75176/075176_0000000176.raw'
p688
aS'LFN:/lhcb/data/2010/RAW/EXPRESS/LHCb/COLLISION10/75176/075176_0000000094.raw'
p689
aS'LFN:/lhcb/data/2010/RAW/EXPRESS/LHCb/COLLISION10/75176/075176_0000000149.raw'
p690
aS'LFN:/lhcb/data/2010/RAW/EXPRESS/LHCb/COLLISION10/75176/075176_0000000204.raw'
p691
aS'LFN:/lhcb/data/2010/RAW/EXPRESS/LHCb/COLLISION10/75176/075176_0000000001.raw'
p692
aS'LFN:/lhcb/data/2010/RAW/EXPRESS/LHCb/COLLISION10/75176/075176_0000000065.raw'
p693
aS'LFN:/lhcb/data/2010/RAW/EXPRESS/LHCb/COLLISION10/75176/075176_0000000121.raw'
p694
aS'LFN:/lhcb/data/2010/RAW/EXPRESS/LHCb/COLLISION10/75176/075176_0000000031.raw'
p695
aS'LFN:/lhcb/data/2010/RAW/EXPRESS/LHCb/COLLISION10/75176/075176_0000000231.raw'
p696
asI74823
(lp697
S'LFN:/lhcb/data/2010/RAW/EXPRESS/LHCb/COLLISION10/74823/074823_0000000001.raw'
p698
aS'LFN:/lhcb/data/2010/RAW/EXPRESS/LHCb/COLLISION10/74823/074823_0000000004.raw'
p699
asI75692
(lp700
S'LFN:/lhcb/data/2010/RAW/EXPRESS/LHCb/COLLISION10/75692/075692_0000000055.raw'
p701
aS'LFN:/lhcb/data/2010/RAW/EXPRESS/LHCb/COLLISION10/75692/075692_0000000002.raw'
p702
asI75694
(lp703
S'LFN:/lhcb/data/2010/RAW/EXPRESS/LHCb/COLLISION10/75694/075694_0000000055.raw'
p704
aS'LFN:/lhcb/data/2010/RAW/EXPRESS/LHCb/COLLISION10/75694/075694_0000000001.raw'
p705
asI75337
(lp706
S'LFN:/lhcb/data/2010/RAW/EXPRESS/LHCb/COLLISION10/75337/075337_0000000078.raw'
p707
aS'LFN:/lhcb/data/2010/RAW/EXPRESS/LHCb/COLLISION10/75337/075337_0000000053.raw'
p708
aS'LFN:/lhcb/data/2010/RAW/EXPRESS/LHCb/COLLISION10/75337/075337_0000000101.raw'
p709
aS'LFN:/lhcb/data/2010/RAW/EXPRESS/LHCb/COLLISION10/75337/075337_0000000023.raw'
p710
aS'LFN:/lhcb/data/2010/RAW/EXPRESS/LHCb/COLLISION10/75337/075337_0000000001.raw'
p711
asI75338
(lp712
S'LFN:/lhcb/data/2010/RAW/EXPRESS/LHCb/COLLISION10/75338/075338_0000000097.raw'
p713
aS'LFN:/lhcb/data/2010/RAW/EXPRESS/LHCb/COLLISION10/75338/075338_0000000001.raw'
p714
aS'LFN:/lhcb/data/2010/RAW/EXPRESS/LHCb/COLLISION10/75338/075338_0000000049.raw'
p715
aS'LFN:/lhcb/data/2010/RAW/EXPRESS/LHCb/COLLISION10/75338/075338_0000000023.raw'
p716
aS'LFN:/lhcb/data/2010/RAW/EXPRESS/LHCb/COLLISION10/75338/075338_0000000075.raw'
p717
asI75710
(lp718
S'LFN:/lhcb/data/2010/RAW/EXPRESS/LHCb/COLLISION10/75710/075710_0000000075.raw'
p719
aS'LFN:/lhcb/data/2010/RAW/EXPRESS/LHCb/COLLISION10/75710/075710_0000000001.raw'
p720
aS'LFN:/lhcb/data/2010/RAW/EXPRESS/LHCb/COLLISION10/75710/075710_0000000178.raw'
p721
asI75711
(lp722
S'LFN:/lhcb/data/2010/RAW/EXPRESS/LHCb/COLLISION10/75711/075711_0000000002.raw'
p723
asI75712
(lp724
S'LFN:/lhcb/data/2010/RAW/EXPRESS/LHCb/COLLISION10/75712/075712_0000000059.raw'
p725
aS'LFN:/lhcb/data/2010/RAW/EXPRESS/LHCb/COLLISION10/75712/075712_0000000001.raw'
p726
asI75713
(lp727
S'LFN:/lhcb/data/2010/RAW/EXPRESS/LHCb/COLLISION10/75713/075713_0000000001.raw'
p728
aS'LFN:/lhcb/data/2010/RAW/EXPRESS/LHCb/COLLISION10/75713/075713_0000000201.raw'
p729
aS'LFN:/lhcb/data/2010/RAW/EXPRESS/LHCb/COLLISION10/75713/075713_0000000452.raw'
p730
aS'LFN:/lhcb/data/2010/RAW/EXPRESS/LHCb/COLLISION10/75713/075713_0000000584.raw'
p731
aS'LFN:/lhcb/data/2010/RAW/EXPRESS/LHCb/COLLISION10/75713/075713_0000000714.raw'
p732
aS'LFN:/lhcb/data/2010/RAW/EXPRESS/LHCb/COLLISION10/75713/075713_0000000267.raw'
p733
aS'LFN:/lhcb/data/2010/RAW/EXPRESS/LHCb/COLLISION10/75713/075713_0000000517.raw'
p734
aS'LFN:/lhcb/data/2010/RAW/EXPRESS/LHCb/COLLISION10/75713/075713_0000000650.raw'
p735
aS'LFN:/lhcb/data/2010/RAW/EXPRESS/LHCb/COLLISION10/75713/075713_0000000386.raw'
p736
aS'LFN:/lhcb/data/2010/RAW/EXPRESS/LHCb/COLLISION10/75713/075713_0000000059.raw'
p737
aS'LFN:/lhcb/data/2010/RAW/EXPRESS/LHCb/COLLISION10/75713/075713_0000000133.raw'
p738
aS'LFN:/lhcb/data/2010/RAW/EXPRESS/LHCb/COLLISION10/75713/075713_0000000328.raw'
p739
asI75714
(lp740
S'LFN:/lhcb/data/2010/RAW/EXPRESS/LHCb/COLLISION10/75714/075714_0000000218.raw'
p741
aS'LFN:/lhcb/data/2010/RAW/EXPRESS/LHCb/COLLISION10/75714/075714_0000000144.raw'
p742
aS'LFN:/lhcb/data/2010/RAW/EXPRESS/LHCb/COLLISION10/75714/075714_0000000063.raw'
p743
aS'LFN:/lhcb/data/2010/RAW/EXPRESS/LHCb/COLLISION10/75714/075714_0000000002.raw'
p744
asI74827
(lp745
S'LFN:/lhcb/data/2010/RAW/EXPRESS/LHCb/COLLISION10/74827/074827_0000000004.raw'
p746
aS'LFN:/lhcb/data/2010/RAW/EXPRESS/LHCb/COLLISION10/74827/074827_0000000001.raw'
p747
asI75716
(lp748
S'LFN:/lhcb/data/2010/RAW/EXPRESS/LHCb/COLLISION10/75716/075716_0000000002.raw'
p749
aS'LFN:/lhcb/data/2010/RAW/EXPRESS/LHCb/COLLISION10/75716/075716_0000000055.raw'
p750
asI75717
(lp751
S'LFN:/lhcb/data/2010/RAW/EXPRESS/LHCb/COLLISION10/75717/075717_0000000001.raw'
p752
aS'LFN:/lhcb/data/2010/RAW/EXPRESS/LHCb/COLLISION10/75717/075717_0000000059.raw'
p753
asI75718
(lp754
S'LFN:/lhcb/data/2010/RAW/EXPRESS/LHCb/COLLISION10/75718/075718_0000000324.raw'
p755
aS'LFN:/lhcb/data/2010/RAW/EXPRESS/LHCb/COLLISION10/75718/075718_0000000444.raw'
p756
aS'LFN:/lhcb/data/2010/RAW/EXPRESS/LHCb/COLLISION10/75718/075718_0000000199.raw'
p757
aS'LFN:/lhcb/data/2010/RAW/EXPRESS/LHCb/COLLISION10/75718/075718_0000000613.raw'
p758
aS'LFN:/lhcb/data/2010/RAW/EXPRESS/LHCb/COLLISION10/75718/075718_0000000002.raw'
p759
aS'LFN:/lhcb/data/2010/RAW/EXPRESS/LHCb/COLLISION10/75718/075718_0000000262.raw'
p760
aS'LFN:/lhcb/data/2010/RAW/EXPRESS/LHCb/COLLISION10/75718/075718_0000000501.raw'
p761
aS'LFN:/lhcb/data/2010/RAW/EXPRESS/LHCb/COLLISION10/75718/075718_0000000559.raw'
p762
aS'LFN:/lhcb/data/2010/RAW/EXPRESS/LHCb/COLLISION10/75718/075718_0000000055.raw'
p763
aS'LFN:/lhcb/data/2010/RAW/EXPRESS/LHCb/COLLISION10/75718/075718_0000000385.raw'
p764
aS'LFN:/lhcb/data/2010/RAW/EXPRESS/LHCb/COLLISION10/75718/075718_0000000133.raw'
p765
asI74695
(lp766
S'LFN:/lhcb/data/2010/RAW/EXPRESS/LHCb/COLLISION10/74695/074695_0000000008.raw'
p767
aS'LFN:/lhcb/data/2010/RAW/EXPRESS/LHCb/COLLISION10/74695/074695_0000000001.raw'
p768
asI75720
(lp769
S'LFN:/lhcb/data/2010/RAW/EXPRESS/LHCb/COLLISION10/75720/075720_0000000358.raw'
p770
aS'LFN:/lhcb/data/2010/RAW/EXPRESS/LHCb/COLLISION10/75720/075720_0000000411.raw'
p771
aS'LFN:/lhcb/data/2010/RAW/EXPRESS/LHCb/COLLISION10/75720/075720_0000000461.raw'
p772
aS'LFN:/lhcb/data/2010/RAW/EXPRESS/LHCb/COLLISION10/75720/075720_0000000126.raw'
p773
aS'LFN:/lhcb/data/2010/RAW/EXPRESS/LHCb/COLLISION10/75720/075720_0000000246.raw'
p774
aS'LFN:/lhcb/data/2010/RAW/EXPRESS/LHCb/COLLISION10/75720/075720_0000000187.raw'
p775
aS'LFN:/lhcb/data/2010/RAW/EXPRESS/LHCb/COLLISION10/75720/075720_0000000002.raw'
p776
aS'LFN:/lhcb/data/2010/RAW/EXPRESS/LHCb/COLLISION10/75720/075720_0000000302.raw'
p777
aS'LFN:/lhcb/data/2010/RAW/EXPRESS/LHCb/COLLISION10/75720/075720_0000000055.raw'
p778
aS'LFN:/lhcb/data/2010/RAW/EXPRESS/LHCb/COLLISION10/75720/075720_0000000515.raw'
p779
aS'LFN:/lhcb/data/2010/RAW/EXPRESS/LHCb/COLLISION10/75720/075720_0000000565.raw'
p780
asI74828
(lp781
S'LFN:/lhcb/data/2010/RAW/EXPRESS/LHCb/COLLISION10/74828/074828_0000000001.raw'
p782
aS'LFN:/lhcb/data/2010/RAW/EXPRESS/LHCb/COLLISION10/74828/074828_0000000004.raw'
p783
asI75722
(lp784
S'LFN:/lhcb/data/2010/RAW/EXPRESS/LHCb/COLLISION10/75722/075722_0000000305.raw'
p785
aS'LFN:/lhcb/data/2010/RAW/EXPRESS/LHCb/COLLISION10/75722/075722_0000000001.raw'
p786
aS'LFN:/lhcb/data/2010/RAW/EXPRESS/LHCb/COLLISION10/75722/075722_0000000051.raw'
p787
aS'LFN:/lhcb/data/2010/RAW/EXPRESS/LHCb/COLLISION10/75722/075722_0000000211.raw'
p788
aS'LFN:/lhcb/data/2010/RAW/EXPRESS/LHCb/COLLISION10/75722/075722_0000000159.raw'
p789
aS'LFN:/lhcb/data/2010/RAW/EXPRESS/LHCb/COLLISION10/75722/075722_0000000259.raw'
p790
aS'LFN:/lhcb/data/2010/RAW/EXPRESS/LHCb/COLLISION10/75722/075722_0000000438.raw'
p791
aS'LFN:/lhcb/data/2010/RAW/EXPRESS/LHCb/COLLISION10/75722/075722_0000000106.raw'
p792
aS'LFN:/lhcb/data/2010/RAW/EXPRESS/LHCb/COLLISION10/75722/075722_0000000352.raw'
p793
aS'LFN:/lhcb/data/2010/RAW/EXPRESS/LHCb/COLLISION10/75722/075722_0000000482.raw'
p794
aS'LFN:/lhcb/data/2010/RAW/EXPRESS/LHCb/COLLISION10/75722/075722_0000000396.raw'
p795
asI75723
(lp796
S'LFN:/lhcb/data/2010/RAW/EXPRESS/LHCb/COLLISION10/75723/075723_0000000152.raw'
p797
aS'LFN:/lhcb/data/2010/RAW/EXPRESS/LHCb/COLLISION10/75723/075723_0000000200.raw'
p798
aS'LFN:/lhcb/data/2010/RAW/EXPRESS/LHCb/COLLISION10/75723/075723_0000000380.raw'
p799
aS'LFN:/lhcb/data/2010/RAW/EXPRESS/LHCb/COLLISION10/75723/075723_0000000001.raw'
p800
aS'LFN:/lhcb/data/2010/RAW/EXPRESS/LHCb/COLLISION10/75723/075723_0000000101.raw'
p801
aS'LFN:/lhcb/data/2010/RAW/EXPRESS/LHCb/COLLISION10/75723/075723_0000000289.raw'
p802
aS'LFN:/lhcb/data/2010/RAW/EXPRESS/LHCb/COLLISION10/75723/075723_0000000338.raw'
p803
aS'LFN:/lhcb/data/2010/RAW/EXPRESS/LHCb/COLLISION10/75723/075723_0000000464.raw'
p804
aS'LFN:/lhcb/data/2010/RAW/EXPRESS/LHCb/COLLISION10/75723/075723_0000000047.raw'
p805
aS'LFN:/lhcb/data/2010/RAW/EXPRESS/LHCb/COLLISION10/75723/075723_0000000244.raw'
p806
aS'LFN:/lhcb/data/2010/RAW/EXPRESS/LHCb/COLLISION10/75723/075723_0000000422.raw'
p807
asI75724
(lp808
S'LFN:/lhcb/data/2010/RAW/EXPRESS/LHCb/COLLISION10/75724/075724_0000000352.raw'
p809
aS'LFN:/lhcb/data/2010/RAW/EXPRESS/LHCb/COLLISION10/75724/075724_0000000392.raw'
p810
aS'LFN:/lhcb/data/2010/RAW/EXPRESS/LHCb/COLLISION10/75724/075724_0000000234.raw'
p811
aS'LFN:/lhcb/data/2010/RAW/EXPRESS/LHCb/COLLISION10/75724/075724_0000000002.raw'
p812
aS'LFN:/lhcb/data/2010/RAW/EXPRESS/LHCb/COLLISION10/75724/075724_0000000146.raw'
p813
aS'LFN:/lhcb/data/2010/RAW/EXPRESS/LHCb/COLLISION10/75724/075724_0000000190.raw'
p814
aS'LFN:/lhcb/data/2010/RAW/EXPRESS/LHCb/COLLISION10/75724/075724_0000000273.raw'
p815
aS'LFN:/lhcb/data/2010/RAW/EXPRESS/LHCb/COLLISION10/75724/075724_0000000313.raw'
p816
aS'LFN:/lhcb/data/2010/RAW/EXPRESS/LHCb/COLLISION10/75724/075724_0000000047.raw'
p817
aS'LFN:/lhcb/data/2010/RAW/EXPRESS/LHCb/COLLISION10/75724/075724_0000000097.raw'
p818
asI75725
(lp819
S'LFN:/lhcb/data/2010/RAW/EXPRESS/LHCb/COLLISION10/75725/075725_0000000093.raw'
p820
aS'LFN:/lhcb/data/2010/RAW/EXPRESS/LHCb/COLLISION10/75725/075725_0000000002.raw'
p821
aS'LFN:/lhcb/data/2010/RAW/EXPRESS/LHCb/COLLISION10/75725/075725_0000000137.raw'
p822
aS'LFN:/lhcb/data/2010/RAW/EXPRESS/LHCb/COLLISION10/75725/075725_0000000047.raw'
p823
asI75341
(lp824
S'LFN:/lhcb/data/2010/RAW/EXPRESS/LHCb/COLLISION10/75341/075341_0000000097.raw'
p825
aS'LFN:/lhcb/data/2010/RAW/EXPRESS/LHCb/COLLISION10/75341/075341_0000000002.raw'
p826
aS'LFN:/lhcb/data/2010/RAW/EXPRESS/LHCb/COLLISION10/75341/075341_0000000238.raw'
p827
aS'LFN:/lhcb/data/2010/RAW/EXPRESS/LHCb/COLLISION10/75341/075341_0000000192.raw'
p828
aS'LFN:/lhcb/data/2010/RAW/EXPRESS/LHCb/COLLISION10/75341/075341_0000000043.raw'
p829
aS'LFN:/lhcb/data/2010/RAW/EXPRESS/LHCb/COLLISION10/75341/075341_0000000147.raw'
p830
asI76793
(lp831
S'LFN:/lhcb/data/2010/RAW/EXPRESS/LHCb/COLLISION10/76793/076793_0000000001.raw'
p832
asI75686
(lp833
S'LFN:/lhcb/data/2010/RAW/EXPRESS/LHCb/COLLISION10/75686/075686_0000000067.raw'
p834
aS'LFN:/lhcb/data/2010/RAW/EXPRESS/LHCb/COLLISION10/75686/075686_0000000159.raw'
p835
aS'LFN:/lhcb/data/2010/RAW/EXPRESS/LHCb/COLLISION10/75686/075686_0000000003.raw'
p836
asI74733
(lp837
S'LFN:/lhcb/data/2010/RAW/EXPRESS/LHCb/COLLISION10/74733/074733_0000000004.raw'
p838
aS'LFN:/lhcb/data/2010/RAW/EXPRESS/LHCb/COLLISION10/74733/074733_0000000003.raw'
p839
aS'LFN:/lhcb/data/2010/RAW/EXPRESS/LHCb/COLLISION10/74733/074733_0000000062.raw'
p840
aS'LFN:/lhcb/data/2010/RAW/EXPRESS/LHCb/COLLISION10/74733/074733_0000000039.raw'
p841
asI74734
(lp842
S'LFN:/lhcb/data/2010/RAW/EXPRESS/LHCb/COLLISION10/74734/074734_0000000003.raw'
p843
asI76790
(lp844
S'LFN:/lhcb/data/2010/RAW/EXPRESS/LHCb/COLLISION10/76790/076790_0000000002.raw'
p845
asI76791
(lp846
S'LFN:/lhcb/data/2010/RAW/EXPRESS/LHCb/COLLISION10/76791/076791_0000000001.raw'
p847
asI76792
(lp848
S'LFN:/lhcb/data/2010/RAW/EXPRESS/LHCb/COLLISION10/76792/076792_0000000061.raw'
p849
aS'LFN:/lhcb/data/2010/RAW/EXPRESS/LHCb/COLLISION10/76792/076792_0000000120.raw'
p850
aS'LFN:/lhcb/data/2010/RAW/EXPRESS/LHCb/COLLISION10/76792/076792_0000000028.raw'
p851
aS'LFN:/lhcb/data/2010/RAW/EXPRESS/LHCb/COLLISION10/76792/076792_0000000091.raw'
p852
aS'LFN:/lhcb/data/2010/RAW/EXPRESS/LHCb/COLLISION10/76792/076792_0000000002.raw'
p853
aS'LFN:/lhcb/data/2010/RAW/EXPRESS/LHCb/COLLISION10/76792/076792_0000000147.raw'
p854
asI75348
(lp855
S'LFN:/lhcb/data/2010/RAW/EXPRESS/LHCb/COLLISION10/75348/075348_0000000002.raw'
p856
asI76794
(lp857
S'LFN:/lhcb/data/2010/RAW/EXPRESS/LHCb/COLLISION10/76794/076794_0000000001.raw'
p858
aS'LFN:/lhcb/data/2010/RAW/EXPRESS/LHCb/COLLISION10/76794/076794_0000000027.raw'
p859
aS'LFN:/lhcb/data/2010/RAW/EXPRESS/LHCb/COLLISION10/76794/076794_0000000057.raw'
p860
aS'LFN:/lhcb/data/2010/RAW/EXPRESS/LHCb/COLLISION10/76794/076794_0000000182.raw'
p861
aS'LFN:/lhcb/data/2010/RAW/EXPRESS/LHCb/COLLISION10/76794/076794_0000000135.raw'
p862
aS'LFN:/lhcb/data/2010/RAW/EXPRESS/LHCb/COLLISION10/76794/076794_0000000083.raw'
p863
aS'LFN:/lhcb/data/2010/RAW/EXPRESS/LHCb/COLLISION10/76794/076794_0000000109.raw'
p864
aS'LFN:/lhcb/data/2010/RAW/EXPRESS/LHCb/COLLISION10/76794/076794_0000000159.raw'
p865
aS'LFN:/lhcb/data/2010/RAW/EXPRESS/LHCb/COLLISION10/76794/076794_0000000204.raw'
p866
asI76795
(lp867
S'LFN:/lhcb/data/2010/RAW/EXPRESS/LHCb/COLLISION10/76795/076795_0000000077.raw'
p868
aS'LFN:/lhcb/data/2010/RAW/EXPRESS/LHCb/COLLISION10/76795/076795_0000000053.raw'
p869
aS'LFN:/lhcb/data/2010/RAW/EXPRESS/LHCb/COLLISION10/76795/076795_0000000166.raw'
p870
aS'LFN:/lhcb/data/2010/RAW/EXPRESS/LHCb/COLLISION10/76795/076795_0000000123.raw'
p871
aS'LFN:/lhcb/data/2010/RAW/EXPRESS/LHCb/COLLISION10/76795/076795_0000000188.raw'
p872
aS'LFN:/lhcb/data/2010/RAW/EXPRESS/LHCb/COLLISION10/76795/076795_0000000002.raw'
p873
aS'LFN:/lhcb/data/2010/RAW/EXPRESS/LHCb/COLLISION10/76795/076795_0000000027.raw'
p874
aS'LFN:/lhcb/data/2010/RAW/EXPRESS/LHCb/COLLISION10/76795/076795_0000000101.raw'
p875
aS'LFN:/lhcb/data/2010/RAW/EXPRESS/LHCb/COLLISION10/76795/076795_0000000144.raw'
p876
asI76796
(lp877
S'LFN:/lhcb/data/2010/RAW/EXPRESS/LHCb/COLLISION10/76796/076796_0000000023.raw'
p878
aS'LFN:/lhcb/data/2010/RAW/EXPRESS/LHCb/COLLISION10/76796/076796_0000000073.raw'
p879
aS'LFN:/lhcb/data/2010/RAW/EXPRESS/LHCb/COLLISION10/76796/076796_0000000118.raw'
p880
aS'LFN:/lhcb/data/2010/RAW/EXPRESS/LHCb/COLLISION10/76796/076796_0000000136.raw'
p881
aS'LFN:/lhcb/data/2010/RAW/EXPRESS/LHCb/COLLISION10/76796/076796_0000000049.raw'
p882
aS'LFN:/lhcb/data/2010/RAW/EXPRESS/LHCb/COLLISION10/76796/076796_0000000158.raw'
p883
aS'LFN:/lhcb/data/2010/RAW/EXPRESS/LHCb/COLLISION10/76796/076796_0000000002.raw'
p884
aS'LFN:/lhcb/data/2010/RAW/EXPRESS/LHCb/COLLISION10/76796/076796_0000000097.raw'
p885
aS'LFN:/lhcb/data/2010/RAW/EXPRESS/LHCb/COLLISION10/76796/076796_0000000179.raw'
p886
asI76797
(lp887
S'LFN:/lhcb/data/2010/RAW/EXPRESS/LHCb/COLLISION10/76797/076797_0000000071.raw'
p888
aS'LFN:/lhcb/data/2010/RAW/EXPRESS/LHCb/COLLISION10/76797/076797_0000000112.raw'
p889
aS'LFN:/lhcb/data/2010/RAW/EXPRESS/LHCb/COLLISION10/76797/076797_0000000132.raw'
p890
aS'LFN:/lhcb/data/2010/RAW/EXPRESS/LHCb/COLLISION10/76797/076797_0000000049.raw'
p891
aS'LFN:/lhcb/data/2010/RAW/EXPRESS/LHCb/COLLISION10/76797/076797_0000000154.raw'
p892
aS'LFN:/lhcb/data/2010/RAW/EXPRESS/LHCb/COLLISION10/76797/076797_0000000003.raw'
p893
aS'LFN:/lhcb/data/2010/RAW/EXPRESS/LHCb/COLLISION10/76797/076797_0000000023.raw'
p894
aS'LFN:/lhcb/data/2010/RAW/EXPRESS/LHCb/COLLISION10/76797/076797_0000000093.raw'
p895
asI76798
(lp896
S'LFN:/lhcb/data/2010/RAW/EXPRESS/LHCb/COLLISION10/76798/076798_0000000110.raw'
p897
aS'LFN:/lhcb/data/2010/RAW/EXPRESS/LHCb/COLLISION10/76798/076798_0000000023.raw'
p898
aS'LFN:/lhcb/data/2010/RAW/EXPRESS/LHCb/COLLISION10/76798/076798_0000000071.raw'
p899
aS'LFN:/lhcb/data/2010/RAW/EXPRESS/LHCb/COLLISION10/76798/076798_0000000002.raw'
p900
aS'LFN:/lhcb/data/2010/RAW/EXPRESS/LHCb/COLLISION10/76798/076798_0000000128.raw'
p901
aS'LFN:/lhcb/data/2010/RAW/EXPRESS/LHCb/COLLISION10/76798/076798_0000000049.raw'
p902
aS'LFN:/lhcb/data/2010/RAW/EXPRESS/LHCb/COLLISION10/76798/076798_0000000089.raw'
p903
aS'LFN:/lhcb/data/2010/RAW/EXPRESS/LHCb/COLLISION10/76798/076798_0000000147.raw'
p904
asI76799
(lp905
S'LFN:/lhcb/data/2010/RAW/EXPRESS/LHCb/COLLISION10/76799/076799_0000000001.raw'
p906
aS'LFN:/lhcb/data/2010/RAW/EXPRESS/LHCb/COLLISION10/76799/076799_0000000023.raw'
p907
as.