(dp0
I70122
(lp1
S'LFN:/lhcb/data/2010/RAW/EXPRESS/LHCb/COLLISION10/70122/070122_0000000008.raw'
p2
aS'LFN:/lhcb/data/2010/RAW/EXPRESS/LHCb/COLLISION10/70122/070122_0000000001.raw'
p3
asI70274
(lp4
S'LFN:/lhcb/data/2010/RAW/EXPRESS/LHCb/COLLISION10/70274/070274_0000000002.raw'
p5
aS'LFN:/lhcb/data/2010/RAW/EXPRESS/LHCb/COLLISION10/70274/070274_0000000016.raw'
p6
aS'LFN:/lhcb/data/2010/RAW/EXPRESS/LHCb/COLLISION10/70274/070274_0000000009.raw'
p7
asI70276
(lp8
S'LFN:/lhcb/data/2010/RAW/EXPRESS/LHCb/COLLISION10/70276/070276_0000000009.raw'
p9
aS'LFN:/lhcb/data/2010/RAW/EXPRESS/LHCb/COLLISION10/70276/070276_0000000017.raw'
p10
aS'LFN:/lhcb/data/2010/RAW/EXPRESS/LHCb/COLLISION10/70276/070276_0000000003.raw'
p11
asI70331
(lp12
S'LFN:/lhcb/data/2010/RAW/EXPRESS/LHCb/COLLISION10/70331/070331_0000000001.raw'
p13
asI69986
(lp14
S'LFN:/lhcb/data/2010/RAW/EXPRESS/LHCb/COLLISION10/69986/069986_0000000001.raw'
p15
asI70273
(lp16
S'LFN:/lhcb/data/2010/RAW/EXPRESS/LHCb/COLLISION10/70273/070273_0000000001.raw'
p17
asI70280
(lp18
S'LFN:/lhcb/data/2010/RAW/EXPRESS/LHCb/COLLISION10/70280/070280_0000000014.raw'
p19
aS'LFN:/lhcb/data/2010/RAW/EXPRESS/LHCb/COLLISION10/70280/070280_0000000026.raw'
p20
aS'LFN:/lhcb/data/2010/RAW/EXPRESS/LHCb/COLLISION10/70280/070280_0000000001.raw'
p21
aS'LFN:/lhcb/data/2010/RAW/EXPRESS/LHCb/COLLISION10/70280/070280_0000000008.raw'
p22
aS'LFN:/lhcb/data/2010/RAW/EXPRESS/LHCb/COLLISION10/70280/070280_0000000020.raw'
p23
asI70666
(lp24
S'LFN:/lhcb/data/2010/RAW/EXPRESS/LHCb/COLLISION10/70666/070666_0000000096.raw'
p25
aS'LFN:/lhcb/data/2010/RAW/EXPRESS/LHCb/COLLISION10/70666/070666_0000000001.raw'
p26
aS'LFN:/lhcb/data/2010/RAW/EXPRESS/LHCb/COLLISION10/70666/070666_0000000069.raw'
p27
aS'LFN:/lhcb/data/2010/RAW/EXPRESS/LHCb/COLLISION10/70666/070666_0000000019.raw'
p28
aS'LFN:/lhcb/data/2010/RAW/EXPRESS/LHCb/COLLISION10/70666/070666_0000000009.raw'
p29
aS'LFN:/lhcb/data/2010/RAW/EXPRESS/LHCb/COLLISION10/70666/070666_0000000042.raw'
p30
asI70667
(lp31
S'LFN:/lhcb/data/2010/RAW/EXPRESS/LHCb/COLLISION10/70667/070667_0000000034.raw'
p32
aS'LFN:/lhcb/data/2010/RAW/EXPRESS/LHCb/COLLISION10/70667/070667_0000000002.raw'
p33
asI69645
(lp34
S'LFN:/lhcb/data/2010/RAW/EXPRESS/LHCb/BEAM1/69645/069645_0000000002.raw'
p35
asI69647
(lp36
S'LFN:/lhcb/data/2010/RAW/EXPRESS/LHCb/BEAM1/69647/069647_0000000033.raw'
p37
aS'LFN:/lhcb/data/2010/RAW/EXPRESS/LHCb/BEAM1/69647/069647_0000000002.raw'
p38
asI69648
(lp39
S'LFN:/lhcb/data/2010/RAW/EXPRESS/LHCb/COLLISION10/69648/069648_0000000002.raw'
p40
aS'LFN:/lhcb/data/2010/RAW/EXPRESS/LHCb/COLLISION10/69648/069648_0000000024.raw'
p41
aS'LFN:/lhcb/data/2010/RAW/EXPRESS/LHCb/COLLISION10/69648/069648_0000000044.raw'
p42
aS'LFN:/lhcb/data/2010/RAW/EXPRESS/LHCb/COLLISION10/69648/069648_0000000064.raw'
p43
asI69649
(lp44
S'LFN:/lhcb/data/2010/RAW/EXPRESS/LHCb/COLLISION10/69649/069649_0000000002.raw'
p45
asI70679
(lp46
S'LFN:/lhcb/data/2010/RAW/EXPRESS/LHCb/COLLISION10/70679/070679_0000000001.raw'
p47
asI70680
(lp48
S'LFN:/lhcb/data/2010/RAW/EXPRESS/LHCb/COLLISION10/70680/070680_0000000001.raw'
p49
asI70681
(lp50
S'LFN:/lhcb/data/2010/RAW/EXPRESS/LHCb/COLLISION10/70681/070681_0000000201.raw'
p51
aS'LFN:/lhcb/data/2010/RAW/EXPRESS/LHCb/COLLISION10/70681/070681_0000000159.raw'
p52
aS'LFN:/lhcb/data/2010/RAW/EXPRESS/LHCb/COLLISION10/70681/070681_0000000002.raw'
p53
aS'LFN:/lhcb/data/2010/RAW/EXPRESS/LHCb/COLLISION10/70681/070681_0000000070.raw'
p54
aS'LFN:/lhcb/data/2010/RAW/EXPRESS/LHCb/COLLISION10/70681/070681_0000000116.raw'
p55
aS'LFN:/lhcb/data/2010/RAW/EXPRESS/LHCb/COLLISION10/70681/070681_0000000021.raw'
p56
aS'LFN:/lhcb/data/2010/RAW/EXPRESS/LHCb/COLLISION10/70681/070681_0000000054.raw'
p57
aS'LFN:/lhcb/data/2010/RAW/EXPRESS/LHCb/COLLISION10/70681/070681_0000000038.raw'
p58
aS'LFN:/lhcb/data/2010/RAW/EXPRESS/LHCb/COLLISION10/70681/070681_0000000187.raw'
p59
aS'LFN:/lhcb/data/2010/RAW/EXPRESS/LHCb/COLLISION10/70681/070681_0000000145.raw'
p60
aS'LFN:/lhcb/data/2010/RAW/EXPRESS/LHCb/COLLISION10/70681/070681_0000000085.raw'
p61
aS'LFN:/lhcb/data/2010/RAW/EXPRESS/LHCb/COLLISION10/70681/070681_0000000173.raw'
p62
aS'LFN:/lhcb/data/2010/RAW/EXPRESS/LHCb/COLLISION10/70681/070681_0000000131.raw'
p63
aS'LFN:/lhcb/data/2010/RAW/EXPRESS/LHCb/COLLISION10/70681/070681_0000000101.raw'
p64
asI70682
(lp65
S'LFN:/lhcb/data/2010/RAW/EXPRESS/LHCb/COLLISION10/70682/070682_0000000152.raw'
p66
aS'LFN:/lhcb/data/2010/RAW/EXPRESS/LHCb/COLLISION10/70682/070682_0000000110.raw'
p67
aS'LFN:/lhcb/data/2010/RAW/EXPRESS/LHCb/COLLISION10/70682/070682_0000000097.raw'
p68
aS'LFN:/lhcb/data/2010/RAW/EXPRESS/LHCb/COLLISION10/70682/070682_0000000067.raw'
p69
aS'LFN:/lhcb/data/2010/RAW/EXPRESS/LHCb/COLLISION10/70682/070682_0000000019.raw'
p70
aS'LFN:/lhcb/data/2010/RAW/EXPRESS/LHCb/COLLISION10/70682/070682_0000000001.raw'
p71
aS'LFN:/lhcb/data/2010/RAW/EXPRESS/LHCb/COLLISION10/70682/070682_0000000124.raw'
p72
aS'LFN:/lhcb/data/2010/RAW/EXPRESS/LHCb/COLLISION10/70682/070682_0000000082.raw'
p73
aS'LFN:/lhcb/data/2010/RAW/EXPRESS/LHCb/COLLISION10/70682/070682_0000000051.raw'
p74
aS'LFN:/lhcb/data/2010/RAW/EXPRESS/LHCb/COLLISION10/70682/070682_0000000138.raw'
p75
aS'LFN:/lhcb/data/2010/RAW/EXPRESS/LHCb/COLLISION10/70682/070682_0000000036.raw'
p76
asI70076
(lp77
S'LFN:/lhcb/data/2010/RAW/EXPRESS/LHCb/COLLISION10/70076/070076_0000000002.raw'
p78
asI70684
(lp79
S'LFN:/lhcb/data/2010/RAW/EXPRESS/LHCb/COLLISION10/70684/070684_0000000073.raw'
p80
aS'LFN:/lhcb/data/2010/RAW/EXPRESS/LHCb/COLLISION10/70684/070684_0000000119.raw'
p81
aS'LFN:/lhcb/data/2010/RAW/EXPRESS/LHCb/COLLISION10/70684/070684_0000000129.raw'
p82
aS'LFN:/lhcb/data/2010/RAW/EXPRESS/LHCb/COLLISION10/70684/070684_0000000108.raw'
p83
aS'LFN:/lhcb/data/2010/RAW/EXPRESS/LHCb/COLLISION10/70684/070684_0000000034.raw'
p84
aS'LFN:/lhcb/data/2010/RAW/EXPRESS/LHCb/COLLISION10/70684/070684_0000000001.raw'
p85
aS'LFN:/lhcb/data/2010/RAW/EXPRESS/LHCb/COLLISION10/70684/070684_0000000140.raw'
p86
aS'LFN:/lhcb/data/2010/RAW/EXPRESS/LHCb/COLLISION10/70684/070684_0000000096.raw'
p87
aS'LFN:/lhcb/data/2010/RAW/EXPRESS/LHCb/COLLISION10/70684/070684_0000000084.raw'
p88
aS'LFN:/lhcb/data/2010/RAW/EXPRESS/LHCb/COLLISION10/70684/070684_0000000017.raw'
p89
aS'LFN:/lhcb/data/2010/RAW/EXPRESS/LHCb/COLLISION10/70684/070684_0000000150.raw'
p90
aS'LFN:/lhcb/data/2010/RAW/EXPRESS/LHCb/COLLISION10/70684/070684_0000000060.raw'
p91
aS'LFN:/lhcb/data/2010/RAW/EXPRESS/LHCb/COLLISION10/70684/070684_0000000048.raw'
p92
asI70685
(lp93
S'LFN:/lhcb/data/2010/RAW/EXPRESS/LHCb/COLLISION10/70685/070685_0000000072.raw'
p94
aS'LFN:/lhcb/data/2010/RAW/EXPRESS/LHCb/COLLISION10/70685/070685_0000000102.raw'
p95
aS'LFN:/lhcb/data/2010/RAW/EXPRESS/LHCb/COLLISION10/70685/070685_0000000082.raw'
p96
aS'LFN:/lhcb/data/2010/RAW/EXPRESS/LHCb/COLLISION10/70685/070685_0000000112.raw'
p97
aS'LFN:/lhcb/data/2010/RAW/EXPRESS/LHCb/COLLISION10/70685/070685_0000000001.raw'
p98
aS'LFN:/lhcb/data/2010/RAW/EXPRESS/LHCb/COLLISION10/70685/070685_0000000050.raw'
p99
aS'LFN:/lhcb/data/2010/RAW/EXPRESS/LHCb/COLLISION10/70685/070685_0000000061.raw'
p100
aS'LFN:/lhcb/data/2010/RAW/EXPRESS/LHCb/COLLISION10/70685/070685_0000000092.raw'
p101
aS'LFN:/lhcb/data/2010/RAW/EXPRESS/LHCb/COLLISION10/70685/070685_0000000133.raw'
p102
aS'LFN:/lhcb/data/2010/RAW/EXPRESS/LHCb/COLLISION10/70685/070685_0000000015.raw'
p103
aS'LFN:/lhcb/data/2010/RAW/EXPRESS/LHCb/COLLISION10/70685/070685_0000000027.raw'
p104
aS'LFN:/lhcb/data/2010/RAW/EXPRESS/LHCb/COLLISION10/70685/070685_0000000039.raw'
p105
aS'LFN:/lhcb/data/2010/RAW/EXPRESS/LHCb/COLLISION10/70685/070685_0000000123.raw'
p106
asI70686
(lp107
S'LFN:/lhcb/data/2010/RAW/EXPRESS/LHCb/COLLISION10/70686/070686_0000000118.raw'
p108
aS'LFN:/lhcb/data/2010/RAW/EXPRESS/LHCb/COLLISION10/70686/070686_0000000099.raw'
p109
aS'LFN:/lhcb/data/2010/RAW/EXPRESS/LHCb/COLLISION10/70686/070686_0000000069.raw'
p110
aS'LFN:/lhcb/data/2010/RAW/EXPRESS/LHCb/COLLISION10/70686/070686_0000000038.raw'
p111
aS'LFN:/lhcb/data/2010/RAW/EXPRESS/LHCb/COLLISION10/70686/070686_0000000026.raw'
p112
aS'LFN:/lhcb/data/2010/RAW/EXPRESS/LHCb/COLLISION10/70686/070686_0000000014.raw'
p113
aS'LFN:/lhcb/data/2010/RAW/EXPRESS/LHCb/COLLISION10/70686/070686_0000000108.raw'
p114
aS'LFN:/lhcb/data/2010/RAW/EXPRESS/LHCb/COLLISION10/70686/070686_0000000089.raw'
p115
aS'LFN:/lhcb/data/2010/RAW/EXPRESS/LHCb/COLLISION10/70686/070686_0000000059.raw'
p116
aS'LFN:/lhcb/data/2010/RAW/EXPRESS/LHCb/COLLISION10/70686/070686_0000000127.raw'
p117
aS'LFN:/lhcb/data/2010/RAW/EXPRESS/LHCb/COLLISION10/70686/070686_0000000079.raw'
p118
aS'LFN:/lhcb/data/2010/RAW/EXPRESS/LHCb/COLLISION10/70686/070686_0000000049.raw'
p119
aS'LFN:/lhcb/data/2010/RAW/EXPRESS/LHCb/COLLISION10/70686/070686_0000000001.raw'
p120
asI70687
(lp121
S'LFN:/lhcb/data/2010/RAW/EXPRESS/LHCb/COLLISION10/70687/070687_0000000001.raw'
p122
aS'LFN:/lhcb/data/2010/RAW/EXPRESS/LHCb/COLLISION10/70687/070687_0000000037.raw'
p123
aS'LFN:/lhcb/data/2010/RAW/EXPRESS/LHCb/COLLISION10/70687/070687_0000000067.raw'
p124
aS'LFN:/lhcb/data/2010/RAW/EXPRESS/LHCb/COLLISION10/70687/070687_0000000047.raw'
p125
aS'LFN:/lhcb/data/2010/RAW/EXPRESS/LHCb/COLLISION10/70687/070687_0000000077.raw'
p126
aS'LFN:/lhcb/data/2010/RAW/EXPRESS/LHCb/COLLISION10/70687/070687_0000000125.raw'
p127
aS'LFN:/lhcb/data/2010/RAW/EXPRESS/LHCb/COLLISION10/70687/070687_0000000096.raw'
p128
aS'LFN:/lhcb/data/2010/RAW/EXPRESS/LHCb/COLLISION10/70687/070687_0000000106.raw'
p129
aS'LFN:/lhcb/data/2010/RAW/EXPRESS/LHCb/COLLISION10/70687/070687_0000000014.raw'
p130
aS'LFN:/lhcb/data/2010/RAW/EXPRESS/LHCb/COLLISION10/70687/070687_0000000026.raw'
p131
aS'LFN:/lhcb/data/2010/RAW/EXPRESS/LHCb/COLLISION10/70687/070687_0000000057.raw'
p132
aS'LFN:/lhcb/data/2010/RAW/EXPRESS/LHCb/COLLISION10/70687/070687_0000000087.raw'
p133
aS'LFN:/lhcb/data/2010/RAW/EXPRESS/LHCb/COLLISION10/70687/070687_0000000116.raw'
p134
asI70688
(lp135
S'LFN:/lhcb/data/2010/RAW/EXPRESS/LHCb/COLLISION10/70688/070688_0000000025.raw'
p136
aS'LFN:/lhcb/data/2010/RAW/EXPRESS/LHCb/COLLISION10/70688/070688_0000000046.raw'
p137
aS'LFN:/lhcb/data/2010/RAW/EXPRESS/LHCb/COLLISION10/70688/070688_0000000002.raw'
p138
aS'LFN:/lhcb/data/2010/RAW/EXPRESS/LHCb/COLLISION10/70688/070688_0000000014.raw'
p139
aS'LFN:/lhcb/data/2010/RAW/EXPRESS/LHCb/COLLISION10/70688/070688_0000000036.raw'
p140
aS'LFN:/lhcb/data/2010/RAW/EXPRESS/LHCb/COLLISION10/70688/070688_0000000056.raw'
p141
aS'LFN:/lhcb/data/2010/RAW/EXPRESS/LHCb/COLLISION10/70688/070688_0000000066.raw'
p142
aS'LFN:/lhcb/data/2010/RAW/EXPRESS/LHCb/COLLISION10/70688/070688_0000000075.raw'
p143
asI69921
(lp144
S'LFN:/lhcb/data/2010/RAW/EXPRESS/LHCb/COLLISION10/69921/069921_0000000001.raw'
p145
asI69666
(lp146
S'LFN:/lhcb/data/2010/RAW/EXPRESS/LHCb/COLLISION10/69666/069666_0000000002.raw'
p147
asI69667
(lp148
S'LFN:/lhcb/data/2010/RAW/EXPRESS/LHCb/COLLISION10/69667/069667_0000000004.raw'
p149
asI69924
(lp150
S'LFN:/lhcb/data/2010/RAW/EXPRESS/LHCb/COLLISION10/69924/069924_0000000001.raw'
p151
aS'LFN:/lhcb/data/2010/RAW/EXPRESS/LHCb/COLLISION10/69924/069924_0000000009.raw'
p152
aS'LFN:/lhcb/data/2010/RAW/EXPRESS/LHCb/COLLISION10/69924/069924_0000000017.raw'
p153
asI69669
(lp154
S'LFN:/lhcb/data/2010/RAW/EXPRESS/LHCb/COLLISION10/69669/069669_0000000002.raw'
p155
asI70288
(lp156
S'LFN:/lhcb/data/2010/RAW/EXPRESS/LHCb/COLLISION10/70288/070288_0000000001.raw'
p157
asI69672
(lp158
S'LFN:/lhcb/data/2010/RAW/EXPRESS/LHCb/COLLISION10/69672/069672_0000000001.raw'
p159
asI70192
(lp160
S'LFN:/lhcb/data/2010/RAW/EXPRESS/LHCb/COLLISION10/70192/070192_0000000013.raw'
p161
aS'LFN:/lhcb/data/2010/RAW/EXPRESS/LHCb/COLLISION10/70192/070192_0000000007.raw'
p162
aS'LFN:/lhcb/data/2010/RAW/EXPRESS/LHCb/COLLISION10/70192/070192_0000000024.raw'
p163
aS'LFN:/lhcb/data/2010/RAW/EXPRESS/LHCb/COLLISION10/70192/070192_0000000002.raw'
p164
aS'LFN:/lhcb/data/2010/RAW/EXPRESS/LHCb/COLLISION10/70192/070192_0000000018.raw'
p165
asI70193
(lp166
S'LFN:/lhcb/data/2010/RAW/EXPRESS/LHCb/COLLISION10/70193/070193_0000000002.raw'
p167
asI70195
(lp168
S'LFN:/lhcb/data/2010/RAW/EXPRESS/LHCb/COLLISION10/70195/070195_0000000002.raw'
p169
asI70121
(lp170
S'LFN:/lhcb/data/2010/RAW/EXPRESS/LHCb/COLLISION10/70121/070121_0000000005.raw'
p171
aS'LFN:/lhcb/data/2010/RAW/EXPRESS/LHCb/COLLISION10/70121/070121_0000000009.raw'
p172
aS'LFN:/lhcb/data/2010/RAW/EXPRESS/LHCb/COLLISION10/70121/070121_0000000013.raw'
p173
aS'LFN:/lhcb/data/2010/RAW/EXPRESS/LHCb/COLLISION10/70121/070121_0000000017.raw'
p174
aS'LFN:/lhcb/data/2010/RAW/EXPRESS/LHCb/COLLISION10/70121/070121_0000000025.raw'
p175
aS'LFN:/lhcb/data/2010/RAW/EXPRESS/LHCb/COLLISION10/70121/070121_0000000003.raw'
p176
aS'LFN:/lhcb/data/2010/RAW/EXPRESS/LHCb/COLLISION10/70121/070121_0000000007.raw'
p177
aS'LFN:/lhcb/data/2010/RAW/EXPRESS/LHCb/COLLISION10/70121/070121_0000000011.raw'
p178
aS'LFN:/lhcb/data/2010/RAW/EXPRESS/LHCb/COLLISION10/70121/070121_0000000015.raw'
p179
aS'LFN:/lhcb/data/2010/RAW/EXPRESS/LHCb/COLLISION10/70121/070121_0000000019.raw'
p180
aS'LFN:/lhcb/data/2010/RAW/EXPRESS/LHCb/COLLISION10/70121/070121_0000000023.raw'
p181
aS'LFN:/lhcb/data/2010/RAW/EXPRESS/LHCb/COLLISION10/70121/070121_0000000027.raw'
p182
aS'LFN:/lhcb/data/2010/RAW/EXPRESS/LHCb/COLLISION10/70121/070121_0000000002.raw'
p183
aS'LFN:/lhcb/data/2010/RAW/EXPRESS/LHCb/COLLISION10/70121/070121_0000000006.raw'
p184
aS'LFN:/lhcb/data/2010/RAW/EXPRESS/LHCb/COLLISION10/70121/070121_0000000010.raw'
p185
aS'LFN:/lhcb/data/2010/RAW/EXPRESS/LHCb/COLLISION10/70121/070121_0000000014.raw'
p186
aS'LFN:/lhcb/data/2010/RAW/EXPRESS/LHCb/COLLISION10/70121/070121_0000000018.raw'
p187
aS'LFN:/lhcb/data/2010/RAW/EXPRESS/LHCb/COLLISION10/70121/070121_0000000022.raw'
p188
aS'LFN:/lhcb/data/2010/RAW/EXPRESS/LHCb/COLLISION10/70121/070121_0000000026.raw'
p189
aS'LFN:/lhcb/data/2010/RAW/EXPRESS/LHCb/COLLISION10/70121/070121_0000000004.raw'
p190
aS'LFN:/lhcb/data/2010/RAW/EXPRESS/LHCb/COLLISION10/70121/070121_0000000008.raw'
p191
aS'LFN:/lhcb/data/2010/RAW/EXPRESS/LHCb/COLLISION10/70121/070121_0000000016.raw'
p192
aS'LFN:/lhcb/data/2010/RAW/EXPRESS/LHCb/COLLISION10/70121/070121_0000000020.raw'
p193
aS'LFN:/lhcb/data/2010/RAW/EXPRESS/LHCb/COLLISION10/70121/070121_0000000024.raw'
p194
asI70691
(lp195
S'LFN:/lhcb/data/2010/RAW/EXPRESS/LHCb/COLLISION10/70691/070691_0000000002.raw'
p196
asI69947
(lp197
S'LFN:/lhcb/data/2010/RAW/EXPRESS/LHCb/COLLISION10/69947/069947_0000000002.raw'
p198
aS'LFN:/lhcb/data/2010/RAW/EXPRESS/LHCb/COLLISION10/69947/069947_0000000010.raw'
p199
aS'LFN:/lhcb/data/2010/RAW/EXPRESS/LHCb/COLLISION10/69947/069947_0000000017.raw'
p200
aS'LFN:/lhcb/data/2010/RAW/EXPRESS/LHCb/COLLISION10/69947/069947_0000000024.raw'
p201
asI69948
(lp202
S'LFN:/lhcb/data/2010/RAW/EXPRESS/LHCb/COLLISION10/69948/069948_0000000001.raw'
p203
aS'LFN:/lhcb/data/2010/RAW/EXPRESS/LHCb/COLLISION10/69948/069948_0000000009.raw'
p204
asI70078
(lp205
S'LFN:/lhcb/data/2010/RAW/EXPRESS/LHCb/COLLISION10/70078/070078_0000000002.raw'
p206
asI70079
(lp207
S'LFN:/lhcb/data/2010/RAW/EXPRESS/LHCb/COLLISION10/70079/070079_0000000007.raw'
p208
aS'LFN:/lhcb/data/2010/RAW/EXPRESS/LHCb/COLLISION10/70079/070079_0000000001.raw'
p209
aS'LFN:/lhcb/data/2010/RAW/EXPRESS/LHCb/COLLISION10/70079/070079_0000000013.raw'
p210
asI70080
(lp211
S'LFN:/lhcb/data/2010/RAW/EXPRESS/LHCb/COLLISION10/70080/070080_0000000007.raw'
p212
aS'LFN:/lhcb/data/2010/RAW/EXPRESS/LHCb/COLLISION10/70080/070080_0000000002.raw'
p213
asI69984
(lp214
S'LFN:/lhcb/data/2010/RAW/EXPRESS/LHCb/COLLISION10/69984/069984_0000000007.raw'
p215
aS'LFN:/lhcb/data/2010/RAW/EXPRESS/LHCb/COLLISION10/69984/069984_0000000002.raw'
p216
asI70722
(lp217
S'LFN:/lhcb/data/2010/RAW/EXPRESS/LHCb/COLLISION10/70722/070722_0000000012.raw'
p218
aS'LFN:/lhcb/data/2010/RAW/EXPRESS/LHCb/COLLISION10/70722/070722_0000000002.raw'
p219
asI70723
(lp220
S'LFN:/lhcb/data/2010/RAW/EXPRESS/LHCb/COLLISION10/70723/070723_0000000002.raw'
p221
aS'LFN:/lhcb/data/2010/RAW/EXPRESS/LHCb/COLLISION10/70723/070723_0000000014.raw'
p222
aS'LFN:/lhcb/data/2010/RAW/EXPRESS/LHCb/COLLISION10/70723/070723_0000000031.raw'
p223
aS'LFN:/lhcb/data/2010/RAW/EXPRESS/LHCb/COLLISION10/70723/070723_0000000047.raw'
p224
aS'LFN:/lhcb/data/2010/RAW/EXPRESS/LHCb/COLLISION10/70723/070723_0000000039.raw'
p225
aS'LFN:/lhcb/data/2010/RAW/EXPRESS/LHCb/COLLISION10/70723/070723_0000000022.raw'
p226
asI70724
(lp227
S'LFN:/lhcb/data/2010/RAW/EXPRESS/LHCb/COLLISION10/70724/070724_0000000001.raw'
p228
asI70725
(lp229
S'LFN:/lhcb/data/2010/RAW/EXPRESS/LHCb/COLLISION10/70725/070725_0000000001.raw'
p230
aS'LFN:/lhcb/data/2010/RAW/EXPRESS/LHCb/COLLISION10/70725/070725_0000000014.raw'
p231
asI70721
(lp232
S'LFN:/lhcb/data/2010/RAW/EXPRESS/LHCb/COLLISION10/70721/070721_0000000002.raw'
p233
asI69985
(lp234
S'LFN:/lhcb/data/2010/RAW/EXPRESS/LHCb/COLLISION10/69985/069985_0000000008.raw'
p235
aS'LFN:/lhcb/data/2010/RAW/EXPRESS/LHCb/COLLISION10/69985/069985_0000000020.raw'
p236
aS'LFN:/lhcb/data/2010/RAW/EXPRESS/LHCb/COLLISION10/69985/069985_0000000014.raw'
p237
aS'LFN:/lhcb/data/2010/RAW/EXPRESS/LHCb/COLLISION10/69985/069985_0000000026.raw'
p238
aS'LFN:/lhcb/data/2010/RAW/EXPRESS/LHCb/COLLISION10/69985/069985_0000000001.raw'
p239
asI70730
(lp240
S'LFN:/lhcb/data/2010/RAW/EXPRESS/LHCb/COLLISION10/70730/070730_0000000001.raw'
p241
asI70347
(lp242
S'LFN:/lhcb/data/2010/RAW/EXPRESS/LHCb/COLLISION10/70347/070347_0000000012.raw'
p243
aS'LFN:/lhcb/data/2010/RAW/EXPRESS/LHCb/COLLISION10/70347/070347_0000000016.raw'
p244
aS'LFN:/lhcb/data/2010/RAW/EXPRESS/LHCb/COLLISION10/70347/070347_0000000002.raw'
p245
aS'LFN:/lhcb/data/2010/RAW/EXPRESS/LHCb/COLLISION10/70347/070347_0000000007.raw'
p246
aS'LFN:/lhcb/data/2010/RAW/EXPRESS/LHCb/COLLISION10/70347/070347_0000000021.raw'
p247
aS'LFN:/lhcb/data/2010/RAW/EXPRESS/LHCb/COLLISION10/70347/070347_0000000025.raw'
p248
asI70732
(lp249
S'LFN:/lhcb/data/2010/RAW/EXPRESS/LHCb/COLLISION10/70732/070732_0000000001.raw'
p250
asI69922
(lp251
S'LFN:/lhcb/data/2010/RAW/EXPRESS/LHCb/COLLISION10/69922/069922_0000000002.raw'
p252
asI70278
(lp253
S'LFN:/lhcb/data/2010/RAW/EXPRESS/LHCb/COLLISION10/70278/070278_0000000016.raw'
p254
aS'LFN:/lhcb/data/2010/RAW/EXPRESS/LHCb/COLLISION10/70278/070278_0000000028.raw'
p255
aS'LFN:/lhcb/data/2010/RAW/EXPRESS/LHCb/COLLISION10/70278/070278_0000000002.raw'
p256
aS'LFN:/lhcb/data/2010/RAW/EXPRESS/LHCb/COLLISION10/70278/070278_0000000022.raw'
p257
aS'LFN:/lhcb/data/2010/RAW/EXPRESS/LHCb/COLLISION10/70278/070278_0000000009.raw'
p258
asI70733
(lp259
S'LFN:/lhcb/data/2010/RAW/EXPRESS/LHCb/COLLISION10/70733/070733_0000000027.raw'
p260
aS'LFN:/lhcb/data/2010/RAW/EXPRESS/LHCb/COLLISION10/70733/070733_0000000039.raw'
p261
aS'LFN:/lhcb/data/2010/RAW/EXPRESS/LHCb/COLLISION10/70733/070733_0000000049.raw'
p262
aS'LFN:/lhcb/data/2010/RAW/EXPRESS/LHCb/COLLISION10/70733/070733_0000000002.raw'
p263
aS'LFN:/lhcb/data/2010/RAW/EXPRESS/LHCb/COLLISION10/70733/070733_0000000014.raw'
p264
asI70683
(lp265
S'LFN:/lhcb/data/2010/RAW/EXPRESS/LHCb/COLLISION10/70683/070683_0000000119.raw'
p266
aS'LFN:/lhcb/data/2010/RAW/EXPRESS/LHCb/COLLISION10/70683/070683_0000000017.raw'
p267
aS'LFN:/lhcb/data/2010/RAW/EXPRESS/LHCb/COLLISION10/70683/070683_0000000169.raw'
p268
aS'LFN:/lhcb/data/2010/RAW/EXPRESS/LHCb/COLLISION10/70683/070683_0000000157.raw'
p269
aS'LFN:/lhcb/data/2010/RAW/EXPRESS/LHCb/COLLISION10/70683/070683_0000000001.raw'
p270
aS'LFN:/lhcb/data/2010/RAW/EXPRESS/LHCb/COLLISION10/70683/070683_0000000064.raw'
p271
aS'LFN:/lhcb/data/2010/RAW/EXPRESS/LHCb/COLLISION10/70683/070683_0000000034.raw'
p272
aS'LFN:/lhcb/data/2010/RAW/EXPRESS/LHCb/COLLISION10/70683/070683_0000000105.raw'
p273
aS'LFN:/lhcb/data/2010/RAW/EXPRESS/LHCb/COLLISION10/70683/070683_0000000144.raw'
p274
aS'LFN:/lhcb/data/2010/RAW/EXPRESS/LHCb/COLLISION10/70683/070683_0000000132.raw'
p275
aS'LFN:/lhcb/data/2010/RAW/EXPRESS/LHCb/COLLISION10/70683/070683_0000000078.raw'
p276
aS'LFN:/lhcb/data/2010/RAW/EXPRESS/LHCb/COLLISION10/70683/070683_0000000182.raw'
p277
aS'LFN:/lhcb/data/2010/RAW/EXPRESS/LHCb/COLLISION10/70683/070683_0000000092.raw'
p278
aS'LFN:/lhcb/data/2010/RAW/EXPRESS/LHCb/COLLISION10/70683/070683_0000000050.raw'
p279
asI69923
(lp280
S'LFN:/lhcb/data/2010/RAW/EXPRESS/LHCb/COLLISION10/69923/069923_0000000002.raw'
p281
asI70734
(lp282
S'LFN:/lhcb/data/2010/RAW/EXPRESS/LHCb/COLLISION10/70734/070734_0000000002.raw'
p283
asI70689
(lp284
S'LFN:/lhcb/data/2010/RAW/EXPRESS/LHCb/COLLISION10/70689/070689_0000000013.raw'
p285
aS'LFN:/lhcb/data/2010/RAW/EXPRESS/LHCb/COLLISION10/70689/070689_0000000025.raw'
p286
aS'LFN:/lhcb/data/2010/RAW/EXPRESS/LHCb/COLLISION10/70689/070689_0000000002.raw'
p287
aS'LFN:/lhcb/data/2010/RAW/EXPRESS/LHCb/COLLISION10/70689/070689_0000000044.raw'
p288
aS'LFN:/lhcb/data/2010/RAW/EXPRESS/LHCb/COLLISION10/70689/070689_0000000035.raw'
p289
aS'LFN:/lhcb/data/2010/RAW/EXPRESS/LHCb/COLLISION10/70689/070689_0000000054.raw'
p290
asI70368
(lp291
S'LFN:/lhcb/data/2010/RAW/EXPRESS/LHCb/COLLISION10/70368/070368_0000000001.raw'
p292
asI70366
(lp293
S'LFN:/lhcb/data/2010/RAW/EXPRESS/LHCb/COLLISION10/70366/070366_0000000001.raw'
p294
asI70367
(lp295
S'LFN:/lhcb/data/2010/RAW/EXPRESS/LHCb/COLLISION10/70367/070367_0000000002.raw'
p296
asI69856
(lp297
S'LFN:/lhcb/data/2010/RAW/EXPRESS/LHCb/COLLISION10/69856/069856_0000000003.raw'
p298
asI69857
(lp299
S'LFN:/lhcb/data/2010/RAW/EXPRESS/LHCb/COLLISION10/69857/069857_0000000002.raw'
p300
asI69858
(lp301
S'LFN:/lhcb/data/2010/RAW/EXPRESS/LHCb/COLLISION10/69858/069858_0000000003.raw'
p302
asI70075
(lp303
S'LFN:/lhcb/data/2010/RAW/EXPRESS/LHCb/COLLISION10/70075/070075_0000000002.raw'
p304
asI69860
(lp305
S'LFN:/lhcb/data/2010/RAW/EXPRESS/LHCb/COLLISION10/69860/069860_0000000001.raw'
p306
asI69862
(lp307
S'LFN:/lhcb/data/2010/RAW/EXPRESS/LHCb/COLLISION10/69862/069862_0000000002.raw'
p308
asI69353
(lp309
S'LFN:/lhcb/data/2010/RAW/EXPRESS/LHCb/COLLISION10/69353/069353_0000000001.raw'
p310
aS'LFN:/lhcb/data/2010/RAW/EXPRESS/LHCb/COLLISION10/69353/069353_0000000004.raw'
p311
asI69354
(lp312
S'LFN:/lhcb/data/2010/RAW/EXPRESS/LHCb/COLLISION10/69354/069354_0000000001.raw'
p313
aS'LFN:/lhcb/data/2010/RAW/EXPRESS/LHCb/COLLISION10/69354/069354_0000000002.raw'
p314
asI69355
(lp315
S'LFN:/lhcb/data/2010/RAW/EXPRESS/LHCb/COLLISION10/69355/069355_0000000003.raw'
p316
aS'LFN:/lhcb/data/2010/RAW/EXPRESS/LHCb/COLLISION10/69355/069355_0000000004.raw'
p317
asI69614
(lp318
S'LFN:/lhcb/data/2010/RAW/EXPRESS/LHCb/COLLISION10/69614/069614_0000000002.raw'
p319
asI69615
(lp320
S'LFN:/lhcb/data/2010/RAW/EXPRESS/LHCb/COLLISION10/69615/069615_0000000001.raw'
p321
asI70731
(lp322
S'LFN:/lhcb/data/2010/RAW/EXPRESS/LHCb/COLLISION10/70731/070731_0000000002.raw'
p323
asI69620
(lp324
S'LFN:/lhcb/data/2010/RAW/EXPRESS/LHCb/COLLISION10/69620/069620_0000000002.raw'
p325
asI70690
(lp326
S'LFN:/lhcb/data/2010/RAW/EXPRESS/LHCb/COLLISION10/70690/070690_0000000033.raw'
p327
aS'LFN:/lhcb/data/2010/RAW/EXPRESS/LHCb/COLLISION10/70690/070690_0000000051.raw'
p328
aS'LFN:/lhcb/data/2010/RAW/EXPRESS/LHCb/COLLISION10/70690/070690_0000000069.raw'
p329
aS'LFN:/lhcb/data/2010/RAW/EXPRESS/LHCb/COLLISION10/70690/070690_0000000086.raw'
p330
aS'LFN:/lhcb/data/2010/RAW/EXPRESS/LHCb/COLLISION10/70690/070690_0000000023.raw'
p331
aS'LFN:/lhcb/data/2010/RAW/EXPRESS/LHCb/COLLISION10/70690/070690_0000000111.raw'
p332
aS'LFN:/lhcb/data/2010/RAW/EXPRESS/LHCb/COLLISION10/70690/070690_0000000012.raw'
p333
aS'LFN:/lhcb/data/2010/RAW/EXPRESS/LHCb/COLLISION10/70690/070690_0000000042.raw'
p334
aS'LFN:/lhcb/data/2010/RAW/EXPRESS/LHCb/COLLISION10/70690/070690_0000000060.raw'
p335
aS'LFN:/lhcb/data/2010/RAW/EXPRESS/LHCb/COLLISION10/70690/070690_0000000077.raw'
p336
aS'LFN:/lhcb/data/2010/RAW/EXPRESS/LHCb/COLLISION10/70690/070690_0000000095.raw'
p337
aS'LFN:/lhcb/data/2010/RAW/EXPRESS/LHCb/COLLISION10/70690/070690_0000000103.raw'
p338
aS'LFN:/lhcb/data/2010/RAW/EXPRESS/LHCb/COLLISION10/70690/070690_0000000001.raw'
p339
asI69623
(lp340
S'LFN:/lhcb/data/2010/RAW/EXPRESS/LHCb/COLLISION10/69623/069623_0000000001.raw'
p341
aS'LFN:/lhcb/data/2010/RAW/EXPRESS/LHCb/COLLISION10/69623/069623_0000000007.raw'
p342
asI69624
(lp343
S'LFN:/lhcb/data/2010/RAW/EXPRESS/LHCb/COLLISION10/69624/069624_0000000001.raw'
p344
aS'LFN:/lhcb/data/2010/RAW/EXPRESS/LHCb/COLLISION10/69624/069624_0000000011.raw'
p345
aS'LFN:/lhcb/data/2010/RAW/EXPRESS/LHCb/COLLISION10/69624/069624_0000000032.raw'
p346
asI69625
(lp347
S'LFN:/lhcb/data/2010/RAW/EXPRESS/LHCb/COLLISION10/69625/069625_0000000001.raw'
p348
aS'LFN:/lhcb/data/2010/RAW/EXPRESS/LHCb/COLLISION10/69625/069625_0000000011.raw'
p349
asI69626
(lp350
S'LFN:/lhcb/data/2010/RAW/EXPRESS/LHCb/COLLISION10/69626/069626_0000000002.raw'
p351
asI69627
(lp352
S'LFN:/lhcb/data/2010/RAW/EXPRESS/LHCb/COLLISION10/69627/069627_0000000002.raw'
p353
aS'LFN:/lhcb/data/2010/RAW/EXPRESS/LHCb/COLLISION10/69627/069627_0000000019.raw'
p354
asI69866
(lp355
S'LFN:/lhcb/data/2010/RAW/EXPRESS/LHCb/COLLISION10/69866/069866_0000000002.raw'
p356
as.