(dp0
I71168
(lp1
S'LFN:/lhcb/data/2010/RAW/EXPRESS/LHCb/COLLISION10/71168/071168_0000000032.raw'
p2
aS'LFN:/lhcb/data/2010/RAW/EXPRESS/LHCb/COLLISION10/71168/071168_0000000002.raw'
p3
asI71169
(lp4
S'LFN:/lhcb/data/2010/RAW/EXPRESS/LHCb/COLLISION10/71169/071169_0000000002.raw'
p5
asI71170
(lp6
S'LFN:/lhcb/data/2010/RAW/EXPRESS/LHCb/COLLISION10/71170/071170_0000000002.raw'
p7
aS'LFN:/lhcb/data/2010/RAW/EXPRESS/LHCb/COLLISION10/71170/071170_0000000028.raw'
p8
asI71183
(lp9
S'LFN:/lhcb/data/2010/RAW/EXPRESS/LHCb/COLLISION10/71183/071183_0000000001.raw'
p10
asI71185
(lp11
S'LFN:/lhcb/data/2010/RAW/EXPRESS/LHCb/COLLISION10/71185/071185_0000000035.raw'
p12
aS'LFN:/lhcb/data/2010/RAW/EXPRESS/LHCb/COLLISION10/71185/071185_0000000002.raw'
p13
asI71186
(lp14
S'LFN:/lhcb/data/2010/RAW/EXPRESS/LHCb/COLLISION10/71186/071186_0000000035.raw'
p15
aS'LFN:/lhcb/data/2010/RAW/EXPRESS/LHCb/COLLISION10/71186/071186_0000000002.raw'
p16
asI71187
(lp17
S'LFN:/lhcb/data/2010/RAW/EXPRESS/LHCb/COLLISION10/71187/071187_0000000032.raw'
p18
aS'LFN:/lhcb/data/2010/RAW/EXPRESS/LHCb/COLLISION10/71187/071187_0000000002.raw'
p19
asI71188
(lp20
S'LFN:/lhcb/data/2010/RAW/EXPRESS/LHCb/COLLISION10/71188/071188_0000000002.raw'
p21
aS'LFN:/lhcb/data/2010/RAW/EXPRESS/LHCb/COLLISION10/71188/071188_0000000030.raw'
p22
asI71189
(lp23
S'LFN:/lhcb/data/2010/RAW/EXPRESS/LHCb/COLLISION10/71189/071189_0000000001.raw'
p24
aS'LFN:/lhcb/data/2010/RAW/EXPRESS/LHCb/COLLISION10/71189/071189_0000000027.raw'
p25
asI72216
(lp26
S'LFN:/lhcb/data/2010/RAW/EXPRESS/LHCb/COLLISION10/72216/072216_0000000139.raw'
p27
aS'LFN:/lhcb/data/2010/RAW/EXPRESS/LHCb/COLLISION10/72216/072216_0000000149.raw'
p28
aS'LFN:/lhcb/data/2010/RAW/EXPRESS/LHCb/COLLISION10/72216/072216_0000000008.raw'
p29
aS'LFN:/lhcb/data/2010/RAW/EXPRESS/LHCb/COLLISION10/72216/072216_0000000078.raw'
p30
aS'LFN:/lhcb/data/2010/RAW/EXPRESS/LHCb/COLLISION10/72216/072216_0000000088.raw'
p31
aS'LFN:/lhcb/data/2010/RAW/EXPRESS/LHCb/COLLISION10/72216/072216_0000000098.raw'
p32
aS'LFN:/lhcb/data/2010/RAW/EXPRESS/LHCb/COLLISION10/72216/072216_0000000108.raw'
p33
aS'LFN:/lhcb/data/2010/RAW/EXPRESS/LHCb/COLLISION10/72216/072216_0000000118.raw'
p34
aS'LFN:/lhcb/data/2010/RAW/EXPRESS/LHCb/COLLISION10/72216/072216_0000000128.raw'
p35
aS'LFN:/lhcb/data/2010/RAW/EXPRESS/LHCb/COLLISION10/72216/072216_0000000035.raw'
p36
aS'LFN:/lhcb/data/2010/RAW/EXPRESS/LHCb/COLLISION10/72216/072216_0000000022.raw'
p37
aS'LFN:/lhcb/data/2010/RAW/EXPRESS/LHCb/COLLISION10/72216/072216_0000000057.raw'
p38
aS'LFN:/lhcb/data/2010/RAW/EXPRESS/LHCb/COLLISION10/72216/072216_0000000067.raw'
p39
aS'LFN:/lhcb/data/2010/RAW/EXPRESS/LHCb/COLLISION10/72216/072216_0000000001.raw'
p40
aS'LFN:/lhcb/data/2010/RAW/EXPRESS/LHCb/COLLISION10/72216/072216_0000000046.raw'
p41
asI72217
(lp42
S'LFN:/lhcb/data/2010/RAW/EXPRESS/LHCb/COLLISION10/72217/072217_0000000046.raw'
p43
aS'LFN:/lhcb/data/2010/RAW/EXPRESS/LHCb/COLLISION10/72217/072217_0000000078.raw'
p44
aS'LFN:/lhcb/data/2010/RAW/EXPRESS/LHCb/COLLISION10/72217/072217_0000000009.raw'
p45
aS'LFN:/lhcb/data/2010/RAW/EXPRESS/LHCb/COLLISION10/72217/072217_0000000034.raw'
p46
aS'LFN:/lhcb/data/2010/RAW/EXPRESS/LHCb/COLLISION10/72217/072217_0000000089.raw'
p47
aS'LFN:/lhcb/data/2010/RAW/EXPRESS/LHCb/COLLISION10/72217/072217_0000000099.raw'
p48
aS'LFN:/lhcb/data/2010/RAW/EXPRESS/LHCb/COLLISION10/72217/072217_0000000109.raw'
p49
aS'LFN:/lhcb/data/2010/RAW/EXPRESS/LHCb/COLLISION10/72217/072217_0000000002.raw'
p50
aS'LFN:/lhcb/data/2010/RAW/EXPRESS/LHCb/COLLISION10/72217/072217_0000000022.raw'
p51
aS'LFN:/lhcb/data/2010/RAW/EXPRESS/LHCb/COLLISION10/72217/072217_0000000057.raw'
p52
aS'LFN:/lhcb/data/2010/RAW/EXPRESS/LHCb/COLLISION10/72217/072217_0000000067.raw'
p53
asI72218
(lp54
S'LFN:/lhcb/data/2010/RAW/EXPRESS/LHCb/COLLISION10/72218/072218_0000000002.raw'
p55
asI72219
(lp56
S'LFN:/lhcb/data/2010/RAW/EXPRESS/LHCb/COLLISION10/72219/072219_0000000001.raw'
p57
asI72220
(lp58
S'LFN:/lhcb/data/2010/RAW/EXPRESS/LHCb/COLLISION10/72220/072220_0000000045.raw'
p59
aS'LFN:/lhcb/data/2010/RAW/EXPRESS/LHCb/COLLISION10/72220/072220_0000000008.raw'
p60
aS'LFN:/lhcb/data/2010/RAW/EXPRESS/LHCb/COLLISION10/72220/072220_0000000033.raw'
p61
aS'LFN:/lhcb/data/2010/RAW/EXPRESS/LHCb/COLLISION10/72220/072220_0000000002.raw'
p62
aS'LFN:/lhcb/data/2010/RAW/EXPRESS/LHCb/COLLISION10/72220/072220_0000000022.raw'
p63
aS'LFN:/lhcb/data/2010/RAW/EXPRESS/LHCb/COLLISION10/72220/072220_0000000127.raw'
p64
aS'LFN:/lhcb/data/2010/RAW/EXPRESS/LHCb/COLLISION10/72220/072220_0000000056.raw'
p65
aS'LFN:/lhcb/data/2010/RAW/EXPRESS/LHCb/COLLISION10/72220/072220_0000000066.raw'
p66
aS'LFN:/lhcb/data/2010/RAW/EXPRESS/LHCb/COLLISION10/72220/072220_0000000076.raw'
p67
aS'LFN:/lhcb/data/2010/RAW/EXPRESS/LHCb/COLLISION10/72220/072220_0000000086.raw'
p68
aS'LFN:/lhcb/data/2010/RAW/EXPRESS/LHCb/COLLISION10/72220/072220_0000000096.raw'
p69
aS'LFN:/lhcb/data/2010/RAW/EXPRESS/LHCb/COLLISION10/72220/072220_0000000106.raw'
p70
aS'LFN:/lhcb/data/2010/RAW/EXPRESS/LHCb/COLLISION10/72220/072220_0000000116.raw'
p71
aS'LFN:/lhcb/data/2010/RAW/EXPRESS/LHCb/COLLISION10/72220/072220_0000000136.raw'
p72
asI72221
(lp73
S'LFN:/lhcb/data/2010/RAW/EXPRESS/LHCb/COLLISION10/72221/072221_0000000008.raw'
p74
aS'LFN:/lhcb/data/2010/RAW/EXPRESS/LHCb/COLLISION10/72221/072221_0000000033.raw'
p75
aS'LFN:/lhcb/data/2010/RAW/EXPRESS/LHCb/COLLISION10/72221/072221_0000000133.raw'
p76
aS'LFN:/lhcb/data/2010/RAW/EXPRESS/LHCb/COLLISION10/72221/072221_0000000044.raw'
p77
aS'LFN:/lhcb/data/2010/RAW/EXPRESS/LHCb/COLLISION10/72221/072221_0000000114.raw'
p78
aS'LFN:/lhcb/data/2010/RAW/EXPRESS/LHCb/COLLISION10/72221/072221_0000000124.raw'
p79
aS'LFN:/lhcb/data/2010/RAW/EXPRESS/LHCb/COLLISION10/72221/072221_0000000001.raw'
p80
aS'LFN:/lhcb/data/2010/RAW/EXPRESS/LHCb/COLLISION10/72221/072221_0000000021.raw'
p81
aS'LFN:/lhcb/data/2010/RAW/EXPRESS/LHCb/COLLISION10/72221/072221_0000000055.raw'
p82
aS'LFN:/lhcb/data/2010/RAW/EXPRESS/LHCb/COLLISION10/72221/072221_0000000065.raw'
p83
aS'LFN:/lhcb/data/2010/RAW/EXPRESS/LHCb/COLLISION10/72221/072221_0000000075.raw'
p84
aS'LFN:/lhcb/data/2010/RAW/EXPRESS/LHCb/COLLISION10/72221/072221_0000000085.raw'
p85
aS'LFN:/lhcb/data/2010/RAW/EXPRESS/LHCb/COLLISION10/72221/072221_0000000095.raw'
p86
aS'LFN:/lhcb/data/2010/RAW/EXPRESS/LHCb/COLLISION10/72221/072221_0000000105.raw'
p87
asI72222
(lp88
S'LFN:/lhcb/data/2010/RAW/EXPRESS/LHCb/COLLISION10/72222/072222_0000000002.raw'
p89
aS'LFN:/lhcb/data/2010/RAW/EXPRESS/LHCb/COLLISION10/72222/072222_0000000008.raw'
p90
asI72251
(lp91
S'LFN:/lhcb/data/2010/RAW/EXPRESS/LHCb/COLLISION10/72251/072251_0000000002.raw'
p92
aS'LFN:/lhcb/data/2010/RAW/EXPRESS/LHCb/COLLISION10/72251/072251_0000000082.raw'
p93
aS'LFN:/lhcb/data/2010/RAW/EXPRESS/LHCb/COLLISION10/72251/072251_0000000008.raw'
p94
aS'LFN:/lhcb/data/2010/RAW/EXPRESS/LHCb/COLLISION10/72251/072251_0000000023.raw'
p95
aS'LFN:/lhcb/data/2010/RAW/EXPRESS/LHCb/COLLISION10/72251/072251_0000000048.raw'
p96
aS'LFN:/lhcb/data/2010/RAW/EXPRESS/LHCb/COLLISION10/72251/072251_0000000093.raw'
p97
aS'LFN:/lhcb/data/2010/RAW/EXPRESS/LHCb/COLLISION10/72251/072251_0000000103.raw'
p98
aS'LFN:/lhcb/data/2010/RAW/EXPRESS/LHCb/COLLISION10/72251/072251_0000000035.raw'
p99
aS'LFN:/lhcb/data/2010/RAW/EXPRESS/LHCb/COLLISION10/72251/072251_0000000060.raw'
p100
aS'LFN:/lhcb/data/2010/RAW/EXPRESS/LHCb/COLLISION10/72251/072251_0000000135.raw'
p101
aS'LFN:/lhcb/data/2010/RAW/EXPRESS/LHCb/COLLISION10/72251/072251_0000000145.raw'
p102
aS'LFN:/lhcb/data/2010/RAW/EXPRESS/LHCb/COLLISION10/72251/072251_0000000155.raw'
p103
aS'LFN:/lhcb/data/2010/RAW/EXPRESS/LHCb/COLLISION10/72251/072251_0000000114.raw'
p104
aS'LFN:/lhcb/data/2010/RAW/EXPRESS/LHCb/COLLISION10/72251/072251_0000000124.raw'
p105
aS'LFN:/lhcb/data/2010/RAW/EXPRESS/LHCb/COLLISION10/72251/072251_0000000071.raw'
p106
asI72252
(lp107
S'LFN:/lhcb/data/2010/RAW/EXPRESS/LHCb/COLLISION10/72252/072252_0000000002.raw'
p108
aS'LFN:/lhcb/data/2010/RAW/EXPRESS/LHCb/COLLISION10/72252/072252_0000000008.raw'
p109
aS'LFN:/lhcb/data/2010/RAW/EXPRESS/LHCb/COLLISION10/72252/072252_0000000023.raw'
p110
aS'LFN:/lhcb/data/2010/RAW/EXPRESS/LHCb/COLLISION10/72252/072252_0000000058.raw'
p111
aS'LFN:/lhcb/data/2010/RAW/EXPRESS/LHCb/COLLISION10/72252/072252_0000000046.raw'
p112
aS'LFN:/lhcb/data/2010/RAW/EXPRESS/LHCb/COLLISION10/72252/072252_0000000111.raw'
p113
aS'LFN:/lhcb/data/2010/RAW/EXPRESS/LHCb/COLLISION10/72252/072252_0000000121.raw'
p114
aS'LFN:/lhcb/data/2010/RAW/EXPRESS/LHCb/COLLISION10/72252/072252_0000000131.raw'
p115
aS'LFN:/lhcb/data/2010/RAW/EXPRESS/LHCb/COLLISION10/72252/072252_0000000141.raw'
p116
aS'LFN:/lhcb/data/2010/RAW/EXPRESS/LHCb/COLLISION10/72252/072252_0000000151.raw'
p117
aS'LFN:/lhcb/data/2010/RAW/EXPRESS/LHCb/COLLISION10/72252/072252_0000000035.raw'
p118
aS'LFN:/lhcb/data/2010/RAW/EXPRESS/LHCb/COLLISION10/72252/072252_0000000090.raw'
p119
aS'LFN:/lhcb/data/2010/RAW/EXPRESS/LHCb/COLLISION10/72252/072252_0000000100.raw'
p120
aS'LFN:/lhcb/data/2010/RAW/EXPRESS/LHCb/COLLISION10/72252/072252_0000000069.raw'
p121
aS'LFN:/lhcb/data/2010/RAW/EXPRESS/LHCb/COLLISION10/72252/072252_0000000079.raw'
p122
asI72253
(lp123
S'LFN:/lhcb/data/2010/RAW/EXPRESS/LHCb/COLLISION10/72253/072253_0000000088.raw'
p124
aS'LFN:/lhcb/data/2010/RAW/EXPRESS/LHCb/COLLISION10/72253/072253_0000000098.raw'
p125
aS'LFN:/lhcb/data/2010/RAW/EXPRESS/LHCb/COLLISION10/72253/072253_0000000108.raw'
p126
aS'LFN:/lhcb/data/2010/RAW/EXPRESS/LHCb/COLLISION10/72253/072253_0000000118.raw'
p127
aS'LFN:/lhcb/data/2010/RAW/EXPRESS/LHCb/COLLISION10/72253/072253_0000000022.raw'
p128
aS'LFN:/lhcb/data/2010/RAW/EXPRESS/LHCb/COLLISION10/72253/072253_0000000067.raw'
p129
aS'LFN:/lhcb/data/2010/RAW/EXPRESS/LHCb/COLLISION10/72253/072253_0000000077.raw'
p130
aS'LFN:/lhcb/data/2010/RAW/EXPRESS/LHCb/COLLISION10/72253/072253_0000000127.raw'
p131
aS'LFN:/lhcb/data/2010/RAW/EXPRESS/LHCb/COLLISION10/72253/072253_0000000137.raw'
p132
aS'LFN:/lhcb/data/2010/RAW/EXPRESS/LHCb/COLLISION10/72253/072253_0000000147.raw'
p133
aS'LFN:/lhcb/data/2010/RAW/EXPRESS/LHCb/COLLISION10/72253/072253_0000000034.raw'
p134
aS'LFN:/lhcb/data/2010/RAW/EXPRESS/LHCb/COLLISION10/72253/072253_0000000046.raw'
p135
aS'LFN:/lhcb/data/2010/RAW/EXPRESS/LHCb/COLLISION10/72253/072253_0000000056.raw'
p136
aS'LFN:/lhcb/data/2010/RAW/EXPRESS/LHCb/COLLISION10/72253/072253_0000000002.raw'
p137
aS'LFN:/lhcb/data/2010/RAW/EXPRESS/LHCb/COLLISION10/72253/072253_0000000008.raw'
p138
asI72254
(lp139
S'LFN:/lhcb/data/2010/RAW/EXPRESS/LHCb/COLLISION10/72254/072254_0000000001.raw'
p140
aS'LFN:/lhcb/data/2010/RAW/EXPRESS/LHCb/COLLISION10/72254/072254_0000000008.raw'
p141
asI72266
(lp142
S'LFN:/lhcb/data/2010/RAW/EXPRESS/LHCb/COLLISION10/72266/072266_0000000002.raw'
p143
aS'LFN:/lhcb/data/2010/RAW/EXPRESS/LHCb/COLLISION10/72266/072266_0000000022.raw'
p144
aS'LFN:/lhcb/data/2010/RAW/EXPRESS/LHCb/COLLISION10/72266/072266_0000000009.raw'
p145
aS'LFN:/lhcb/data/2010/RAW/EXPRESS/LHCb/COLLISION10/72266/072266_0000000034.raw'
p146
aS'LFN:/lhcb/data/2010/RAW/EXPRESS/LHCb/COLLISION10/72266/072266_0000000045.raw'
p147
aS'LFN:/lhcb/data/2010/RAW/EXPRESS/LHCb/COLLISION10/72266/072266_0000000055.raw'
p148
asI72267
(lp149
S'LFN:/lhcb/data/2010/RAW/EXPRESS/LHCb/COLLISION10/72267/072267_0000000001.raw'
p150
asI72268
(lp151
S'LFN:/lhcb/data/2010/RAW/EXPRESS/LHCb/COLLISION10/72268/072268_0000000036.raw'
p152
aS'LFN:/lhcb/data/2010/RAW/EXPRESS/LHCb/COLLISION10/72268/072268_0000000018.raw'
p153
aS'LFN:/lhcb/data/2010/RAW/EXPRESS/LHCb/COLLISION10/72268/072268_0000000053.raw'
p154
aS'LFN:/lhcb/data/2010/RAW/EXPRESS/LHCb/COLLISION10/72268/072268_0000000002.raw'
p155
aS'LFN:/lhcb/data/2010/RAW/EXPRESS/LHCb/COLLISION10/72268/072268_0000000069.raw'
p156
asI72269
(lp157
S'LFN:/lhcb/data/2010/RAW/EXPRESS/LHCb/COLLISION10/72269/072269_0000000002.raw'
p158
aS'LFN:/lhcb/data/2010/RAW/EXPRESS/LHCb/COLLISION10/72269/072269_0000000052.raw'
p159
aS'LFN:/lhcb/data/2010/RAW/EXPRESS/LHCb/COLLISION10/72269/072269_0000000036.raw'
p160
aS'LFN:/lhcb/data/2010/RAW/EXPRESS/LHCb/COLLISION10/72269/072269_0000000018.raw'
p161
aS'LFN:/lhcb/data/2010/RAW/EXPRESS/LHCb/COLLISION10/72269/072269_0000000068.raw'
p162
asI72309
(lp163
S'LFN:/lhcb/data/2010/RAW/EXPRESS/LHCb/COLLISION10/72309/072309_0000000064.raw'
p164
aS'LFN:/lhcb/data/2010/RAW/EXPRESS/LHCb/COLLISION10/72309/072309_0000000104.raw'
p165
aS'LFN:/lhcb/data/2010/RAW/EXPRESS/LHCb/COLLISION10/72309/072309_0000000144.raw'
p166
aS'LFN:/lhcb/data/2010/RAW/EXPRESS/LHCb/COLLISION10/72309/072309_0000000164.raw'
p167
aS'LFN:/lhcb/data/2010/RAW/EXPRESS/LHCb/COLLISION10/72309/072309_0000000001.raw'
p168
aS'LFN:/lhcb/data/2010/RAW/EXPRESS/LHCb/COLLISION10/72309/072309_0000000241.raw'
p169
aS'LFN:/lhcb/data/2010/RAW/EXPRESS/LHCb/COLLISION10/72309/072309_0000000261.raw'
p170
aS'LFN:/lhcb/data/2010/RAW/EXPRESS/LHCb/COLLISION10/72309/072309_0000000043.raw'
p171
aS'LFN:/lhcb/data/2010/RAW/EXPRESS/LHCb/COLLISION10/72309/072309_0000000183.raw'
p172
aS'LFN:/lhcb/data/2010/RAW/EXPRESS/LHCb/COLLISION10/72309/072309_0000000203.raw'
p173
aS'LFN:/lhcb/data/2010/RAW/EXPRESS/LHCb/COLLISION10/72309/072309_0000000020.raw'
p174
aS'LFN:/lhcb/data/2010/RAW/EXPRESS/LHCb/COLLISION10/72309/072309_0000000085.raw'
p175
aS'LFN:/lhcb/data/2010/RAW/EXPRESS/LHCb/COLLISION10/72309/072309_0000000125.raw'
p176
aS'LFN:/lhcb/data/2010/RAW/EXPRESS/LHCb/COLLISION10/72309/072309_0000000222.raw'
p177
asI72310
(lp178
S'LFN:/lhcb/data/2010/RAW/EXPRESS/LHCb/COLLISION10/72310/072310_0000000001.raw'
p179
asI71803
(lp180
S'LFN:/lhcb/data/2010/RAW/EXPRESS/LHCb/COLLISION10/71803/071803_0000000040.raw'
p181
aS'LFN:/lhcb/data/2010/RAW/EXPRESS/LHCb/COLLISION10/71803/071803_0000000002.raw'
p182
aS'LFN:/lhcb/data/2010/RAW/EXPRESS/LHCb/COLLISION10/71803/071803_0000000011.raw'
p183
aS'LFN:/lhcb/data/2010/RAW/EXPRESS/LHCb/COLLISION10/71803/071803_0000000072.raw'
p184
asI71804
(lp185
S'LFN:/lhcb/data/2010/RAW/EXPRESS/LHCb/COLLISION10/71804/071804_0000000002.raw'
p186
asI71805
(lp187
S'LFN:/lhcb/data/2010/RAW/EXPRESS/LHCb/COLLISION10/71805/071805_0000000002.raw'
p188
aS'LFN:/lhcb/data/2010/RAW/EXPRESS/LHCb/COLLISION10/71805/071805_0000000064.raw'
p189
aS'LFN:/lhcb/data/2010/RAW/EXPRESS/LHCb/COLLISION10/71805/071805_0000000206.raw'
p190
aS'LFN:/lhcb/data/2010/RAW/EXPRESS/LHCb/COLLISION10/71805/071805_0000000095.raw'
p191
aS'LFN:/lhcb/data/2010/RAW/EXPRESS/LHCb/COLLISION10/71805/071805_0000000125.raw'
p192
aS'LFN:/lhcb/data/2010/RAW/EXPRESS/LHCb/COLLISION10/71805/071805_0000000152.raw'
p193
aS'LFN:/lhcb/data/2010/RAW/EXPRESS/LHCb/COLLISION10/71805/071805_0000000179.raw'
p194
aS'LFN:/lhcb/data/2010/RAW/EXPRESS/LHCb/COLLISION10/71805/071805_0000000031.raw'
p195
asI71806
(lp196
S'LFN:/lhcb/data/2010/RAW/EXPRESS/LHCb/COLLISION10/71806/071806_0000000030.raw'
p197
aS'LFN:/lhcb/data/2010/RAW/EXPRESS/LHCb/COLLISION10/71806/071806_0000000002.raw'
p198
aS'LFN:/lhcb/data/2010/RAW/EXPRESS/LHCb/COLLISION10/71806/071806_0000000063.raw'
p199
asI71807
(lp200
S'LFN:/lhcb/data/2010/RAW/EXPRESS/LHCb/COLLISION10/71807/071807_0000000002.raw'
p201
asI71808
(lp202
S'LFN:/lhcb/data/2010/RAW/EXPRESS/LHCb/COLLISION10/71808/071808_0000000001.raw'
p203
asI71809
(lp204
S'LFN:/lhcb/data/2010/RAW/EXPRESS/LHCb/COLLISION10/71809/071809_0000000002.raw'
p205
asI71810
(lp206
S'LFN:/lhcb/data/2010/RAW/EXPRESS/LHCb/COLLISION10/71810/071810_0000000002.raw'
p207
asI71811
(lp208
S'LFN:/lhcb/data/2010/RAW/EXPRESS/LHCb/COLLISION10/71811/071811_0000000002.raw'
p209
asI71812
(lp210
S'LFN:/lhcb/data/2010/RAW/EXPRESS/LHCb/COLLISION10/71812/071812_0000000002.raw'
p211
aS'LFN:/lhcb/data/2010/RAW/EXPRESS/LHCb/COLLISION10/71812/071812_0000000120.raw'
p212
aS'LFN:/lhcb/data/2010/RAW/EXPRESS/LHCb/COLLISION10/71812/071812_0000000057.raw'
p213
asI71813
(lp214
S'LFN:/lhcb/data/2010/RAW/EXPRESS/LHCb/COLLISION10/71813/071813_0000000119.raw'
p215
aS'LFN:/lhcb/data/2010/RAW/EXPRESS/LHCb/COLLISION10/71813/071813_0000000337.raw'
p216
aS'LFN:/lhcb/data/2010/RAW/EXPRESS/LHCb/COLLISION10/71813/071813_0000000233.raw'
p217
aS'LFN:/lhcb/data/2010/RAW/EXPRESS/LHCb/COLLISION10/71813/071813_0000000057.raw'
p218
aS'LFN:/lhcb/data/2010/RAW/EXPRESS/LHCb/COLLISION10/71813/071813_0000000177.raw'
p219
aS'LFN:/lhcb/data/2010/RAW/EXPRESS/LHCb/COLLISION10/71813/071813_0000000001.raw'
p220
aS'LFN:/lhcb/data/2010/RAW/EXPRESS/LHCb/COLLISION10/71813/071813_0000000286.raw'
p221
asI72326
(lp222
S'LFN:/lhcb/data/2010/RAW/EXPRESS/LHCb/COLLISION10/72326/072326_0000000025.raw'
p223
aS'LFN:/lhcb/data/2010/RAW/EXPRESS/LHCb/COLLISION10/72326/072326_0000000073.raw'
p224
aS'LFN:/lhcb/data/2010/RAW/EXPRESS/LHCb/COLLISION10/72326/072326_0000000002.raw'
p225
aS'LFN:/lhcb/data/2010/RAW/EXPRESS/LHCb/COLLISION10/72326/072326_0000000117.raw'
p226
aS'LFN:/lhcb/data/2010/RAW/EXPRESS/LHCb/COLLISION10/72326/072326_0000000049.raw'
p227
aS'LFN:/lhcb/data/2010/RAW/EXPRESS/LHCb/COLLISION10/72326/072326_0000000096.raw'
p228
aS'LFN:/lhcb/data/2010/RAW/EXPRESS/LHCb/COLLISION10/72326/072326_0000000138.raw'
p229
asI71815
(lp230
S'LFN:/lhcb/data/2010/RAW/EXPRESS/LHCb/COLLISION10/71815/071815_0000000117.raw'
p231
aS'LFN:/lhcb/data/2010/RAW/EXPRESS/LHCb/COLLISION10/71815/071815_0000000174.raw'
p232
aS'LFN:/lhcb/data/2010/RAW/EXPRESS/LHCb/COLLISION10/71815/071815_0000000002.raw'
p233
aS'LFN:/lhcb/data/2010/RAW/EXPRESS/LHCb/COLLISION10/71815/071815_0000000227.raw'
p234
aS'LFN:/lhcb/data/2010/RAW/EXPRESS/LHCb/COLLISION10/71815/071815_0000000055.raw'
p235
aS'LFN:/lhcb/data/2010/RAW/EXPRESS/LHCb/COLLISION10/71815/071815_0000000280.raw'
p236
asI71816
(lp237
S'LFN:/lhcb/data/2010/RAW/EXPRESS/LHCb/COLLISION10/71816/071816_0000000001.raw'
p238
aS'LFN:/lhcb/data/2010/RAW/EXPRESS/LHCb/COLLISION10/71816/071816_0000000173.raw'
p239
aS'LFN:/lhcb/data/2010/RAW/EXPRESS/LHCb/COLLISION10/71816/071816_0000000326.raw'
p240
aS'LFN:/lhcb/data/2010/RAW/EXPRESS/LHCb/COLLISION10/71816/071816_0000000117.raw'
p241
aS'LFN:/lhcb/data/2010/RAW/EXPRESS/LHCb/COLLISION10/71816/071816_0000000055.raw'
p242
aS'LFN:/lhcb/data/2010/RAW/EXPRESS/LHCb/COLLISION10/71816/071816_0000000227.raw'
p243
aS'LFN:/lhcb/data/2010/RAW/EXPRESS/LHCb/COLLISION10/71816/071816_0000000278.raw'
p244
asI72329
(lp245
S'LFN:/lhcb/data/2010/RAW/EXPRESS/LHCb/COLLISION10/72329/072329_0000000102.raw'
p246
aS'LFN:/lhcb/data/2010/RAW/EXPRESS/LHCb/COLLISION10/72329/072329_0000000172.raw'
p247
aS'LFN:/lhcb/data/2010/RAW/EXPRESS/LHCb/COLLISION10/72329/072329_0000000207.raw'
p248
aS'LFN:/lhcb/data/2010/RAW/EXPRESS/LHCb/COLLISION10/72329/072329_0000000083.raw'
p249
aS'LFN:/lhcb/data/2010/RAW/EXPRESS/LHCb/COLLISION10/72329/072329_0000000138.raw'
p250
aS'LFN:/lhcb/data/2010/RAW/EXPRESS/LHCb/COLLISION10/72329/072329_0000000001.raw'
p251
aS'LFN:/lhcb/data/2010/RAW/EXPRESS/LHCb/COLLISION10/72329/072329_0000000024.raw'
p252
aS'LFN:/lhcb/data/2010/RAW/EXPRESS/LHCb/COLLISION10/72329/072329_0000000064.raw'
p253
aS'LFN:/lhcb/data/2010/RAW/EXPRESS/LHCb/COLLISION10/72329/072329_0000000045.raw'
p254
aS'LFN:/lhcb/data/2010/RAW/EXPRESS/LHCb/COLLISION10/72329/072329_0000000120.raw'
p255
aS'LFN:/lhcb/data/2010/RAW/EXPRESS/LHCb/COLLISION10/72329/072329_0000000155.raw'
p256
aS'LFN:/lhcb/data/2010/RAW/EXPRESS/LHCb/COLLISION10/72329/072329_0000000190.raw'
p257
asI72330
(lp258
S'LFN:/lhcb/data/2010/RAW/EXPRESS/LHCb/COLLISION10/72330/072330_0000000001.raw'
p259
aS'LFN:/lhcb/data/2010/RAW/EXPRESS/LHCb/COLLISION10/72330/072330_0000000186.raw'
p260
aS'LFN:/lhcb/data/2010/RAW/EXPRESS/LHCb/COLLISION10/72330/072330_0000000045.raw'
p261
aS'LFN:/lhcb/data/2010/RAW/EXPRESS/LHCb/COLLISION10/72330/072330_0000000100.raw'
p262
aS'LFN:/lhcb/data/2010/RAW/EXPRESS/LHCb/COLLISION10/72330/072330_0000000135.raw'
p263
aS'LFN:/lhcb/data/2010/RAW/EXPRESS/LHCb/COLLISION10/72330/072330_0000000170.raw'
p264
aS'LFN:/lhcb/data/2010/RAW/EXPRESS/LHCb/COLLISION10/72330/072330_0000000118.raw'
p265
aS'LFN:/lhcb/data/2010/RAW/EXPRESS/LHCb/COLLISION10/72330/072330_0000000082.raw'
p266
aS'LFN:/lhcb/data/2010/RAW/EXPRESS/LHCb/COLLISION10/72330/072330_0000000152.raw'
p267
aS'LFN:/lhcb/data/2010/RAW/EXPRESS/LHCb/COLLISION10/72330/072330_0000000024.raw'
p268
aS'LFN:/lhcb/data/2010/RAW/EXPRESS/LHCb/COLLISION10/72330/072330_0000000064.raw'
p269
asI72331
(lp270
S'LFN:/lhcb/data/2010/RAW/EXPRESS/LHCb/COLLISION10/72331/072331_0000000045.raw'
p271
aS'LFN:/lhcb/data/2010/RAW/EXPRESS/LHCb/COLLISION10/72331/072331_0000000001.raw'
p272
aS'LFN:/lhcb/data/2010/RAW/EXPRESS/LHCb/COLLISION10/72331/072331_0000000024.raw'
p273
asI71857
(lp274
S'LFN:/lhcb/data/2010/RAW/EXPRESS/LHCb/COLLISION10/71857/071857_0000000159.raw'
p275
aS'LFN:/lhcb/data/2010/RAW/EXPRESS/LHCb/COLLISION10/71857/071857_0000000129.raw'
p276
aS'LFN:/lhcb/data/2010/RAW/EXPRESS/LHCb/COLLISION10/71857/071857_0000000064.raw'
p277
aS'LFN:/lhcb/data/2010/RAW/EXPRESS/LHCb/COLLISION10/71857/071857_0000000304.raw'
p278
aS'LFN:/lhcb/data/2010/RAW/EXPRESS/LHCb/COLLISION10/71857/071857_0000000190.raw'
p279
aS'LFN:/lhcb/data/2010/RAW/EXPRESS/LHCb/COLLISION10/71857/071857_0000000220.raw'
p280
aS'LFN:/lhcb/data/2010/RAW/EXPRESS/LHCb/COLLISION10/71857/071857_0000000097.raw'
p281
aS'LFN:/lhcb/data/2010/RAW/EXPRESS/LHCb/COLLISION10/71857/071857_0000000277.raw'
p282
aS'LFN:/lhcb/data/2010/RAW/EXPRESS/LHCb/COLLISION10/71857/071857_0000000026.raw'
p283
aS'LFN:/lhcb/data/2010/RAW/EXPRESS/LHCb/COLLISION10/71857/071857_0000000248.raw'
p284
aS'LFN:/lhcb/data/2010/RAW/EXPRESS/LHCb/COLLISION10/71857/071857_0000000002.raw'
p285
asI71859
(lp286
S'LFN:/lhcb/data/2010/RAW/EXPRESS/LHCb/COLLISION10/71859/071859_0000000033.raw'
p287
aS'LFN:/lhcb/data/2010/RAW/EXPRESS/LHCb/COLLISION10/71859/071859_0000000102.raw'
p288
aS'LFN:/lhcb/data/2010/RAW/EXPRESS/LHCb/COLLISION10/71859/071859_0000000134.raw'
p289
aS'LFN:/lhcb/data/2010/RAW/EXPRESS/LHCb/COLLISION10/71859/071859_0000000070.raw'
p290
aS'LFN:/lhcb/data/2010/RAW/EXPRESS/LHCb/COLLISION10/71859/071859_0000000001.raw'
p291
asI71860
(lp292
S'LFN:/lhcb/data/2010/RAW/EXPRESS/LHCb/COLLISION10/71860/071860_0000000002.raw'
p293
aS'LFN:/lhcb/data/2010/RAW/EXPRESS/LHCb/COLLISION10/71860/071860_0000000164.raw'
p294
aS'LFN:/lhcb/data/2010/RAW/EXPRESS/LHCb/COLLISION10/71860/071860_0000000033.raw'
p295
aS'LFN:/lhcb/data/2010/RAW/EXPRESS/LHCb/COLLISION10/71860/071860_0000000103.raw'
p296
aS'LFN:/lhcb/data/2010/RAW/EXPRESS/LHCb/COLLISION10/71860/071860_0000000135.raw'
p297
aS'LFN:/lhcb/data/2010/RAW/EXPRESS/LHCb/COLLISION10/71860/071860_0000000070.raw'
p298
asI71861
(lp299
S'LFN:/lhcb/data/2010/RAW/EXPRESS/LHCb/COLLISION10/71861/071861_0000000069.raw'
p300
aS'LFN:/lhcb/data/2010/RAW/EXPRESS/LHCb/COLLISION10/71861/071861_0000000133.raw'
p301
aS'LFN:/lhcb/data/2010/RAW/EXPRESS/LHCb/COLLISION10/71861/071861_0000000101.raw'
p302
aS'LFN:/lhcb/data/2010/RAW/EXPRESS/LHCb/COLLISION10/71861/071861_0000000002.raw'
p303
aS'LFN:/lhcb/data/2010/RAW/EXPRESS/LHCb/COLLISION10/71861/071861_0000000032.raw'
p304
asI71862
(lp305
S'LFN:/lhcb/data/2010/RAW/EXPRESS/LHCb/COLLISION10/71862/071862_0000000068.raw'
p306
aS'LFN:/lhcb/data/2010/RAW/EXPRESS/LHCb/COLLISION10/71862/071862_0000000033.raw'
p307
aS'LFN:/lhcb/data/2010/RAW/EXPRESS/LHCb/COLLISION10/71862/071862_0000000100.raw'
p308
aS'LFN:/lhcb/data/2010/RAW/EXPRESS/LHCb/COLLISION10/71862/071862_0000000131.raw'
p309
aS'LFN:/lhcb/data/2010/RAW/EXPRESS/LHCb/COLLISION10/71862/071862_0000000002.raw'
p310
asI71863
(lp311
S'LFN:/lhcb/data/2010/RAW/EXPRESS/LHCb/COLLISION10/71863/071863_0000000100.raw'
p312
aS'LFN:/lhcb/data/2010/RAW/EXPRESS/LHCb/COLLISION10/71863/071863_0000000068.raw'
p313
aS'LFN:/lhcb/data/2010/RAW/EXPRESS/LHCb/COLLISION10/71863/071863_0000000032.raw'
p314
aS'LFN:/lhcb/data/2010/RAW/EXPRESS/LHCb/COLLISION10/71863/071863_0000000002.raw'
p315
asI71864
(lp316
S'LFN:/lhcb/data/2010/RAW/EXPRESS/LHCb/COLLISION10/71864/071864_0000000002.raw'
p317
asI71865
(lp318
S'LFN:/lhcb/data/2010/RAW/EXPRESS/LHCb/COLLISION10/71865/071865_0000000002.raw'
p319
asI71867
(lp320
S'LFN:/lhcb/data/2010/RAW/EXPRESS/LHCb/COLLISION10/71867/071867_0000000132.raw'
p321
aS'LFN:/lhcb/data/2010/RAW/EXPRESS/LHCb/COLLISION10/71867/071867_0000000002.raw'
p322
aS'LFN:/lhcb/data/2010/RAW/EXPRESS/LHCb/COLLISION10/71867/071867_0000000033.raw'
p323
aS'LFN:/lhcb/data/2010/RAW/EXPRESS/LHCb/COLLISION10/71867/071867_0000000069.raw'
p324
aS'LFN:/lhcb/data/2010/RAW/EXPRESS/LHCb/COLLISION10/71867/071867_0000000101.raw'
p325
asI71869
(lp326
S'LFN:/lhcb/data/2010/RAW/EXPRESS/LHCb/COLLISION10/71869/071869_0000000032.raw'
p327
aS'LFN:/lhcb/data/2010/RAW/EXPRESS/LHCb/COLLISION10/71869/071869_0000000001.raw'
p328
asI71871
(lp329
S'LFN:/lhcb/data/2010/RAW/EXPRESS/LHCb/COLLISION10/71871/071871_0000000002.raw'
p330
asI71872
(lp331
S'LFN:/lhcb/data/2010/RAW/EXPRESS/LHCb/COLLISION10/71872/071872_0000000002.raw'
p332
asI71873
(lp333
S'LFN:/lhcb/data/2010/RAW/EXPRESS/LHCb/COLLISION10/71873/071873_0000000001.raw'
p334
asI71876
(lp335
S'LFN:/lhcb/data/2010/RAW/EXPRESS/LHCb/COLLISION10/71876/071876_0000000002.raw'
p336
asI71877
(lp337
S'LFN:/lhcb/data/2010/RAW/EXPRESS/LHCb/COLLISION10/71877/071877_0000000033.raw'
p338
aS'LFN:/lhcb/data/2010/RAW/EXPRESS/LHCb/COLLISION10/71877/071877_0000000101.raw'
p339
aS'LFN:/lhcb/data/2010/RAW/EXPRESS/LHCb/COLLISION10/71877/071877_0000000068.raw'
p340
aS'LFN:/lhcb/data/2010/RAW/EXPRESS/LHCb/COLLISION10/71877/071877_0000000163.raw'
p341
aS'LFN:/lhcb/data/2010/RAW/EXPRESS/LHCb/COLLISION10/71877/071877_0000000132.raw'
p342
aS'LFN:/lhcb/data/2010/RAW/EXPRESS/LHCb/COLLISION10/71877/071877_0000000002.raw'
p343
asI71878
(lp344
S'LFN:/lhcb/data/2010/RAW/EXPRESS/LHCb/COLLISION10/71878/071878_0000000032.raw'
p345
aS'LFN:/lhcb/data/2010/RAW/EXPRESS/LHCb/COLLISION10/71878/071878_0000000068.raw'
p346
aS'LFN:/lhcb/data/2010/RAW/EXPRESS/LHCb/COLLISION10/71878/071878_0000000100.raw'
p347
aS'LFN:/lhcb/data/2010/RAW/EXPRESS/LHCb/COLLISION10/71878/071878_0000000002.raw'
p348
asI71879
(lp349
S'LFN:/lhcb/data/2010/RAW/EXPRESS/LHCb/COLLISION10/71879/071879_0000000032.raw'
p350
aS'LFN:/lhcb/data/2010/RAW/EXPRESS/LHCb/COLLISION10/71879/071879_0000000001.raw'
p351
asI71880
(lp352
S'LFN:/lhcb/data/2010/RAW/EXPRESS/LHCb/COLLISION10/71880/071880_0000000001.raw'
p353
asI71881
(lp354
S'LFN:/lhcb/data/2010/RAW/EXPRESS/LHCb/COLLISION10/71881/071881_0000000131.raw'
p355
aS'LFN:/lhcb/data/2010/RAW/EXPRESS/LHCb/COLLISION10/71881/071881_0000000032.raw'
p356
aS'LFN:/lhcb/data/2010/RAW/EXPRESS/LHCb/COLLISION10/71881/071881_0000000068.raw'
p357
aS'LFN:/lhcb/data/2010/RAW/EXPRESS/LHCb/COLLISION10/71881/071881_0000000100.raw'
p358
aS'LFN:/lhcb/data/2010/RAW/EXPRESS/LHCb/COLLISION10/71881/071881_0000000001.raw'
p359
asI71882
(lp360
S'LFN:/lhcb/data/2010/RAW/EXPRESS/LHCb/COLLISION10/71882/071882_0000000100.raw'
p361
aS'LFN:/lhcb/data/2010/RAW/EXPRESS/LHCb/COLLISION10/71882/071882_0000000130.raw'
p362
aS'LFN:/lhcb/data/2010/RAW/EXPRESS/LHCb/COLLISION10/71882/071882_0000000190.raw'
p363
aS'LFN:/lhcb/data/2010/RAW/EXPRESS/LHCb/COLLISION10/71882/071882_0000000161.raw'
p364
aS'LFN:/lhcb/data/2010/RAW/EXPRESS/LHCb/COLLISION10/71882/071882_0000000067.raw'
p365
aS'LFN:/lhcb/data/2010/RAW/EXPRESS/LHCb/COLLISION10/71882/071882_0000000002.raw'
p366
aS'LFN:/lhcb/data/2010/RAW/EXPRESS/LHCb/COLLISION10/71882/071882_0000000032.raw'
p367
asI71883
(lp368
S'LFN:/lhcb/data/2010/RAW/EXPRESS/LHCb/COLLISION10/71883/071883_0000000032.raw'
p369
aS'LFN:/lhcb/data/2010/RAW/EXPRESS/LHCb/COLLISION10/71883/071883_0000000002.raw'
p370
asI71885
(lp371
S'LFN:/lhcb/data/2010/RAW/EXPRESS/LHCb/COLLISION10/71885/071885_0000000001.raw'
p372
aS'LFN:/lhcb/data/2010/RAW/EXPRESS/LHCb/COLLISION10/71885/071885_0000000033.raw'
p373
asI71886
(lp374
S'LFN:/lhcb/data/2010/RAW/EXPRESS/LHCb/COLLISION10/71886/071886_0000000002.raw'
p375
aS'LFN:/lhcb/data/2010/RAW/EXPRESS/LHCb/COLLISION10/71886/071886_0000000033.raw'
p376
aS'LFN:/lhcb/data/2010/RAW/EXPRESS/LHCb/COLLISION10/71886/071886_0000000069.raw'
p377
aS'LFN:/lhcb/data/2010/RAW/EXPRESS/LHCb/COLLISION10/71886/071886_0000000164.raw'
p378
aS'LFN:/lhcb/data/2010/RAW/EXPRESS/LHCb/COLLISION10/71886/071886_0000000102.raw'
p379
aS'LFN:/lhcb/data/2010/RAW/EXPRESS/LHCb/COLLISION10/71886/071886_0000000133.raw'
p380
asI71887
(lp381
S'LFN:/lhcb/data/2010/RAW/EXPRESS/LHCb/COLLISION10/71887/071887_0000000067.raw'
p382
aS'LFN:/lhcb/data/2010/RAW/EXPRESS/LHCb/COLLISION10/71887/071887_0000000100.raw'
p383
aS'LFN:/lhcb/data/2010/RAW/EXPRESS/LHCb/COLLISION10/71887/071887_0000000160.raw'
p384
aS'LFN:/lhcb/data/2010/RAW/EXPRESS/LHCb/COLLISION10/71887/071887_0000000131.raw'
p385
aS'LFN:/lhcb/data/2010/RAW/EXPRESS/LHCb/COLLISION10/71887/071887_0000000002.raw'
p386
aS'LFN:/lhcb/data/2010/RAW/EXPRESS/LHCb/COLLISION10/71887/071887_0000000032.raw'
p387
asI72405
(lp388
S'LFN:/lhcb/data/2010/RAW/EXPRESS/LHCb/COLLISION10/72405/072405_0000000001.raw'
p389
asI72406
(lp390
S'LFN:/lhcb/data/2010/RAW/EXPRESS/LHCb/COLLISION10/72406/072406_0000000001.raw'
p391
asI71919
(lp392
S'LFN:/lhcb/data/2010/RAW/EXPRESS/LHCb/COLLISION10/71919/071919_0000000086.raw'
p393
aS'LFN:/lhcb/data/2010/RAW/EXPRESS/LHCb/COLLISION10/71919/071919_0000000027.raw'
p394
aS'LFN:/lhcb/data/2010/RAW/EXPRESS/LHCb/COLLISION10/71919/071919_0000000162.raw'
p395
aS'LFN:/lhcb/data/2010/RAW/EXPRESS/LHCb/COLLISION10/71919/071919_0000000058.raw'
p396
aS'LFN:/lhcb/data/2010/RAW/EXPRESS/LHCb/COLLISION10/71919/071919_0000000135.raw'
p397
aS'LFN:/lhcb/data/2010/RAW/EXPRESS/LHCb/COLLISION10/71919/071919_0000000187.raw'
p398
aS'LFN:/lhcb/data/2010/RAW/EXPRESS/LHCb/COLLISION10/71919/071919_0000000215.raw'
p399
aS'LFN:/lhcb/data/2010/RAW/EXPRESS/LHCb/COLLISION10/71919/071919_0000000002.raw'
p400
aS'LFN:/lhcb/data/2010/RAW/EXPRESS/LHCb/COLLISION10/71919/071919_0000000242.raw'
p401
aS'LFN:/lhcb/data/2010/RAW/EXPRESS/LHCb/COLLISION10/71919/071919_0000000111.raw'
p402
asI71920
(lp403
S'LFN:/lhcb/data/2010/RAW/EXPRESS/LHCb/COLLISION10/71920/071920_0000000106.raw'
p404
aS'LFN:/lhcb/data/2010/RAW/EXPRESS/LHCb/COLLISION10/71920/071920_0000000286.raw'
p405
aS'LFN:/lhcb/data/2010/RAW/EXPRESS/LHCb/COLLISION10/71920/071920_0000000169.raw'
p406
aS'LFN:/lhcb/data/2010/RAW/EXPRESS/LHCb/COLLISION10/71920/071920_0000000199.raw'
p407
aS'LFN:/lhcb/data/2010/RAW/EXPRESS/LHCb/COLLISION10/71920/071920_0000000069.raw'
p408
aS'LFN:/lhcb/data/2010/RAW/EXPRESS/LHCb/COLLISION10/71920/071920_0000000002.raw'
p409
aS'LFN:/lhcb/data/2010/RAW/EXPRESS/LHCb/COLLISION10/71920/071920_0000000032.raw'
p410
aS'LFN:/lhcb/data/2010/RAW/EXPRESS/LHCb/COLLISION10/71920/071920_0000000138.raw'
p411
aS'LFN:/lhcb/data/2010/RAW/EXPRESS/LHCb/COLLISION10/71920/071920_0000000228.raw'
p412
aS'LFN:/lhcb/data/2010/RAW/EXPRESS/LHCb/COLLISION10/71920/071920_0000000257.raw'
p413
asI71921
(lp414
S'LFN:/lhcb/data/2010/RAW/EXPRESS/LHCb/COLLISION10/71921/071921_0000000279.raw'
p415
aS'LFN:/lhcb/data/2010/RAW/EXPRESS/LHCb/COLLISION10/71921/071921_0000000001.raw'
p416
aS'LFN:/lhcb/data/2010/RAW/EXPRESS/LHCb/COLLISION10/71921/071921_0000000068.raw'
p417
aS'LFN:/lhcb/data/2010/RAW/EXPRESS/LHCb/COLLISION10/71921/071921_0000000033.raw'
p418
aS'LFN:/lhcb/data/2010/RAW/EXPRESS/LHCb/COLLISION10/71921/071921_0000000221.raw'
p419
aS'LFN:/lhcb/data/2010/RAW/EXPRESS/LHCb/COLLISION10/71921/071921_0000000251.raw'
p420
aS'LFN:/lhcb/data/2010/RAW/EXPRESS/LHCb/COLLISION10/71921/071921_0000000102.raw'
p421
aS'LFN:/lhcb/data/2010/RAW/EXPRESS/LHCb/COLLISION10/71921/071921_0000000132.raw'
p422
aS'LFN:/lhcb/data/2010/RAW/EXPRESS/LHCb/COLLISION10/71921/071921_0000000162.raw'
p423
aS'LFN:/lhcb/data/2010/RAW/EXPRESS/LHCb/COLLISION10/71921/071921_0000000192.raw'
p424
asI71924
(lp425
S'LFN:/lhcb/data/2010/RAW/EXPRESS/LHCb/COLLISION10/71924/071924_0000000069.raw'
p426
aS'LFN:/lhcb/data/2010/RAW/EXPRESS/LHCb/COLLISION10/71924/071924_0000000001.raw'
p427
aS'LFN:/lhcb/data/2010/RAW/EXPRESS/LHCb/COLLISION10/71924/071924_0000000249.raw'
p428
aS'LFN:/lhcb/data/2010/RAW/EXPRESS/LHCb/COLLISION10/71924/071924_0000000032.raw'
p429
aS'LFN:/lhcb/data/2010/RAW/EXPRESS/LHCb/COLLISION10/71924/071924_0000000102.raw'
p430
aS'LFN:/lhcb/data/2010/RAW/EXPRESS/LHCb/COLLISION10/71924/071924_0000000132.raw'
p431
aS'LFN:/lhcb/data/2010/RAW/EXPRESS/LHCb/COLLISION10/71924/071924_0000000193.raw'
p432
aS'LFN:/lhcb/data/2010/RAW/EXPRESS/LHCb/COLLISION10/71924/071924_0000000220.raw'
p433
aS'LFN:/lhcb/data/2010/RAW/EXPRESS/LHCb/COLLISION10/71924/071924_0000000163.raw'
p434
asI71931
(lp435
S'LFN:/lhcb/data/2010/RAW/EXPRESS/LHCb/COLLISION10/71931/071931_0000000001.raw'
p436
aS'LFN:/lhcb/data/2010/RAW/EXPRESS/LHCb/COLLISION10/71931/071931_0000000032.raw'
p437
asI71958
(lp438
S'LFN:/lhcb/data/2010/RAW/EXPRESS/LHCb/COLLISION10/71958/071958_0000000030.raw'
p439
aS'LFN:/lhcb/data/2010/RAW/EXPRESS/LHCb/COLLISION10/71958/071958_0000000002.raw'
p440
aS'LFN:/lhcb/data/2010/RAW/EXPRESS/LHCb/COLLISION10/71958/071958_0000000013.raw'
p441
asI72325
(lp442
S'LFN:/lhcb/data/2010/RAW/EXPRESS/LHCb/COLLISION10/72325/072325_0000000001.raw'
p443
aS'LFN:/lhcb/data/2010/RAW/EXPRESS/LHCb/COLLISION10/72325/072325_0000000071.raw'
p444
aS'LFN:/lhcb/data/2010/RAW/EXPRESS/LHCb/COLLISION10/72325/072325_0000000024.raw'
p445
aS'LFN:/lhcb/data/2010/RAW/EXPRESS/LHCb/COLLISION10/72325/072325_0000000047.raw'
p446
asI72327
(lp447
S'LFN:/lhcb/data/2010/RAW/EXPRESS/LHCb/COLLISION10/72327/072327_0000000001.raw'
p448
aS'LFN:/lhcb/data/2010/RAW/EXPRESS/LHCb/COLLISION10/72327/072327_0000000026.raw'
p449
asI72328
(lp450
S'LFN:/lhcb/data/2010/RAW/EXPRESS/LHCb/COLLISION10/72328/072328_0000000027.raw'
p451
aS'LFN:/lhcb/data/2010/RAW/EXPRESS/LHCb/COLLISION10/72328/072328_0000000187.raw'
p452
aS'LFN:/lhcb/data/2010/RAW/EXPRESS/LHCb/COLLISION10/72328/072328_0000000001.raw'
p453
aS'LFN:/lhcb/data/2010/RAW/EXPRESS/LHCb/COLLISION10/72328/072328_0000000071.raw'
p454
aS'LFN:/lhcb/data/2010/RAW/EXPRESS/LHCb/COLLISION10/72328/072328_0000000131.raw'
p455
aS'LFN:/lhcb/data/2010/RAW/EXPRESS/LHCb/COLLISION10/72328/072328_0000000241.raw'
p456
aS'LFN:/lhcb/data/2010/RAW/EXPRESS/LHCb/COLLISION10/72328/072328_0000000050.raw'
p457
aS'LFN:/lhcb/data/2010/RAW/EXPRESS/LHCb/COLLISION10/72328/072328_0000000090.raw'
p458
aS'LFN:/lhcb/data/2010/RAW/EXPRESS/LHCb/COLLISION10/72328/072328_0000000110.raw'
p459
aS'LFN:/lhcb/data/2010/RAW/EXPRESS/LHCb/COLLISION10/72328/072328_0000000150.raw'
p460
aS'LFN:/lhcb/data/2010/RAW/EXPRESS/LHCb/COLLISION10/72328/072328_0000000205.raw'
p461
aS'LFN:/lhcb/data/2010/RAW/EXPRESS/LHCb/COLLISION10/72328/072328_0000000168.raw'
p462
aS'LFN:/lhcb/data/2010/RAW/EXPRESS/LHCb/COLLISION10/72328/072328_0000000223.raw'
p463
asI71474
(lp464
S'LFN:/lhcb/data/2010/RAW/EXPRESS/LHCb/COLLISION10/71474/071474_0000000002.raw'
p465
aS'LFN:/lhcb/data/2010/RAW/EXPRESS/LHCb/COLLISION10/71474/071474_0000000026.raw'
p466
aS'LFN:/lhcb/data/2010/RAW/EXPRESS/LHCb/COLLISION10/71474/071474_0000000049.raw'
p467
aS'LFN:/lhcb/data/2010/RAW/EXPRESS/LHCb/COLLISION10/71474/071474_0000000069.raw'
p468
asI71476
(lp469
S'LFN:/lhcb/data/2010/RAW/EXPRESS/LHCb/COLLISION10/71476/071476_0000000292.raw'
p470
aS'LFN:/lhcb/data/2010/RAW/EXPRESS/LHCb/COLLISION10/71476/071476_0000000226.raw'
p471
aS'LFN:/lhcb/data/2010/RAW/EXPRESS/LHCb/COLLISION10/71476/071476_0000000208.raw'
p472
aS'LFN:/lhcb/data/2010/RAW/EXPRESS/LHCb/COLLISION10/71476/071476_0000000172.raw'
p473
aS'LFN:/lhcb/data/2010/RAW/EXPRESS/LHCb/COLLISION10/71476/071476_0000000134.raw'
p474
aS'LFN:/lhcb/data/2010/RAW/EXPRESS/LHCb/COLLISION10/71476/071476_0000000114.raw'
p475
aS'LFN:/lhcb/data/2010/RAW/EXPRESS/LHCb/COLLISION10/71476/071476_0000000094.raw'
p476
aS'LFN:/lhcb/data/2010/RAW/EXPRESS/LHCb/COLLISION10/71476/071476_0000000072.raw'
p477
aS'LFN:/lhcb/data/2010/RAW/EXPRESS/LHCb/COLLISION10/71476/071476_0000000050.raw'
p478
aS'LFN:/lhcb/data/2010/RAW/EXPRESS/LHCb/COLLISION10/71476/071476_0000000026.raw'
p479
aS'LFN:/lhcb/data/2010/RAW/EXPRESS/LHCb/COLLISION10/71476/071476_0000000275.raw'
p480
aS'LFN:/lhcb/data/2010/RAW/EXPRESS/LHCb/COLLISION10/71476/071476_0000000191.raw'
p481
aS'LFN:/lhcb/data/2010/RAW/EXPRESS/LHCb/COLLISION10/71476/071476_0000000257.raw'
p482
aS'LFN:/lhcb/data/2010/RAW/EXPRESS/LHCb/COLLISION10/71476/071476_0000000241.raw'
p483
aS'LFN:/lhcb/data/2010/RAW/EXPRESS/LHCb/COLLISION10/71476/071476_0000000153.raw'
p484
aS'LFN:/lhcb/data/2010/RAW/EXPRESS/LHCb/COLLISION10/71476/071476_0000000001.raw'
p485
asI71477
(lp486
S'LFN:/lhcb/data/2010/RAW/EXPRESS/LHCb/COLLISION10/71477/071477_0000000151.raw'
p487
aS'LFN:/lhcb/data/2010/RAW/EXPRESS/LHCb/COLLISION10/71477/071477_0000000071.raw'
p488
aS'LFN:/lhcb/data/2010/RAW/EXPRESS/LHCb/COLLISION10/71477/071477_0000000206.raw'
p489
aS'LFN:/lhcb/data/2010/RAW/EXPRESS/LHCb/COLLISION10/71477/071477_0000000002.raw'
p490
aS'LFN:/lhcb/data/2010/RAW/EXPRESS/LHCb/COLLISION10/71477/071477_0000000026.raw'
p491
aS'LFN:/lhcb/data/2010/RAW/EXPRESS/LHCb/COLLISION10/71477/071477_0000000050.raw'
p492
aS'LFN:/lhcb/data/2010/RAW/EXPRESS/LHCb/COLLISION10/71477/071477_0000000092.raw'
p493
aS'LFN:/lhcb/data/2010/RAW/EXPRESS/LHCb/COLLISION10/71477/071477_0000000113.raw'
p494
aS'LFN:/lhcb/data/2010/RAW/EXPRESS/LHCb/COLLISION10/71477/071477_0000000132.raw'
p495
aS'LFN:/lhcb/data/2010/RAW/EXPRESS/LHCb/COLLISION10/71477/071477_0000000169.raw'
p496
aS'LFN:/lhcb/data/2010/RAW/EXPRESS/LHCb/COLLISION10/71477/071477_0000000188.raw'
p497
asI71478
(lp498
S'LFN:/lhcb/data/2010/RAW/EXPRESS/LHCb/COLLISION10/71478/071478_0000000002.raw'
p499
aS'LFN:/lhcb/data/2010/RAW/EXPRESS/LHCb/COLLISION10/71478/071478_0000000025.raw'
p500
asI71479
(lp501
S'LFN:/lhcb/data/2010/RAW/EXPRESS/LHCb/COLLISION10/71479/071479_0000000001.raw'
p502
asI71481
(lp503
S'LFN:/lhcb/data/2010/RAW/EXPRESS/LHCb/COLLISION10/71481/071481_0000000001.raw'
p504
asI71485
(lp505
S'LFN:/lhcb/data/2010/RAW/EXPRESS/LHCb/COLLISION10/71485/071485_0000000024.raw'
p506
aS'LFN:/lhcb/data/2010/RAW/EXPRESS/LHCb/COLLISION10/71485/071485_0000000002.raw'
p507
aS'LFN:/lhcb/data/2010/RAW/EXPRESS/LHCb/COLLISION10/71485/071485_0000000047.raw'
p508
asI71486
(lp509
S'LFN:/lhcb/data/2010/RAW/EXPRESS/LHCb/COLLISION10/71486/071486_0000000084.raw'
p510
aS'LFN:/lhcb/data/2010/RAW/EXPRESS/LHCb/COLLISION10/71486/071486_0000000172.raw'
p511
aS'LFN:/lhcb/data/2010/RAW/EXPRESS/LHCb/COLLISION10/71486/071486_0000000102.raw'
p512
aS'LFN:/lhcb/data/2010/RAW/EXPRESS/LHCb/COLLISION10/71486/071486_0000000001.raw'
p513
aS'LFN:/lhcb/data/2010/RAW/EXPRESS/LHCb/COLLISION10/71486/071486_0000000023.raw'
p514
aS'LFN:/lhcb/data/2010/RAW/EXPRESS/LHCb/COLLISION10/71486/071486_0000000045.raw'
p515
aS'LFN:/lhcb/data/2010/RAW/EXPRESS/LHCb/COLLISION10/71486/071486_0000000065.raw'
p516
aS'LFN:/lhcb/data/2010/RAW/EXPRESS/LHCb/COLLISION10/71486/071486_0000000119.raw'
p517
aS'LFN:/lhcb/data/2010/RAW/EXPRESS/LHCb/COLLISION10/71486/071486_0000000137.raw'
p518
aS'LFN:/lhcb/data/2010/RAW/EXPRESS/LHCb/COLLISION10/71486/071486_0000000155.raw'
p519
asI71487
(lp520
S'LFN:/lhcb/data/2010/RAW/EXPRESS/LHCb/COLLISION10/71487/071487_0000000023.raw'
p521
aS'LFN:/lhcb/data/2010/RAW/EXPRESS/LHCb/COLLISION10/71487/071487_0000000063.raw'
p522
aS'LFN:/lhcb/data/2010/RAW/EXPRESS/LHCb/COLLISION10/71487/071487_0000000099.raw'
p523
aS'LFN:/lhcb/data/2010/RAW/EXPRESS/LHCb/COLLISION10/71487/071487_0000000002.raw'
p524
aS'LFN:/lhcb/data/2010/RAW/EXPRESS/LHCb/COLLISION10/71487/071487_0000000166.raw'
p525
aS'LFN:/lhcb/data/2010/RAW/EXPRESS/LHCb/COLLISION10/71487/071487_0000000182.raw'
p526
aS'LFN:/lhcb/data/2010/RAW/EXPRESS/LHCb/COLLISION10/71487/071487_0000000198.raw'
p527
aS'LFN:/lhcb/data/2010/RAW/EXPRESS/LHCb/COLLISION10/71487/071487_0000000044.raw'
p528
aS'LFN:/lhcb/data/2010/RAW/EXPRESS/LHCb/COLLISION10/71487/071487_0000000081.raw'
p529
aS'LFN:/lhcb/data/2010/RAW/EXPRESS/LHCb/COLLISION10/71487/071487_0000000116.raw'
p530
aS'LFN:/lhcb/data/2010/RAW/EXPRESS/LHCb/COLLISION10/71487/071487_0000000133.raw'
p531
aS'LFN:/lhcb/data/2010/RAW/EXPRESS/LHCb/COLLISION10/71487/071487_0000000149.raw'
p532
aS'LFN:/lhcb/data/2010/RAW/EXPRESS/LHCb/COLLISION10/71487/071487_0000000213.raw'
p533
aS'LFN:/lhcb/data/2010/RAW/EXPRESS/LHCb/COLLISION10/71487/071487_0000000229.raw'
p534
asI71488
(lp535
S'LFN:/lhcb/data/2010/RAW/EXPRESS/LHCb/COLLISION10/71488/071488_0000000002.raw'
p536
aS'LFN:/lhcb/data/2010/RAW/EXPRESS/LHCb/COLLISION10/71488/071488_0000000042.raw'
p537
aS'LFN:/lhcb/data/2010/RAW/EXPRESS/LHCb/COLLISION10/71488/071488_0000000078.raw'
p538
aS'LFN:/lhcb/data/2010/RAW/EXPRESS/LHCb/COLLISION10/71488/071488_0000000021.raw'
p539
aS'LFN:/lhcb/data/2010/RAW/EXPRESS/LHCb/COLLISION10/71488/071488_0000000060.raw'
p540
asI71489
(lp541
S'LFN:/lhcb/data/2010/RAW/EXPRESS/LHCb/COLLISION10/71489/071489_0000000021.raw'
p542
aS'LFN:/lhcb/data/2010/RAW/EXPRESS/LHCb/COLLISION10/71489/071489_0000000041.raw'
p543
aS'LFN:/lhcb/data/2010/RAW/EXPRESS/LHCb/COLLISION10/71489/071489_0000000129.raw'
p544
aS'LFN:/lhcb/data/2010/RAW/EXPRESS/LHCb/COLLISION10/71489/071489_0000000060.raw'
p545
aS'LFN:/lhcb/data/2010/RAW/EXPRESS/LHCb/COLLISION10/71489/071489_0000000096.raw'
p546
aS'LFN:/lhcb/data/2010/RAW/EXPRESS/LHCb/COLLISION10/71489/071489_0000000112.raw'
p547
aS'LFN:/lhcb/data/2010/RAW/EXPRESS/LHCb/COLLISION10/71489/071489_0000000002.raw'
p548
aS'LFN:/lhcb/data/2010/RAW/EXPRESS/LHCb/COLLISION10/71489/071489_0000000078.raw'
p549
asI71490
(lp550
S'LFN:/lhcb/data/2010/RAW/EXPRESS/LHCb/COLLISION10/71490/071490_0000000002.raw'
p551
asI71491
(lp552
S'LFN:/lhcb/data/2010/RAW/EXPRESS/LHCb/COLLISION10/71491/071491_0000000206.raw'
p553
aS'LFN:/lhcb/data/2010/RAW/EXPRESS/LHCb/COLLISION10/71491/071491_0000000190.raw'
p554
aS'LFN:/lhcb/data/2010/RAW/EXPRESS/LHCb/COLLISION10/71491/071491_0000000174.raw'
p555
aS'LFN:/lhcb/data/2010/RAW/EXPRESS/LHCb/COLLISION10/71491/071491_0000000159.raw'
p556
aS'LFN:/lhcb/data/2010/RAW/EXPRESS/LHCb/COLLISION10/71491/071491_0000000095.raw'
p557
aS'LFN:/lhcb/data/2010/RAW/EXPRESS/LHCb/COLLISION10/71491/071491_0000000078.raw'
p558
aS'LFN:/lhcb/data/2010/RAW/EXPRESS/LHCb/COLLISION10/71491/071491_0000000042.raw'
p559
aS'LFN:/lhcb/data/2010/RAW/EXPRESS/LHCb/COLLISION10/71491/071491_0000000022.raw'
p560
aS'LFN:/lhcb/data/2010/RAW/EXPRESS/LHCb/COLLISION10/71491/071491_0000000144.raw'
p561
aS'LFN:/lhcb/data/2010/RAW/EXPRESS/LHCb/COLLISION10/71491/071491_0000000128.raw'
p562
aS'LFN:/lhcb/data/2010/RAW/EXPRESS/LHCb/COLLISION10/71491/071491_0000000112.raw'
p563
aS'LFN:/lhcb/data/2010/RAW/EXPRESS/LHCb/COLLISION10/71491/071491_0000000060.raw'
p564
aS'LFN:/lhcb/data/2010/RAW/EXPRESS/LHCb/COLLISION10/71491/071491_0000000221.raw'
p565
aS'LFN:/lhcb/data/2010/RAW/EXPRESS/LHCb/COLLISION10/71491/071491_0000000001.raw'
p566
asI71492
(lp567
S'LFN:/lhcb/data/2010/RAW/EXPRESS/LHCb/COLLISION10/71492/071492_0000000075.raw'
p568
aS'LFN:/lhcb/data/2010/RAW/EXPRESS/LHCb/COLLISION10/71492/071492_0000000107.raw'
p569
aS'LFN:/lhcb/data/2010/RAW/EXPRESS/LHCb/COLLISION10/71492/071492_0000000123.raw'
p570
aS'LFN:/lhcb/data/2010/RAW/EXPRESS/LHCb/COLLISION10/71492/071492_0000000183.raw'
p571
aS'LFN:/lhcb/data/2010/RAW/EXPRESS/LHCb/COLLISION10/71492/071492_0000000211.raw'
p572
aS'LFN:/lhcb/data/2010/RAW/EXPRESS/LHCb/COLLISION10/71492/071492_0000000138.raw'
p573
aS'LFN:/lhcb/data/2010/RAW/EXPRESS/LHCb/COLLISION10/71492/071492_0000000002.raw'
p574
aS'LFN:/lhcb/data/2010/RAW/EXPRESS/LHCb/COLLISION10/71492/071492_0000000058.raw'
p575
aS'LFN:/lhcb/data/2010/RAW/EXPRESS/LHCb/COLLISION10/71492/071492_0000000021.raw'
p576
aS'LFN:/lhcb/data/2010/RAW/EXPRESS/LHCb/COLLISION10/71492/071492_0000000040.raw'
p577
aS'LFN:/lhcb/data/2010/RAW/EXPRESS/LHCb/COLLISION10/71492/071492_0000000092.raw'
p578
aS'LFN:/lhcb/data/2010/RAW/EXPRESS/LHCb/COLLISION10/71492/071492_0000000153.raw'
p579
aS'LFN:/lhcb/data/2010/RAW/EXPRESS/LHCb/COLLISION10/71492/071492_0000000168.raw'
p580
aS'LFN:/lhcb/data/2010/RAW/EXPRESS/LHCb/COLLISION10/71492/071492_0000000197.raw'
p581
asI71493
(lp582
S'LFN:/lhcb/data/2010/RAW/EXPRESS/LHCb/COLLISION10/71493/071493_0000000001.raw'
p583
aS'LFN:/lhcb/data/2010/RAW/EXPRESS/LHCb/COLLISION10/71493/071493_0000000021.raw'
p584
aS'LFN:/lhcb/data/2010/RAW/EXPRESS/LHCb/COLLISION10/71493/071493_0000000057.raw'
p585
aS'LFN:/lhcb/data/2010/RAW/EXPRESS/LHCb/COLLISION10/71493/071493_0000000073.raw'
p586
aS'LFN:/lhcb/data/2010/RAW/EXPRESS/LHCb/COLLISION10/71493/071493_0000000089.raw'
p587
aS'LFN:/lhcb/data/2010/RAW/EXPRESS/LHCb/COLLISION10/71493/071493_0000000133.raw'
p588
aS'LFN:/lhcb/data/2010/RAW/EXPRESS/LHCb/COLLISION10/71493/071493_0000000161.raw'
p589
aS'LFN:/lhcb/data/2010/RAW/EXPRESS/LHCb/COLLISION10/71493/071493_0000000040.raw'
p590
aS'LFN:/lhcb/data/2010/RAW/EXPRESS/LHCb/COLLISION10/71493/071493_0000000104.raw'
p591
aS'LFN:/lhcb/data/2010/RAW/EXPRESS/LHCb/COLLISION10/71493/071493_0000000204.raw'
p592
aS'LFN:/lhcb/data/2010/RAW/EXPRESS/LHCb/COLLISION10/71493/071493_0000000119.raw'
p593
aS'LFN:/lhcb/data/2010/RAW/EXPRESS/LHCb/COLLISION10/71493/071493_0000000147.raw'
p594
aS'LFN:/lhcb/data/2010/RAW/EXPRESS/LHCb/COLLISION10/71493/071493_0000000175.raw'
p595
aS'LFN:/lhcb/data/2010/RAW/EXPRESS/LHCb/COLLISION10/71493/071493_0000000190.raw'
p596
asI71494
(lp597
S'LFN:/lhcb/data/2010/RAW/EXPRESS/LHCb/COLLISION10/71494/071494_0000000002.raw'
p598
aS'LFN:/lhcb/data/2010/RAW/EXPRESS/LHCb/COLLISION10/71494/071494_0000000020.raw'
p599
asI72020
(lp600
S'LFN:/lhcb/data/2010/RAW/EXPRESS/LHCb/COLLISION10/72020/072020_0000000012.raw'
p601
aS'LFN:/lhcb/data/2010/RAW/EXPRESS/LHCb/COLLISION10/72020/072020_0000000002.raw'
p602
asI72021
(lp603
S'LFN:/lhcb/data/2010/RAW/EXPRESS/LHCb/COLLISION10/72021/072021_0000000001.raw'
p604
aS'LFN:/lhcb/data/2010/RAW/EXPRESS/LHCb/COLLISION10/72021/072021_0000000036.raw'
p605
aS'LFN:/lhcb/data/2010/RAW/EXPRESS/LHCb/COLLISION10/72021/072021_0000000018.raw'
p606
asI71525
(lp607
S'LFN:/lhcb/data/2010/RAW/EXPRESS/LHCb/COLLISION10/71525/071525_0000000001.raw'
p608
aS'LFN:/lhcb/data/2010/RAW/EXPRESS/LHCb/COLLISION10/71525/071525_0000000105.raw'
p609
aS'LFN:/lhcb/data/2010/RAW/EXPRESS/LHCb/COLLISION10/71525/071525_0000000201.raw'
p610
aS'LFN:/lhcb/data/2010/RAW/EXPRESS/LHCb/COLLISION10/71525/071525_0000000034.raw'
p611
aS'LFN:/lhcb/data/2010/RAW/EXPRESS/LHCb/COLLISION10/71525/071525_0000000070.raw'
p612
aS'LFN:/lhcb/data/2010/RAW/EXPRESS/LHCb/COLLISION10/71525/071525_0000000138.raw'
p613
aS'LFN:/lhcb/data/2010/RAW/EXPRESS/LHCb/COLLISION10/71525/071525_0000000170.raw'
p614
aS'LFN:/lhcb/data/2010/RAW/EXPRESS/LHCb/COLLISION10/71525/071525_0000000231.raw'
p615
asI71526
(lp616
S'LFN:/lhcb/data/2010/RAW/EXPRESS/LHCb/COLLISION10/71526/071526_0000000191.raw'
p617
aS'LFN:/lhcb/data/2010/RAW/EXPRESS/LHCb/COLLISION10/71526/071526_0000000132.raw'
p618
aS'LFN:/lhcb/data/2010/RAW/EXPRESS/LHCb/COLLISION10/71526/071526_0000000002.raw'
p619
aS'LFN:/lhcb/data/2010/RAW/EXPRESS/LHCb/COLLISION10/71526/071526_0000000033.raw'
p620
aS'LFN:/lhcb/data/2010/RAW/EXPRESS/LHCb/COLLISION10/71526/071526_0000000069.raw'
p621
aS'LFN:/lhcb/data/2010/RAW/EXPRESS/LHCb/COLLISION10/71526/071526_0000000101.raw'
p622
aS'LFN:/lhcb/data/2010/RAW/EXPRESS/LHCb/COLLISION10/71526/071526_0000000162.raw'
p623
aS'LFN:/lhcb/data/2010/RAW/EXPRESS/LHCb/COLLISION10/71526/071526_0000000218.raw'
p624
asI71527
(lp625
S'LFN:/lhcb/data/2010/RAW/EXPRESS/LHCb/COLLISION10/71527/071527_0000000203.raw'
p626
aS'LFN:/lhcb/data/2010/RAW/EXPRESS/LHCb/COLLISION10/71527/071527_0000000094.raw'
p627
aS'LFN:/lhcb/data/2010/RAW/EXPRESS/LHCb/COLLISION10/71527/071527_0000000030.raw'
p628
aS'LFN:/lhcb/data/2010/RAW/EXPRESS/LHCb/COLLISION10/71527/071527_0000000002.raw'
p629
aS'LFN:/lhcb/data/2010/RAW/EXPRESS/LHCb/COLLISION10/71527/071527_0000000177.raw'
p630
aS'LFN:/lhcb/data/2010/RAW/EXPRESS/LHCb/COLLISION10/71527/071527_0000000149.raw'
p631
aS'LFN:/lhcb/data/2010/RAW/EXPRESS/LHCb/COLLISION10/71527/071527_0000000121.raw'
p632
aS'LFN:/lhcb/data/2010/RAW/EXPRESS/LHCb/COLLISION10/71527/071527_0000000064.raw'
p633
asI71530
(lp634
S'LFN:/lhcb/data/2010/RAW/EXPRESS/LHCb/COLLISION10/71530/071530_0000000002.raw'
p635
asI71165
(lp636
S'LFN:/lhcb/data/2010/RAW/EXPRESS/LHCb/COLLISION10/71165/071165_0000000039.raw'
p637
aS'LFN:/lhcb/data/2010/RAW/EXPRESS/LHCb/COLLISION10/71165/071165_0000000002.raw'
p638
asI71166
(lp639
S'LFN:/lhcb/data/2010/RAW/EXPRESS/LHCb/COLLISION10/71166/071166_0000000001.raw'
p640
asI71167
(lp641
S'LFN:/lhcb/data/2010/RAW/EXPRESS/LHCb/COLLISION10/71167/071167_0000000035.raw'
p642
aS'LFN:/lhcb/data/2010/RAW/EXPRESS/LHCb/COLLISION10/71167/071167_0000000002.raw'
p643
as.