(dp0
I74368
(lp1
S'LFN:/lhcb/data/2010/RAW/EXPRESS/LHCb/COLLISION10/74368/074368_0000000001.raw'
p2
aS'LFN:/lhcb/data/2010/RAW/EXPRESS/LHCb/COLLISION10/74368/074368_0000000034.raw'
p3
aS'LFN:/lhcb/data/2010/RAW/EXPRESS/LHCb/COLLISION10/74368/074368_0000000008.raw'
p4
asI74465
(lp5
S'LFN:/lhcb/data/2010/RAW/EXPRESS/LHCb/COLLISION10/74465/074465_0000000044.raw'
p6
aS'LFN:/lhcb/data/2010/RAW/EXPRESS/LHCb/COLLISION10/74465/074465_0000000101.raw'
p7
aS'LFN:/lhcb/data/2010/RAW/EXPRESS/LHCb/COLLISION10/74465/074465_0000000152.raw'
p8
aS'LFN:/lhcb/data/2010/RAW/EXPRESS/LHCb/COLLISION10/74465/074465_0000000176.raw'
p9
aS'LFN:/lhcb/data/2010/RAW/EXPRESS/LHCb/COLLISION10/74465/074465_0000000224.raw'
p10
aS'LFN:/lhcb/data/2010/RAW/EXPRESS/LHCb/COLLISION10/74465/074465_0000000245.raw'
p11
aS'LFN:/lhcb/data/2010/RAW/EXPRESS/LHCb/COLLISION10/74465/074465_0000000073.raw'
p12
aS'LFN:/lhcb/data/2010/RAW/EXPRESS/LHCb/COLLISION10/74465/074465_0000000127.raw'
p13
aS'LFN:/lhcb/data/2010/RAW/EXPRESS/LHCb/COLLISION10/74465/074465_0000000001.raw'
p14
aS'LFN:/lhcb/data/2010/RAW/EXPRESS/LHCb/COLLISION10/74465/074465_0000000015.raw'
p15
aS'LFN:/lhcb/data/2010/RAW/EXPRESS/LHCb/COLLISION10/74465/074465_0000000201.raw'
p16
asI74380
(lp17
S'LFN:/lhcb/data/2010/RAW/EXPRESS/LHCb/COLLISION10/74380/074380_0000000008.raw'
p18
aS'LFN:/lhcb/data/2010/RAW/EXPRESS/LHCb/COLLISION10/74380/074380_0000000014.raw'
p19
aS'LFN:/lhcb/data/2010/RAW/EXPRESS/LHCb/COLLISION10/74380/074380_0000000020.raw'
p20
aS'LFN:/lhcb/data/2010/RAW/EXPRESS/LHCb/COLLISION10/74380/074380_0000000038.raw'
p21
aS'LFN:/lhcb/data/2010/RAW/EXPRESS/LHCb/COLLISION10/74380/074380_0000000044.raw'
p22
aS'LFN:/lhcb/data/2010/RAW/EXPRESS/LHCb/COLLISION10/74380/074380_0000000027.raw'
p23
aS'LFN:/lhcb/data/2010/RAW/EXPRESS/LHCb/COLLISION10/74380/074380_0000000033.raw'
p24
aS'LFN:/lhcb/data/2010/RAW/EXPRESS/LHCb/COLLISION10/74380/074380_0000000051.raw'
p25
aS'LFN:/lhcb/data/2010/RAW/EXPRESS/LHCb/COLLISION10/74380/074380_0000000057.raw'
p26
aS'LFN:/lhcb/data/2010/RAW/EXPRESS/LHCb/COLLISION10/74380/074380_0000000063.raw'
p27
aS'LFN:/lhcb/data/2010/RAW/EXPRESS/LHCb/COLLISION10/74380/074380_0000000075.raw'
p28
aS'LFN:/lhcb/data/2010/RAW/EXPRESS/LHCb/COLLISION10/74380/074380_0000000081.raw'
p29
aS'LFN:/lhcb/data/2010/RAW/EXPRESS/LHCb/COLLISION10/74380/074380_0000000001.raw'
p30
aS'LFN:/lhcb/data/2010/RAW/EXPRESS/LHCb/COLLISION10/74380/074380_0000000070.raw'
p31
aS'LFN:/lhcb/data/2010/RAW/EXPRESS/LHCb/COLLISION10/74380/074380_0000000088.raw'
p32
asI74467
(lp33
S'LFN:/lhcb/data/2010/RAW/EXPRESS/LHCb/COLLISION10/74467/074467_0000000001.raw'
p34
aS'LFN:/lhcb/data/2010/RAW/EXPRESS/LHCb/COLLISION10/74467/074467_0000000052.raw'
p35
aS'LFN:/lhcb/data/2010/RAW/EXPRESS/LHCb/COLLISION10/74467/074467_0000000064.raw'
p36
aS'LFN:/lhcb/data/2010/RAW/EXPRESS/LHCb/COLLISION10/74467/074467_0000000038.raw'
p37
aS'LFN:/lhcb/data/2010/RAW/EXPRESS/LHCb/COLLISION10/74467/074467_0000000012.raw'
p38
aS'LFN:/lhcb/data/2010/RAW/EXPRESS/LHCb/COLLISION10/74467/074467_0000000024.raw'
p39
aS'LFN:/lhcb/data/2010/RAW/EXPRESS/LHCb/COLLISION10/74467/074467_0000000078.raw'
p40
asI74375
(lp41
S'LFN:/lhcb/data/2010/RAW/EXPRESS/LHCb/COLLISION10/74375/074375_0000000010.raw'
p42
aS'LFN:/lhcb/data/2010/RAW/EXPRESS/LHCb/COLLISION10/74375/074375_0000000043.raw'
p43
aS'LFN:/lhcb/data/2010/RAW/EXPRESS/LHCb/COLLISION10/74375/074375_0000000055.raw'
p44
aS'LFN:/lhcb/data/2010/RAW/EXPRESS/LHCb/COLLISION10/74375/074375_0000000021.raw'
p45
aS'LFN:/lhcb/data/2010/RAW/EXPRESS/LHCb/COLLISION10/74375/074375_0000000033.raw'
p46
aS'LFN:/lhcb/data/2010/RAW/EXPRESS/LHCb/COLLISION10/74375/074375_0000000002.raw'
p47
aS'LFN:/lhcb/data/2010/RAW/EXPRESS/LHCb/COLLISION10/74375/074375_0000000065.raw'
p48
asI74376
(lp49
S'LFN:/lhcb/data/2010/RAW/EXPRESS/LHCb/COLLISION10/74376/074376_0000000021.raw'
p50
aS'LFN:/lhcb/data/2010/RAW/EXPRESS/LHCb/COLLISION10/74376/074376_0000000042.raw'
p51
aS'LFN:/lhcb/data/2010/RAW/EXPRESS/LHCb/COLLISION10/74376/074376_0000000063.raw'
p52
aS'LFN:/lhcb/data/2010/RAW/EXPRESS/LHCb/COLLISION10/74376/074376_0000000075.raw'
p53
aS'LFN:/lhcb/data/2010/RAW/EXPRESS/LHCb/COLLISION10/74376/074376_0000000084.raw'
p54
aS'LFN:/lhcb/data/2010/RAW/EXPRESS/LHCb/COLLISION10/74376/074376_0000000105.raw'
p55
aS'LFN:/lhcb/data/2010/RAW/EXPRESS/LHCb/COLLISION10/74376/074376_0000000126.raw'
p56
aS'LFN:/lhcb/data/2010/RAW/EXPRESS/LHCb/COLLISION10/74376/074376_0000000147.raw'
p57
aS'LFN:/lhcb/data/2010/RAW/EXPRESS/LHCb/COLLISION10/74376/074376_0000000153.raw'
p58
aS'LFN:/lhcb/data/2010/RAW/EXPRESS/LHCb/COLLISION10/74376/074376_0000000002.raw'
p59
aS'LFN:/lhcb/data/2010/RAW/EXPRESS/LHCb/COLLISION10/74376/074376_0000000032.raw'
p60
aS'LFN:/lhcb/data/2010/RAW/EXPRESS/LHCb/COLLISION10/74376/074376_0000000053.raw'
p61
aS'LFN:/lhcb/data/2010/RAW/EXPRESS/LHCb/COLLISION10/74376/074376_0000000095.raw'
p62
aS'LFN:/lhcb/data/2010/RAW/EXPRESS/LHCb/COLLISION10/74376/074376_0000000140.raw'
p63
aS'LFN:/lhcb/data/2010/RAW/EXPRESS/LHCb/COLLISION10/74376/074376_0000000010.raw'
p64
aS'LFN:/lhcb/data/2010/RAW/EXPRESS/LHCb/COLLISION10/74376/074376_0000000115.raw'
p65
aS'LFN:/lhcb/data/2010/RAW/EXPRESS/LHCb/COLLISION10/74376/074376_0000000133.raw'
p66
aS'LFN:/lhcb/data/2010/RAW/EXPRESS/LHCb/COLLISION10/74376/074376_0000000160.raw'
p67
asI74377
(lp68
S'LFN:/lhcb/data/2010/RAW/EXPRESS/LHCb/COLLISION10/74377/074377_0000000015.raw'
p69
aS'LFN:/lhcb/data/2010/RAW/EXPRESS/LHCb/COLLISION10/74377/074377_0000000021.raw'
p70
aS'LFN:/lhcb/data/2010/RAW/EXPRESS/LHCb/COLLISION10/74377/074377_0000000055.raw'
p71
aS'LFN:/lhcb/data/2010/RAW/EXPRESS/LHCb/COLLISION10/74377/074377_0000000061.raw'
p72
aS'LFN:/lhcb/data/2010/RAW/EXPRESS/LHCb/COLLISION10/74377/074377_0000000087.raw'
p73
aS'LFN:/lhcb/data/2010/RAW/EXPRESS/LHCb/COLLISION10/74377/074377_0000000100.raw'
p74
aS'LFN:/lhcb/data/2010/RAW/EXPRESS/LHCb/COLLISION10/74377/074377_0000000003.raw'
p75
aS'LFN:/lhcb/data/2010/RAW/EXPRESS/LHCb/COLLISION10/74377/074377_0000000008.raw'
p76
aS'LFN:/lhcb/data/2010/RAW/EXPRESS/LHCb/COLLISION10/74377/074377_0000000029.raw'
p77
aS'LFN:/lhcb/data/2010/RAW/EXPRESS/LHCb/COLLISION10/74377/074377_0000000035.raw'
p78
aS'LFN:/lhcb/data/2010/RAW/EXPRESS/LHCb/COLLISION10/74377/074377_0000000041.raw'
p79
aS'LFN:/lhcb/data/2010/RAW/EXPRESS/LHCb/COLLISION10/74377/074377_0000000067.raw'
p80
aS'LFN:/lhcb/data/2010/RAW/EXPRESS/LHCb/COLLISION10/74377/074377_0000000094.raw'
p81
aS'LFN:/lhcb/data/2010/RAW/EXPRESS/LHCb/COLLISION10/74377/074377_0000000048.raw'
p82
aS'LFN:/lhcb/data/2010/RAW/EXPRESS/LHCb/COLLISION10/74377/074377_0000000074.raw'
p83
aS'LFN:/lhcb/data/2010/RAW/EXPRESS/LHCb/COLLISION10/74377/074377_0000000080.raw'
p84
asI74378
(lp85
S'LFN:/lhcb/data/2010/RAW/EXPRESS/LHCb/COLLISION10/74378/074378_0000000008.raw'
p86
aS'LFN:/lhcb/data/2010/RAW/EXPRESS/LHCb/COLLISION10/74378/074378_0000000014.raw'
p87
aS'LFN:/lhcb/data/2010/RAW/EXPRESS/LHCb/COLLISION10/74378/074378_0000000020.raw'
p88
aS'LFN:/lhcb/data/2010/RAW/EXPRESS/LHCb/COLLISION10/74378/074378_0000000003.raw'
p89
aS'LFN:/lhcb/data/2010/RAW/EXPRESS/LHCb/COLLISION10/74378/074378_0000000028.raw'
p90
aS'LFN:/lhcb/data/2010/RAW/EXPRESS/LHCb/COLLISION10/74378/074378_0000000034.raw'
p91
aS'LFN:/lhcb/data/2010/RAW/EXPRESS/LHCb/COLLISION10/74378/074378_0000000040.raw'
p92
aS'LFN:/lhcb/data/2010/RAW/EXPRESS/LHCb/COLLISION10/74378/074378_0000000046.raw'
p93
aS'LFN:/lhcb/data/2010/RAW/EXPRESS/LHCb/COLLISION10/74378/074378_0000000052.raw'
p94
aS'LFN:/lhcb/data/2010/RAW/EXPRESS/LHCb/COLLISION10/74378/074378_0000000058.raw'
p95
aS'LFN:/lhcb/data/2010/RAW/EXPRESS/LHCb/COLLISION10/74378/074378_0000000064.raw'
p96
asI74379
(lp97
S'LFN:/lhcb/data/2010/RAW/EXPRESS/LHCb/COLLISION10/74379/074379_0000000015.raw'
p98
aS'LFN:/lhcb/data/2010/RAW/EXPRESS/LHCb/COLLISION10/74379/074379_0000000021.raw'
p99
aS'LFN:/lhcb/data/2010/RAW/EXPRESS/LHCb/COLLISION10/74379/074379_0000000039.raw'
p100
aS'LFN:/lhcb/data/2010/RAW/EXPRESS/LHCb/COLLISION10/74379/074379_0000000003.raw'
p101
aS'LFN:/lhcb/data/2010/RAW/EXPRESS/LHCb/COLLISION10/74379/074379_0000000028.raw'
p102
aS'LFN:/lhcb/data/2010/RAW/EXPRESS/LHCb/COLLISION10/74379/074379_0000000034.raw'
p103
aS'LFN:/lhcb/data/2010/RAW/EXPRESS/LHCb/COLLISION10/74379/074379_0000000046.raw'
p104
aS'LFN:/lhcb/data/2010/RAW/EXPRESS/LHCb/COLLISION10/74379/074379_0000000052.raw'
p105
aS'LFN:/lhcb/data/2010/RAW/EXPRESS/LHCb/COLLISION10/74379/074379_0000000058.raw'
p106
aS'LFN:/lhcb/data/2010/RAW/EXPRESS/LHCb/COLLISION10/74379/074379_0000000064.raw'
p107
aS'LFN:/lhcb/data/2010/RAW/EXPRESS/LHCb/COLLISION10/74379/074379_0000000008.raw'
p108
asI72908
(lp109
S'LFN:/lhcb/data/2010/RAW/EXPRESS/LHCb/COLLISION10/72908/072908_0000000059.raw'
p110
aS'LFN:/lhcb/data/2010/RAW/EXPRESS/LHCb/COLLISION10/72908/072908_0000000027.raw'
p111
aS'LFN:/lhcb/data/2010/RAW/EXPRESS/LHCb/COLLISION10/72908/072908_0000000036.raw'
p112
aS'LFN:/lhcb/data/2010/RAW/EXPRESS/LHCb/COLLISION10/72908/072908_0000000051.raw'
p113
aS'LFN:/lhcb/data/2010/RAW/EXPRESS/LHCb/COLLISION10/72908/072908_0000000001.raw'
p114
aS'LFN:/lhcb/data/2010/RAW/EXPRESS/LHCb/COLLISION10/72908/072908_0000000010.raw'
p115
aS'LFN:/lhcb/data/2010/RAW/EXPRESS/LHCb/COLLISION10/72908/072908_0000000019.raw'
p116
aS'LFN:/lhcb/data/2010/RAW/EXPRESS/LHCb/COLLISION10/72908/072908_0000000043.raw'
p117
aS'LFN:/lhcb/data/2010/RAW/EXPRESS/LHCb/COLLISION10/72908/072908_0000000067.raw'
p118
asI72909
(lp119
S'LFN:/lhcb/data/2010/RAW/EXPRESS/LHCb/COLLISION10/72909/072909_0000000010.raw'
p120
aS'LFN:/lhcb/data/2010/RAW/EXPRESS/LHCb/COLLISION10/72909/072909_0000000028.raw'
p121
aS'LFN:/lhcb/data/2010/RAW/EXPRESS/LHCb/COLLISION10/72909/072909_0000000002.raw'
p122
aS'LFN:/lhcb/data/2010/RAW/EXPRESS/LHCb/COLLISION10/72909/072909_0000000020.raw'
p123
asI74286
(lp124
S'LFN:/lhcb/data/2010/RAW/EXPRESS/LHCb/COLLISION10/74286/074286_0000000002.raw'
p125
aS'LFN:/lhcb/data/2010/RAW/EXPRESS/LHCb/COLLISION10/74286/074286_0000000032.raw'
p126
aS'LFN:/lhcb/data/2010/RAW/EXPRESS/LHCb/COLLISION10/74286/074286_0000000101.raw'
p127
aS'LFN:/lhcb/data/2010/RAW/EXPRESS/LHCb/COLLISION10/74286/074286_0000000061.raw'
p128
aS'LFN:/lhcb/data/2010/RAW/EXPRESS/LHCb/COLLISION10/74286/074286_0000000088.raw'
p129
aS'LFN:/lhcb/data/2010/RAW/EXPRESS/LHCb/COLLISION10/74286/074286_0000000115.raw'
p130
aS'LFN:/lhcb/data/2010/RAW/EXPRESS/LHCb/COLLISION10/74286/074286_0000000127.raw'
p131
aS'LFN:/lhcb/data/2010/RAW/EXPRESS/LHCb/COLLISION10/74286/074286_0000000015.raw'
p132
aS'LFN:/lhcb/data/2010/RAW/EXPRESS/LHCb/COLLISION10/74286/074286_0000000048.raw'
p133
aS'LFN:/lhcb/data/2010/RAW/EXPRESS/LHCb/COLLISION10/74286/074286_0000000075.raw'
p134
asI74381
(lp135
S'LFN:/lhcb/data/2010/RAW/EXPRESS/LHCb/COLLISION10/74381/074381_0000000019.raw'
p136
aS'LFN:/lhcb/data/2010/RAW/EXPRESS/LHCb/COLLISION10/74381/074381_0000000031.raw'
p137
aS'LFN:/lhcb/data/2010/RAW/EXPRESS/LHCb/COLLISION10/74381/074381_0000000008.raw'
p138
aS'LFN:/lhcb/data/2010/RAW/EXPRESS/LHCb/COLLISION10/74381/074381_0000000014.raw'
p139
aS'LFN:/lhcb/data/2010/RAW/EXPRESS/LHCb/COLLISION10/74381/074381_0000000026.raw'
p140
aS'LFN:/lhcb/data/2010/RAW/EXPRESS/LHCb/COLLISION10/74381/074381_0000000003.raw'
p141
asI74466
(lp142
S'LFN:/lhcb/data/2010/RAW/EXPRESS/LHCb/COLLISION10/74466/074466_0000000271.raw'
p143
aS'LFN:/lhcb/data/2010/RAW/EXPRESS/LHCb/COLLISION10/74466/074466_0000000298.raw'
p144
aS'LFN:/lhcb/data/2010/RAW/EXPRESS/LHCb/COLLISION10/74466/074466_0000000081.raw'
p145
aS'LFN:/lhcb/data/2010/RAW/EXPRESS/LHCb/COLLISION10/74466/074466_0000000151.raw'
p146
aS'LFN:/lhcb/data/2010/RAW/EXPRESS/LHCb/COLLISION10/74466/074466_0000000178.raw'
p147
aS'LFN:/lhcb/data/2010/RAW/EXPRESS/LHCb/COLLISION10/74466/074466_0000000205.raw'
p148
aS'LFN:/lhcb/data/2010/RAW/EXPRESS/LHCb/COLLISION10/74466/074466_0000000232.raw'
p149
aS'LFN:/lhcb/data/2010/RAW/EXPRESS/LHCb/COLLISION10/74466/074466_0000000037.raw'
p150
aS'LFN:/lhcb/data/2010/RAW/EXPRESS/LHCb/COLLISION10/74466/074466_0000000109.raw'
p151
aS'LFN:/lhcb/data/2010/RAW/EXPRESS/LHCb/COLLISION10/74466/074466_0000000123.raw'
p152
aS'LFN:/lhcb/data/2010/RAW/EXPRESS/LHCb/COLLISION10/74466/074466_0000000246.raw'
p153
aS'LFN:/lhcb/data/2010/RAW/EXPRESS/LHCb/COLLISION10/74466/074466_0000000258.raw'
p154
aS'LFN:/lhcb/data/2010/RAW/EXPRESS/LHCb/COLLISION10/74466/074466_0000000218.raw'
p155
aS'LFN:/lhcb/data/2010/RAW/EXPRESS/LHCb/COLLISION10/74466/074466_0000000284.raw'
p156
aS'LFN:/lhcb/data/2010/RAW/EXPRESS/LHCb/COLLISION10/74466/074466_0000000002.raw'
p157
aS'LFN:/lhcb/data/2010/RAW/EXPRESS/LHCb/COLLISION10/74466/074466_0000000014.raw'
p158
aS'LFN:/lhcb/data/2010/RAW/EXPRESS/LHCb/COLLISION10/74466/074466_0000000059.raw'
p159
aS'LFN:/lhcb/data/2010/RAW/EXPRESS/LHCb/COLLISION10/74466/074466_0000000095.raw'
p160
aS'LFN:/lhcb/data/2010/RAW/EXPRESS/LHCb/COLLISION10/74466/074466_0000000137.raw'
p161
aS'LFN:/lhcb/data/2010/RAW/EXPRESS/LHCb/COLLISION10/74466/074466_0000000164.raw'
p162
aS'LFN:/lhcb/data/2010/RAW/EXPRESS/LHCb/COLLISION10/74466/074466_0000000191.raw'
p163
asI74364
(lp164
S'LFN:/lhcb/data/2010/RAW/EXPRESS/LHCb/COLLISION10/74364/074364_0000000017.raw'
p165
aS'LFN:/lhcb/data/2010/RAW/EXPRESS/LHCb/COLLISION10/74364/074364_0000000050.raw'
p166
aS'LFN:/lhcb/data/2010/RAW/EXPRESS/LHCb/COLLISION10/74364/074364_0000000001.raw'
p167
asI74367
(lp168
S'LFN:/lhcb/data/2010/RAW/EXPRESS/LHCb/COLLISION10/74367/074367_0000000015.raw'
p169
aS'LFN:/lhcb/data/2010/RAW/EXPRESS/LHCb/COLLISION10/74367/074367_0000000066.raw'
p170
aS'LFN:/lhcb/data/2010/RAW/EXPRESS/LHCb/COLLISION10/74367/074367_0000000001.raw'
p171
aS'LFN:/lhcb/data/2010/RAW/EXPRESS/LHCb/COLLISION10/74367/074367_0000000043.raw'
p172
aS'LFN:/lhcb/data/2010/RAW/EXPRESS/LHCb/COLLISION10/74367/074367_0000000088.raw'
p173
aS'LFN:/lhcb/data/2010/RAW/EXPRESS/LHCb/COLLISION10/74367/074367_0000000109.raw'
p174
as.