(dp0
I79877
(lp1
S'LFN:/lhcb/data/2010/RAW/EXPRESS/LHCb/COLLISION10/79877/079877_0000000161.raw'
p2
aS'LFN:/lhcb/data/2010/RAW/EXPRESS/LHCb/COLLISION10/79877/079877_0000000007.raw'
p3
aS'LFN:/lhcb/data/2010/RAW/EXPRESS/LHCb/COLLISION10/79877/079877_0000000002.raw'
p4
aS'LFN:/lhcb/data/2010/RAW/EXPRESS/LHCb/COLLISION10/79877/079877_0000000197.raw'
p5
aS'LFN:/lhcb/data/2010/RAW/EXPRESS/LHCb/COLLISION10/79877/079877_0000000048.raw'
p6
aS'LFN:/lhcb/data/2010/RAW/EXPRESS/LHCb/COLLISION10/79877/079877_0000000089.raw'
p7
aS'LFN:/lhcb/data/2010/RAW/EXPRESS/LHCb/COLLISION10/79877/079877_0000000127.raw'
p8
asI79878
(lp9
S'LFN:/lhcb/data/2010/RAW/EXPRESS/LHCb/COLLISION10/79878/079878_0000000007.raw'
p10
aS'LFN:/lhcb/data/2010/RAW/EXPRESS/LHCb/COLLISION10/79878/079878_0000000189.raw'
p11
aS'LFN:/lhcb/data/2010/RAW/EXPRESS/LHCb/COLLISION10/79878/079878_0000000119.raw'
p12
aS'LFN:/lhcb/data/2010/RAW/EXPRESS/LHCb/COLLISION10/79878/079878_0000000044.raw'
p13
aS'LFN:/lhcb/data/2010/RAW/EXPRESS/LHCb/COLLISION10/79878/079878_0000000081.raw'
p14
aS'LFN:/lhcb/data/2010/RAW/EXPRESS/LHCb/COLLISION10/79878/079878_0000000156.raw'
p15
aS'LFN:/lhcb/data/2010/RAW/EXPRESS/LHCb/COLLISION10/79878/079878_0000000004.raw'
p16
asI79879
(lp17
S'LFN:/lhcb/data/2010/RAW/EXPRESS/LHCb/COLLISION10/79879/079879_0000000181.raw'
p18
aS'LFN:/lhcb/data/2010/RAW/EXPRESS/LHCb/COLLISION10/79879/079879_0000000044.raw'
p19
aS'LFN:/lhcb/data/2010/RAW/EXPRESS/LHCb/COLLISION10/79879/079879_0000000148.raw'
p20
aS'LFN:/lhcb/data/2010/RAW/EXPRESS/LHCb/COLLISION10/79879/079879_0000000081.raw'
p21
aS'LFN:/lhcb/data/2010/RAW/EXPRESS/LHCb/COLLISION10/79879/079879_0000000007.raw'
p22
aS'LFN:/lhcb/data/2010/RAW/EXPRESS/LHCb/COLLISION10/79879/079879_0000000115.raw'
p23
aS'LFN:/lhcb/data/2010/RAW/EXPRESS/LHCb/COLLISION10/79879/079879_0000000002.raw'
p24
asI79880
(lp25
S'LFN:/lhcb/data/2010/RAW/EXPRESS/LHCb/COLLISION10/79880/079880_0000000077.raw'
p26
aS'LFN:/lhcb/data/2010/RAW/EXPRESS/LHCb/COLLISION10/79880/079880_0000000142.raw'
p27
aS'LFN:/lhcb/data/2010/RAW/EXPRESS/LHCb/COLLISION10/79880/079880_0000000007.raw'
p28
aS'LFN:/lhcb/data/2010/RAW/EXPRESS/LHCb/COLLISION10/79880/079880_0000000110.raw'
p29
aS'LFN:/lhcb/data/2010/RAW/EXPRESS/LHCb/COLLISION10/79880/079880_0000000003.raw'
p30
aS'LFN:/lhcb/data/2010/RAW/EXPRESS/LHCb/COLLISION10/79880/079880_0000000042.raw'
p31
aS'LFN:/lhcb/data/2010/RAW/EXPRESS/LHCb/COLLISION10/79880/079880_0000000173.raw'
p32
asI79881
(lp33
S'LFN:/lhcb/data/2010/RAW/EXPRESS/LHCb/COLLISION10/79881/079881_0000000106.raw'
p34
aS'LFN:/lhcb/data/2010/RAW/EXPRESS/LHCb/COLLISION10/79881/079881_0000000165.raw'
p35
aS'LFN:/lhcb/data/2010/RAW/EXPRESS/LHCb/COLLISION10/79881/079881_0000000006.raw'
p36
aS'LFN:/lhcb/data/2010/RAW/EXPRESS/LHCb/COLLISION10/79881/079881_0000000136.raw'
p37
aS'LFN:/lhcb/data/2010/RAW/EXPRESS/LHCb/COLLISION10/79881/079881_0000000040.raw'
p38
aS'LFN:/lhcb/data/2010/RAW/EXPRESS/LHCb/COLLISION10/79881/079881_0000000073.raw'
p39
aS'LFN:/lhcb/data/2010/RAW/EXPRESS/LHCb/COLLISION10/79881/079881_0000000007.raw'
p40
asI79882
(lp41
S'LFN:/lhcb/data/2010/RAW/EXPRESS/LHCb/COLLISION10/79882/079882_0000000073.raw'
p42
aS'LFN:/lhcb/data/2010/RAW/EXPRESS/LHCb/COLLISION10/79882/079882_0000000040.raw'
p43
aS'LFN:/lhcb/data/2010/RAW/EXPRESS/LHCb/COLLISION10/79882/079882_0000000157.raw'
p44
aS'LFN:/lhcb/data/2010/RAW/EXPRESS/LHCb/COLLISION10/79882/079882_0000000007.raw'
p45
aS'LFN:/lhcb/data/2010/RAW/EXPRESS/LHCb/COLLISION10/79882/079882_0000000132.raw'
p46
aS'LFN:/lhcb/data/2010/RAW/EXPRESS/LHCb/COLLISION10/79882/079882_0000000102.raw'
p47
aS'LFN:/lhcb/data/2010/RAW/EXPRESS/LHCb/COLLISION10/79882/079882_0000000003.raw'
p48
asI79883
(lp49
S'LFN:/lhcb/data/2010/RAW/EXPRESS/LHCb/COLLISION10/79883/079883_0000000007.raw'
p50
aS'LFN:/lhcb/data/2010/RAW/EXPRESS/LHCb/COLLISION10/79883/079883_0000000002.raw'
p51
aS'LFN:/lhcb/data/2010/RAW/EXPRESS/LHCb/COLLISION10/79883/079883_0000000040.raw'
p52
asI79884
(lp53
S'LFN:/lhcb/data/2010/RAW/EXPRESS/LHCb/COLLISION10/79884/079884_0000000002.raw'
p54
aS'LFN:/lhcb/data/2010/RAW/EXPRESS/LHCb/COLLISION10/79884/079884_0000000056.raw'
p55
aS'LFN:/lhcb/data/2010/RAW/EXPRESS/LHCb/COLLISION10/79884/079884_0000000097.raw'
p56
aS'LFN:/lhcb/data/2010/RAW/EXPRESS/LHCb/COLLISION10/79884/079884_0000000180.raw'
p57
aS'LFN:/lhcb/data/2010/RAW/EXPRESS/LHCb/COLLISION10/79884/079884_0000000139.raw'
p58
aS'LFN:/lhcb/data/2010/RAW/EXPRESS/LHCb/COLLISION10/79884/079884_0000000007.raw'
p59
asI79885
(lp60
S'LFN:/lhcb/data/2010/RAW/EXPRESS/LHCb/COLLISION10/79885/079885_0000000052.raw'
p61
aS'LFN:/lhcb/data/2010/RAW/EXPRESS/LHCb/COLLISION10/79885/079885_0000000093.raw'
p62
aS'LFN:/lhcb/data/2010/RAW/EXPRESS/LHCb/COLLISION10/79885/079885_0000000001.raw'
p63
aS'LFN:/lhcb/data/2010/RAW/EXPRESS/LHCb/COLLISION10/79885/079885_0000000131.raw'
p64
aS'LFN:/lhcb/data/2010/RAW/EXPRESS/LHCb/COLLISION10/79885/079885_0000000007.raw'
p65
aS'LFN:/lhcb/data/2010/RAW/EXPRESS/LHCb/COLLISION10/79885/079885_0000000205.raw'
p66
aS'LFN:/lhcb/data/2010/RAW/EXPRESS/LHCb/COLLISION10/79885/079885_0000000168.raw'
p67
asI79886
(lp68
S'LFN:/lhcb/data/2010/RAW/EXPRESS/LHCb/COLLISION10/79886/079886_0000000052.raw'
p69
aS'LFN:/lhcb/data/2010/RAW/EXPRESS/LHCb/COLLISION10/79886/079886_0000000002.raw'
p70
aS'LFN:/lhcb/data/2010/RAW/EXPRESS/LHCb/COLLISION10/79886/079886_0000000007.raw'
p71
asI78864
(lp72
S'LFN:/lhcb/data/2010/RAW/EXPRESS/LHCb/COLLISION10/78864/078864_0000000007.raw'
p73
asI79892
(lp74
S'LFN:/lhcb/data/2010/RAW/EXPRESS/LHCb/COLLISION10/79892/079892_0000000006.raw'
p75
asI79893
(lp76
S'LFN:/lhcb/data/2010/RAW/EXPRESS/LHCb/COLLISION10/79893/079893_0000000006.raw'
p77
asI79571
(lp78
S'LFN:/lhcb/data/2010/RAW/EXPRESS/LHCb/COLLISION10/79571/079571_0000000067.raw'
p79
aS'LFN:/lhcb/data/2010/RAW/EXPRESS/LHCb/COLLISION10/79571/079571_0000000005.raw'
p80
aS'LFN:/lhcb/data/2010/RAW/EXPRESS/LHCb/COLLISION10/79571/079571_0000000049.raw'
p81
aS'LFN:/lhcb/data/2010/RAW/EXPRESS/LHCb/COLLISION10/79571/079571_0000000084.raw'
p82
aS'LFN:/lhcb/data/2010/RAW/EXPRESS/LHCb/COLLISION10/79571/079571_0000000007.raw'
p83
aS'LFN:/lhcb/data/2010/RAW/EXPRESS/LHCb/COLLISION10/79571/079571_0000000028.raw'
p84
asI79572
(lp85
S'LFN:/lhcb/data/2010/RAW/EXPRESS/LHCb/COLLISION10/79572/079572_0000000002.raw'
p86
aS'LFN:/lhcb/data/2010/RAW/EXPRESS/LHCb/COLLISION10/79572/079572_0000000007.raw'
p87
aS'LFN:/lhcb/data/2010/RAW/EXPRESS/LHCb/COLLISION10/79572/079572_0000000028.raw'
p88
aS'LFN:/lhcb/data/2010/RAW/EXPRESS/LHCb/COLLISION10/79572/079572_0000000063.raw'
p89
aS'LFN:/lhcb/data/2010/RAW/EXPRESS/LHCb/COLLISION10/79572/079572_0000000045.raw'
p90
asI79573
(lp91
S'LFN:/lhcb/data/2010/RAW/EXPRESS/LHCb/COLLISION10/79573/079573_0000000007.raw'
p92
aS'LFN:/lhcb/data/2010/RAW/EXPRESS/LHCb/COLLISION10/79573/079573_0000000045.raw'
p93
aS'LFN:/lhcb/data/2010/RAW/EXPRESS/LHCb/COLLISION10/79573/079573_0000000076.raw'
p94
aS'LFN:/lhcb/data/2010/RAW/EXPRESS/LHCb/COLLISION10/79573/079573_0000000004.raw'
p95
aS'LFN:/lhcb/data/2010/RAW/EXPRESS/LHCb/COLLISION10/79573/079573_0000000028.raw'
p96
aS'LFN:/lhcb/data/2010/RAW/EXPRESS/LHCb/COLLISION10/79573/079573_0000000062.raw'
p97
asI79574
(lp98
S'LFN:/lhcb/data/2010/RAW/EXPRESS/LHCb/COLLISION10/79574/079574_0000000007.raw'
p99
aS'LFN:/lhcb/data/2010/RAW/EXPRESS/LHCb/COLLISION10/79574/079574_0000000004.raw'
p100
asI79575
(lp101
S'LFN:/lhcb/data/2010/RAW/EXPRESS/LHCb/COLLISION10/79575/079575_0000000041.raw'
p102
aS'LFN:/lhcb/data/2010/RAW/EXPRESS/LHCb/COLLISION10/79575/079575_0000000007.raw'
p103
aS'LFN:/lhcb/data/2010/RAW/EXPRESS/LHCb/COLLISION10/79575/079575_0000000024.raw'
p104
aS'LFN:/lhcb/data/2010/RAW/EXPRESS/LHCb/COLLISION10/79575/079575_0000000076.raw'
p105
aS'LFN:/lhcb/data/2010/RAW/EXPRESS/LHCb/COLLISION10/79575/079575_0000000059.raw'
p106
aS'LFN:/lhcb/data/2010/RAW/EXPRESS/LHCb/COLLISION10/79575/079575_0000000004.raw'
p107
asI79576
(lp108
S'LFN:/lhcb/data/2010/RAW/EXPRESS/LHCb/COLLISION10/79576/079576_0000000007.raw'
p109
aS'LFN:/lhcb/data/2010/RAW/EXPRESS/LHCb/COLLISION10/79576/079576_0000000059.raw'
p110
aS'LFN:/lhcb/data/2010/RAW/EXPRESS/LHCb/COLLISION10/79576/079576_0000000072.raw'
p111
aS'LFN:/lhcb/data/2010/RAW/EXPRESS/LHCb/COLLISION10/79576/079576_0000000024.raw'
p112
aS'LFN:/lhcb/data/2010/RAW/EXPRESS/LHCb/COLLISION10/79576/079576_0000000041.raw'
p113
aS'LFN:/lhcb/data/2010/RAW/EXPRESS/LHCb/COLLISION10/79576/079576_0000000001.raw'
p114
asI79577
(lp115
S'LFN:/lhcb/data/2010/RAW/EXPRESS/LHCb/COLLISION10/79577/079577_0000000024.raw'
p116
aS'LFN:/lhcb/data/2010/RAW/EXPRESS/LHCb/COLLISION10/79577/079577_0000000007.raw'
p117
aS'LFN:/lhcb/data/2010/RAW/EXPRESS/LHCb/COLLISION10/79577/079577_0000000072.raw'
p118
aS'LFN:/lhcb/data/2010/RAW/EXPRESS/LHCb/COLLISION10/79577/079577_0000000002.raw'
p119
aS'LFN:/lhcb/data/2010/RAW/EXPRESS/LHCb/COLLISION10/79577/079577_0000000041.raw'
p120
aS'LFN:/lhcb/data/2010/RAW/EXPRESS/LHCb/COLLISION10/79577/079577_0000000058.raw'
p121
asI79578
(lp122
S'LFN:/lhcb/data/2010/RAW/EXPRESS/LHCb/COLLISION10/79578/079578_0000000041.raw'
p123
aS'LFN:/lhcb/data/2010/RAW/EXPRESS/LHCb/COLLISION10/79578/079578_0000000004.raw'
p124
aS'LFN:/lhcb/data/2010/RAW/EXPRESS/LHCb/COLLISION10/79578/079578_0000000072.raw'
p125
aS'LFN:/lhcb/data/2010/RAW/EXPRESS/LHCb/COLLISION10/79578/079578_0000000055.raw'
p126
aS'LFN:/lhcb/data/2010/RAW/EXPRESS/LHCb/COLLISION10/79578/079578_0000000024.raw'
p127
aS'LFN:/lhcb/data/2010/RAW/EXPRESS/LHCb/COLLISION10/79578/079578_0000000007.raw'
p128
asI79579
(lp129
S'LFN:/lhcb/data/2010/RAW/EXPRESS/LHCb/COLLISION10/79579/079579_0000000001.raw'
p130
aS'LFN:/lhcb/data/2010/RAW/EXPRESS/LHCb/COLLISION10/79579/079579_0000000007.raw'
p131
asI79580
(lp132
S'LFN:/lhcb/data/2010/RAW/EXPRESS/LHCb/COLLISION10/79580/079580_0000000001.raw'
p133
aS'LFN:/lhcb/data/2010/RAW/EXPRESS/LHCb/COLLISION10/79580/079580_0000000041.raw'
p134
aS'LFN:/lhcb/data/2010/RAW/EXPRESS/LHCb/COLLISION10/79580/079580_0000000007.raw'
p135
aS'LFN:/lhcb/data/2010/RAW/EXPRESS/LHCb/COLLISION10/79580/079580_0000000055.raw'
p136
aS'LFN:/lhcb/data/2010/RAW/EXPRESS/LHCb/COLLISION10/79580/079580_0000000024.raw'
p137
asI79581
(lp138
S'LFN:/lhcb/data/2010/RAW/EXPRESS/LHCb/COLLISION10/79581/079581_0000000055.raw'
p139
aS'LFN:/lhcb/data/2010/RAW/EXPRESS/LHCb/COLLISION10/79581/079581_0000000068.raw'
p140
aS'LFN:/lhcb/data/2010/RAW/EXPRESS/LHCb/COLLISION10/79581/079581_0000000024.raw'
p141
aS'LFN:/lhcb/data/2010/RAW/EXPRESS/LHCb/COLLISION10/79581/079581_0000000037.raw'
p142
aS'LFN:/lhcb/data/2010/RAW/EXPRESS/LHCb/COLLISION10/79581/079581_0000000001.raw'
p143
aS'LFN:/lhcb/data/2010/RAW/EXPRESS/LHCb/COLLISION10/79581/079581_0000000007.raw'
p144
asI79582
(lp145
S'LFN:/lhcb/data/2010/RAW/EXPRESS/LHCb/COLLISION10/79582/079582_0000000068.raw'
p146
aS'LFN:/lhcb/data/2010/RAW/EXPRESS/LHCb/COLLISION10/79582/079582_0000000024.raw'
p147
aS'LFN:/lhcb/data/2010/RAW/EXPRESS/LHCb/COLLISION10/79582/079582_0000000037.raw'
p148
aS'LFN:/lhcb/data/2010/RAW/EXPRESS/LHCb/COLLISION10/79582/079582_0000000007.raw'
p149
aS'LFN:/lhcb/data/2010/RAW/EXPRESS/LHCb/COLLISION10/79582/079582_0000000001.raw'
p150
aS'LFN:/lhcb/data/2010/RAW/EXPRESS/LHCb/COLLISION10/79582/079582_0000000053.raw'
p151
asI79583
(lp152
S'LFN:/lhcb/data/2010/RAW/EXPRESS/LHCb/COLLISION10/79583/079583_0000000024.raw'
p153
aS'LFN:/lhcb/data/2010/RAW/EXPRESS/LHCb/COLLISION10/79583/079583_0000000051.raw'
p154
aS'LFN:/lhcb/data/2010/RAW/EXPRESS/LHCb/COLLISION10/79583/079583_0000000064.raw'
p155
aS'LFN:/lhcb/data/2010/RAW/EXPRESS/LHCb/COLLISION10/79583/079583_0000000001.raw'
p156
aS'LFN:/lhcb/data/2010/RAW/EXPRESS/LHCb/COLLISION10/79583/079583_0000000037.raw'
p157
aS'LFN:/lhcb/data/2010/RAW/EXPRESS/LHCb/COLLISION10/79583/079583_0000000007.raw'
p158
asI79584
(lp159
S'LFN:/lhcb/data/2010/RAW/EXPRESS/LHCb/COLLISION10/79584/079584_0000000024.raw'
p160
aS'LFN:/lhcb/data/2010/RAW/EXPRESS/LHCb/COLLISION10/79584/079584_0000000037.raw'
p161
aS'LFN:/lhcb/data/2010/RAW/EXPRESS/LHCb/COLLISION10/79584/079584_0000000001.raw'
p162
aS'LFN:/lhcb/data/2010/RAW/EXPRESS/LHCb/COLLISION10/79584/079584_0000000007.raw'
p163
aS'LFN:/lhcb/data/2010/RAW/EXPRESS/LHCb/COLLISION10/79584/079584_0000000051.raw'
p164
aS'LFN:/lhcb/data/2010/RAW/EXPRESS/LHCb/COLLISION10/79584/079584_0000000064.raw'
p165
asI79585
(lp166
S'LFN:/lhcb/data/2010/RAW/EXPRESS/LHCb/COLLISION10/79585/079585_0000000037.raw'
p167
aS'LFN:/lhcb/data/2010/RAW/EXPRESS/LHCb/COLLISION10/79585/079585_0000000051.raw'
p168
aS'LFN:/lhcb/data/2010/RAW/EXPRESS/LHCb/COLLISION10/79585/079585_0000000064.raw'
p169
aS'LFN:/lhcb/data/2010/RAW/EXPRESS/LHCb/COLLISION10/79585/079585_0000000001.raw'
p170
aS'LFN:/lhcb/data/2010/RAW/EXPRESS/LHCb/COLLISION10/79585/079585_0000000007.raw'
p171
aS'LFN:/lhcb/data/2010/RAW/EXPRESS/LHCb/COLLISION10/79585/079585_0000000020.raw'
p172
asI79586
(lp173
S'LFN:/lhcb/data/2010/RAW/EXPRESS/LHCb/COLLISION10/79586/079586_0000000007.raw'
p174
aS'LFN:/lhcb/data/2010/RAW/EXPRESS/LHCb/COLLISION10/79586/079586_0000000005.raw'
p175
asI79646
(lp176
S'LFN:/lhcb/data/2010/RAW/EXPRESS/LHCb/COLLISION10/79646/079646_0000000001.raw'
p177
aS'LFN:/lhcb/data/2010/RAW/EXPRESS/LHCb/COLLISION10/79646/079646_0000000007.raw'
p178
aS'LFN:/lhcb/data/2010/RAW/EXPRESS/LHCb/COLLISION10/79646/079646_0000000087.raw'
p179
aS'LFN:/lhcb/data/2010/RAW/EXPRESS/LHCb/COLLISION10/79646/079646_0000000061.raw'
p180
aS'LFN:/lhcb/data/2010/RAW/EXPRESS/LHCb/COLLISION10/79646/079646_0000000032.raw'
p181
aS'LFN:/lhcb/data/2010/RAW/EXPRESS/LHCb/COLLISION10/79646/079646_0000000112.raw'
p182
aS'LFN:/lhcb/data/2010/RAW/EXPRESS/LHCb/COLLISION10/79646/079646_0000000133.raw'
p183
asI79647
(lp184
S'LFN:/lhcb/data/2010/RAW/EXPRESS/LHCb/COLLISION10/79647/079647_0000000007.raw'
p185
aS'LFN:/lhcb/data/2010/RAW/EXPRESS/LHCb/COLLISION10/79647/079647_0000000081.raw'
p186
aS'LFN:/lhcb/data/2010/RAW/EXPRESS/LHCb/COLLISION10/79647/079647_0000000115.raw'
p187
aS'LFN:/lhcb/data/2010/RAW/EXPRESS/LHCb/COLLISION10/79647/079647_0000000146.raw'
p188
aS'LFN:/lhcb/data/2010/RAW/EXPRESS/LHCb/COLLISION10/79647/079647_0000000044.raw'
p189
aS'LFN:/lhcb/data/2010/RAW/EXPRESS/LHCb/COLLISION10/79647/079647_0000000002.raw'
p190
asI79648
(lp191
S'LFN:/lhcb/data/2010/RAW/EXPRESS/LHCb/COLLISION10/79648/079648_0000000165.raw'
p192
aS'LFN:/lhcb/data/2010/RAW/EXPRESS/LHCb/COLLISION10/79648/079648_0000000107.raw'
p193
aS'LFN:/lhcb/data/2010/RAW/EXPRESS/LHCb/COLLISION10/79648/079648_0000000136.raw'
p194
aS'LFN:/lhcb/data/2010/RAW/EXPRESS/LHCb/COLLISION10/79648/079648_0000000007.raw'
p195
aS'LFN:/lhcb/data/2010/RAW/EXPRESS/LHCb/COLLISION10/79648/079648_0000000077.raw'
p196
aS'LFN:/lhcb/data/2010/RAW/EXPRESS/LHCb/COLLISION10/79648/079648_0000000001.raw'
p197
aS'LFN:/lhcb/data/2010/RAW/EXPRESS/LHCb/COLLISION10/79648/079648_0000000040.raw'
p198
asI79649
(lp199
S'LFN:/lhcb/data/2010/RAW/EXPRESS/LHCb/COLLISION10/79649/079649_0000000002.raw'
p200
aS'LFN:/lhcb/data/2010/RAW/EXPRESS/LHCb/COLLISION10/79649/079649_0000000007.raw'
p201
aS'LFN:/lhcb/data/2010/RAW/EXPRESS/LHCb/COLLISION10/79649/079649_0000000040.raw'
p202
aS'LFN:/lhcb/data/2010/RAW/EXPRESS/LHCb/COLLISION10/79649/079649_0000000073.raw'
p203
asI79650
(lp204
S'LFN:/lhcb/data/2010/RAW/EXPRESS/LHCb/COLLISION10/79650/079650_0000000099.raw'
p205
aS'LFN:/lhcb/data/2010/RAW/EXPRESS/LHCb/COLLISION10/79650/079650_0000000069.raw'
p206
aS'LFN:/lhcb/data/2010/RAW/EXPRESS/LHCb/COLLISION10/79650/079650_0000000002.raw'
p207
aS'LFN:/lhcb/data/2010/RAW/EXPRESS/LHCb/COLLISION10/79650/079650_0000000124.raw'
p208
aS'LFN:/lhcb/data/2010/RAW/EXPRESS/LHCb/COLLISION10/79650/079650_0000000153.raw'
p209
aS'LFN:/lhcb/data/2010/RAW/EXPRESS/LHCb/COLLISION10/79650/079650_0000000007.raw'
p210
aS'LFN:/lhcb/data/2010/RAW/EXPRESS/LHCb/COLLISION10/79650/079650_0000000040.raw'
p211
asI79651
(lp212
S'LFN:/lhcb/data/2010/RAW/EXPRESS/LHCb/COLLISION10/79651/079651_0000000002.raw'
p213
aS'LFN:/lhcb/data/2010/RAW/EXPRESS/LHCb/COLLISION10/79651/079651_0000000007.raw'
p214
asI79652
(lp215
S'LFN:/lhcb/data/2010/RAW/EXPRESS/LHCb/COLLISION10/79652/079652_0000000040.raw'
p216
aS'LFN:/lhcb/data/2010/RAW/EXPRESS/LHCb/COLLISION10/79652/079652_0000000002.raw'
p217
aS'LFN:/lhcb/data/2010/RAW/EXPRESS/LHCb/COLLISION10/79652/079652_0000000069.raw'
p218
aS'LFN:/lhcb/data/2010/RAW/EXPRESS/LHCb/COLLISION10/79652/079652_0000000095.raw'
p219
aS'LFN:/lhcb/data/2010/RAW/EXPRESS/LHCb/COLLISION10/79652/079652_0000000007.raw'
p220
aS'LFN:/lhcb/data/2010/RAW/EXPRESS/LHCb/COLLISION10/79652/079652_0000000124.raw'
p221
asI79653
(lp222
S'LFN:/lhcb/data/2010/RAW/EXPRESS/LHCb/COLLISION10/79653/079653_0000000036.raw'
p223
aS'LFN:/lhcb/data/2010/RAW/EXPRESS/LHCb/COLLISION10/79653/079653_0000000065.raw'
p224
aS'LFN:/lhcb/data/2010/RAW/EXPRESS/LHCb/COLLISION10/79653/079653_0000000091.raw'
p225
aS'LFN:/lhcb/data/2010/RAW/EXPRESS/LHCb/COLLISION10/79653/079653_0000000001.raw'
p226
aS'LFN:/lhcb/data/2010/RAW/EXPRESS/LHCb/COLLISION10/79653/079653_0000000007.raw'
p227
aS'LFN:/lhcb/data/2010/RAW/EXPRESS/LHCb/COLLISION10/79653/079653_0000000137.raw'
p228
aS'LFN:/lhcb/data/2010/RAW/EXPRESS/LHCb/COLLISION10/79653/079653_0000000112.raw'
p229
asI79654
(lp230
S'LFN:/lhcb/data/2010/RAW/EXPRESS/LHCb/COLLISION10/79654/079654_0000000002.raw'
p231
aS'LFN:/lhcb/data/2010/RAW/EXPRESS/LHCb/COLLISION10/79654/079654_0000000036.raw'
p232
aS'LFN:/lhcb/data/2010/RAW/EXPRESS/LHCb/COLLISION10/79654/079654_0000000007.raw'
p233
aS'LFN:/lhcb/data/2010/RAW/EXPRESS/LHCb/COLLISION10/79654/079654_0000000061.raw'
p234
asI79655
(lp235
S'LFN:/lhcb/data/2010/RAW/EXPRESS/LHCb/COLLISION10/79655/079655_0000000061.raw'
p236
aS'LFN:/lhcb/data/2010/RAW/EXPRESS/LHCb/COLLISION10/79655/079655_0000000007.raw'
p237
aS'LFN:/lhcb/data/2010/RAW/EXPRESS/LHCb/COLLISION10/79655/079655_0000000104.raw'
p238
aS'LFN:/lhcb/data/2010/RAW/EXPRESS/LHCb/COLLISION10/79655/079655_0000000001.raw'
p239
aS'LFN:/lhcb/data/2010/RAW/EXPRESS/LHCb/COLLISION10/79655/079655_0000000083.raw'
p240
aS'LFN:/lhcb/data/2010/RAW/EXPRESS/LHCb/COLLISION10/79655/079655_0000000036.raw'
p241
aS'LFN:/lhcb/data/2010/RAW/EXPRESS/LHCb/COLLISION10/79655/079655_0000000129.raw'
p242
asI79656
(lp243
S'LFN:/lhcb/data/2010/RAW/EXPRESS/LHCb/COLLISION10/79656/079656_0000000002.raw'
p244
aS'LFN:/lhcb/data/2010/RAW/EXPRESS/LHCb/COLLISION10/79656/079656_0000000104.raw'
p245
aS'LFN:/lhcb/data/2010/RAW/EXPRESS/LHCb/COLLISION10/79656/079656_0000000007.raw'
p246
aS'LFN:/lhcb/data/2010/RAW/EXPRESS/LHCb/COLLISION10/79656/079656_0000000032.raw'
p247
aS'LFN:/lhcb/data/2010/RAW/EXPRESS/LHCb/COLLISION10/79656/079656_0000000057.raw'
p248
aS'LFN:/lhcb/data/2010/RAW/EXPRESS/LHCb/COLLISION10/79656/079656_0000000083.raw'
p249
asI79657
(lp250
S'LFN:/lhcb/data/2010/RAW/EXPRESS/LHCb/COLLISION10/79657/079657_0000000007.raw'
p251
aS'LFN:/lhcb/data/2010/RAW/EXPRESS/LHCb/COLLISION10/79657/079657_0000000002.raw'
p252
aS'LFN:/lhcb/data/2010/RAW/EXPRESS/LHCb/COLLISION10/79657/079657_0000000032.raw'
p253
asI79658
(lp254
S'LFN:/lhcb/data/2010/RAW/EXPRESS/LHCb/COLLISION10/79658/079658_0000000032.raw'
p255
aS'LFN:/lhcb/data/2010/RAW/EXPRESS/LHCb/COLLISION10/79658/079658_0000000075.raw'
p256
aS'LFN:/lhcb/data/2010/RAW/EXPRESS/LHCb/COLLISION10/79658/079658_0000000007.raw'
p257
aS'LFN:/lhcb/data/2010/RAW/EXPRESS/LHCb/COLLISION10/79658/079658_0000000096.raw'
p258
aS'LFN:/lhcb/data/2010/RAW/EXPRESS/LHCb/COLLISION10/79658/079658_0000000002.raw'
p259
aS'LFN:/lhcb/data/2010/RAW/EXPRESS/LHCb/COLLISION10/79658/079658_0000000053.raw'
p260
asI79659
(lp261
S'LFN:/lhcb/data/2010/RAW/EXPRESS/LHCb/COLLISION10/79659/079659_0000000053.raw'
p262
aS'LFN:/lhcb/data/2010/RAW/EXPRESS/LHCb/COLLISION10/79659/079659_0000000075.raw'
p263
aS'LFN:/lhcb/data/2010/RAW/EXPRESS/LHCb/COLLISION10/79659/079659_0000000002.raw'
p264
aS'LFN:/lhcb/data/2010/RAW/EXPRESS/LHCb/COLLISION10/79659/079659_0000000093.raw'
p265
aS'LFN:/lhcb/data/2010/RAW/EXPRESS/LHCb/COLLISION10/79659/079659_0000000007.raw'
p266
aS'LFN:/lhcb/data/2010/RAW/EXPRESS/LHCb/COLLISION10/79659/079659_0000000032.raw'
p267
asI79660
(lp268
S'LFN:/lhcb/data/2010/RAW/EXPRESS/LHCb/COLLISION10/79660/079660_0000000071.raw'
p269
aS'LFN:/lhcb/data/2010/RAW/EXPRESS/LHCb/COLLISION10/79660/079660_0000000053.raw'
p270
aS'LFN:/lhcb/data/2010/RAW/EXPRESS/LHCb/COLLISION10/79660/079660_0000000092.raw'
p271
aS'LFN:/lhcb/data/2010/RAW/EXPRESS/LHCb/COLLISION10/79660/079660_0000000004.raw'
p272
aS'LFN:/lhcb/data/2010/RAW/EXPRESS/LHCb/COLLISION10/79660/079660_0000000030.raw'
p273
aS'LFN:/lhcb/data/2010/RAW/EXPRESS/LHCb/COLLISION10/79660/079660_0000000007.raw'
p274
asI79661
(lp275
S'LFN:/lhcb/data/2010/RAW/EXPRESS/LHCb/COLLISION10/79661/079661_0000000071.raw'
p276
aS'LFN:/lhcb/data/2010/RAW/EXPRESS/LHCb/COLLISION10/79661/079661_0000000001.raw'
p277
aS'LFN:/lhcb/data/2010/RAW/EXPRESS/LHCb/COLLISION10/79661/079661_0000000007.raw'
p278
aS'LFN:/lhcb/data/2010/RAW/EXPRESS/LHCb/COLLISION10/79661/079661_0000000088.raw'
p279
aS'LFN:/lhcb/data/2010/RAW/EXPRESS/LHCb/COLLISION10/79661/079661_0000000032.raw'
p280
aS'LFN:/lhcb/data/2010/RAW/EXPRESS/LHCb/COLLISION10/79661/079661_0000000049.raw'
p281
asI79662
(lp282
S'LFN:/lhcb/data/2010/RAW/EXPRESS/LHCb/COLLISION10/79662/079662_0000000049.raw'
p283
aS'LFN:/lhcb/data/2010/RAW/EXPRESS/LHCb/COLLISION10/79662/079662_0000000007.raw'
p284
aS'LFN:/lhcb/data/2010/RAW/EXPRESS/LHCb/COLLISION10/79662/079662_0000000002.raw'
p285
aS'LFN:/lhcb/data/2010/RAW/EXPRESS/LHCb/COLLISION10/79662/079662_0000000028.raw'
p286
asI79753
(lp287
S'LFN:/lhcb/data/2010/RAW/EXPRESS/LHCb/COLLISION10/79753/079753_0000000015.raw'
p288
aS'LFN:/lhcb/data/2010/RAW/EXPRESS/LHCb/COLLISION10/79753/079753_0000000003.raw'
p289
asI79754
(lp290
S'LFN:/lhcb/data/2010/RAW/EXPRESS/LHCb/COLLISION10/79754/079754_0000000002.raw'
p291
aS'LFN:/lhcb/data/2010/RAW/EXPRESS/LHCb/COLLISION10/79754/079754_0000000015.raw'
p292
aS'LFN:/lhcb/data/2010/RAW/EXPRESS/LHCb/COLLISION10/79754/079754_0000000040.raw'
p293
asI79755
(lp294
S'LFN:/lhcb/data/2010/RAW/EXPRESS/LHCb/COLLISION10/79755/079755_0000000044.raw'
p295
aS'LFN:/lhcb/data/2010/RAW/EXPRESS/LHCb/COLLISION10/79755/079755_0000000016.raw'
p296
aS'LFN:/lhcb/data/2010/RAW/EXPRESS/LHCb/COLLISION10/79755/079755_0000000002.raw'
p297
asI79780
(lp298
S'LFN:/lhcb/data/2010/RAW/EXPRESS/LHCb/COLLISION10/79780/079780_0000000001.raw'
p299
aS'LFN:/lhcb/data/2010/RAW/EXPRESS/LHCb/COLLISION10/79780/079780_0000000040.raw'
p300
aS'LFN:/lhcb/data/2010/RAW/EXPRESS/LHCb/COLLISION10/79780/079780_0000000007.raw'
p301
asI79781
(lp302
S'LFN:/lhcb/data/2010/RAW/EXPRESS/LHCb/COLLISION10/79781/079781_0000000044.raw'
p303
aS'LFN:/lhcb/data/2010/RAW/EXPRESS/LHCb/COLLISION10/79781/079781_0000000120.raw'
p304
aS'LFN:/lhcb/data/2010/RAW/EXPRESS/LHCb/COLLISION10/79781/079781_0000000002.raw'
p305
aS'LFN:/lhcb/data/2010/RAW/EXPRESS/LHCb/COLLISION10/79781/079781_0000000007.raw'
p306
aS'LFN:/lhcb/data/2010/RAW/EXPRESS/LHCb/COLLISION10/79781/079781_0000000085.raw'
p307
asI79782
(lp308
S'LFN:/lhcb/data/2010/RAW/EXPRESS/LHCb/COLLISION10/79782/079782_0000000081.raw'
p309
aS'LFN:/lhcb/data/2010/RAW/EXPRESS/LHCb/COLLISION10/79782/079782_0000000002.raw'
p310
aS'LFN:/lhcb/data/2010/RAW/EXPRESS/LHCb/COLLISION10/79782/079782_0000000007.raw'
p311
aS'LFN:/lhcb/data/2010/RAW/EXPRESS/LHCb/COLLISION10/79782/079782_0000000150.raw'
p312
aS'LFN:/lhcb/data/2010/RAW/EXPRESS/LHCb/COLLISION10/79782/079782_0000000117.raw'
p313
aS'LFN:/lhcb/data/2010/RAW/EXPRESS/LHCb/COLLISION10/79782/079782_0000000044.raw'
p314
aS'LFN:/lhcb/data/2010/RAW/EXPRESS/LHCb/COLLISION10/79782/079782_0000000181.raw'
p315
asI79783
(lp316
S'LFN:/lhcb/data/2010/RAW/EXPRESS/LHCb/COLLISION10/79783/079783_0000000007.raw'
p317
aS'LFN:/lhcb/data/2010/RAW/EXPRESS/LHCb/COLLISION10/79783/079783_0000000077.raw'
p318
aS'LFN:/lhcb/data/2010/RAW/EXPRESS/LHCb/COLLISION10/79783/079783_0000000001.raw'
p319
aS'LFN:/lhcb/data/2010/RAW/EXPRESS/LHCb/COLLISION10/79783/079783_0000000041.raw'
p320
aS'LFN:/lhcb/data/2010/RAW/EXPRESS/LHCb/COLLISION10/79783/079783_0000000106.raw'
p321
asI79784
(lp322
S'LFN:/lhcb/data/2010/RAW/EXPRESS/LHCb/COLLISION10/79784/079784_0000000036.raw'
p323
aS'LFN:/lhcb/data/2010/RAW/EXPRESS/LHCb/COLLISION10/79784/079784_0000000064.raw'
p324
aS'LFN:/lhcb/data/2010/RAW/EXPRESS/LHCb/COLLISION10/79784/079784_0000000002.raw'
p325
aS'LFN:/lhcb/data/2010/RAW/EXPRESS/LHCb/COLLISION10/79784/079784_0000000007.raw'
p326
asI79785
(lp327
S'LFN:/lhcb/data/2010/RAW/EXPRESS/LHCb/COLLISION10/79785/079785_0000000001.raw'
p328
aS'LFN:/lhcb/data/2010/RAW/EXPRESS/LHCb/COLLISION10/79785/079785_0000000056.raw'
p329
aS'LFN:/lhcb/data/2010/RAW/EXPRESS/LHCb/COLLISION10/79785/079785_0000000143.raw'
p330
aS'LFN:/lhcb/data/2010/RAW/EXPRESS/LHCb/COLLISION10/79785/079785_0000000007.raw'
p331
aS'LFN:/lhcb/data/2010/RAW/EXPRESS/LHCb/COLLISION10/79785/079785_0000000101.raw'
p332
aS'LFN:/lhcb/data/2010/RAW/EXPRESS/LHCb/COLLISION10/79785/079785_0000000180.raw'
p333
asI79786
(lp334
S'LFN:/lhcb/data/2010/RAW/EXPRESS/LHCb/COLLISION10/79786/079786_0000000001.raw'
p335
aS'LFN:/lhcb/data/2010/RAW/EXPRESS/LHCb/COLLISION10/79786/079786_0000000131.raw'
p336
aS'LFN:/lhcb/data/2010/RAW/EXPRESS/LHCb/COLLISION10/79786/079786_0000000093.raw'
p337
aS'LFN:/lhcb/data/2010/RAW/EXPRESS/LHCb/COLLISION10/79786/079786_0000000164.raw'
p338
aS'LFN:/lhcb/data/2010/RAW/EXPRESS/LHCb/COLLISION10/79786/079786_0000000052.raw'
p339
aS'LFN:/lhcb/data/2010/RAW/EXPRESS/LHCb/COLLISION10/79786/079786_0000000007.raw'
p340
asI79787
(lp341
S'LFN:/lhcb/data/2010/RAW/EXPRESS/LHCb/COLLISION10/79787/079787_0000000001.raw'
p342
aS'LFN:/lhcb/data/2010/RAW/EXPRESS/LHCb/COLLISION10/79787/079787_0000000027.raw'
p343
aS'LFN:/lhcb/data/2010/RAW/EXPRESS/LHCb/COLLISION10/79787/079787_0000000135.raw'
p344
aS'LFN:/lhcb/data/2010/RAW/EXPRESS/LHCb/COLLISION10/79787/079787_0000000064.raw'
p345
aS'LFN:/lhcb/data/2010/RAW/EXPRESS/LHCb/COLLISION10/79787/079787_0000000164.raw'
p346
aS'LFN:/lhcb/data/2010/RAW/EXPRESS/LHCb/COLLISION10/79787/079787_0000000101.raw'
p347
asI79788
(lp348
S'LFN:/lhcb/data/2010/RAW/EXPRESS/LHCb/COLLISION10/79788/079788_0000000026.raw'
p349
aS'LFN:/lhcb/data/2010/RAW/EXPRESS/LHCb/COLLISION10/79788/079788_0000000001.raw'
p350
aS'LFN:/lhcb/data/2010/RAW/EXPRESS/LHCb/COLLISION10/79788/079788_0000000093.raw'
p351
aS'LFN:/lhcb/data/2010/RAW/EXPRESS/LHCb/COLLISION10/79788/079788_0000000123.raw'
p352
aS'LFN:/lhcb/data/2010/RAW/EXPRESS/LHCb/COLLISION10/79788/079788_0000000060.raw'
p353
aS'LFN:/lhcb/data/2010/RAW/EXPRESS/LHCb/COLLISION10/79788/079788_0000000152.raw'
p354
asI79789
(lp355
S'LFN:/lhcb/data/2010/RAW/EXPRESS/LHCb/COLLISION10/79789/079789_0000000060.raw'
p356
aS'LFN:/lhcb/data/2010/RAW/EXPRESS/LHCb/COLLISION10/79789/079789_0000000002.raw'
p357
aS'LFN:/lhcb/data/2010/RAW/EXPRESS/LHCb/COLLISION10/79789/079789_0000000119.raw'
p358
aS'LFN:/lhcb/data/2010/RAW/EXPRESS/LHCb/COLLISION10/79789/079789_0000000089.raw'
p359
aS'LFN:/lhcb/data/2010/RAW/EXPRESS/LHCb/COLLISION10/79789/079789_0000000027.raw'
p360
aS'LFN:/lhcb/data/2010/RAW/EXPRESS/LHCb/COLLISION10/79789/079789_0000000148.raw'
p361
asI79790
(lp362
S'LFN:/lhcb/data/2010/RAW/EXPRESS/LHCb/COLLISION10/79790/079790_0000000056.raw'
p363
aS'LFN:/lhcb/data/2010/RAW/EXPRESS/LHCb/COLLISION10/79790/079790_0000000085.raw'
p364
aS'LFN:/lhcb/data/2010/RAW/EXPRESS/LHCb/COLLISION10/79790/079790_0000000111.raw'
p365
aS'LFN:/lhcb/data/2010/RAW/EXPRESS/LHCb/COLLISION10/79790/079790_0000000023.raw'
p366
aS'LFN:/lhcb/data/2010/RAW/EXPRESS/LHCb/COLLISION10/79790/079790_0000000140.raw'
p367
aS'LFN:/lhcb/data/2010/RAW/EXPRESS/LHCb/COLLISION10/79790/079790_0000000001.raw'
p368
asI79791
(lp369
S'LFN:/lhcb/data/2010/RAW/EXPRESS/LHCb/COLLISION10/79791/079791_0000000132.raw'
p370
aS'LFN:/lhcb/data/2010/RAW/EXPRESS/LHCb/COLLISION10/79791/079791_0000000023.raw'
p371
aS'LFN:/lhcb/data/2010/RAW/EXPRESS/LHCb/COLLISION10/79791/079791_0000000052.raw'
p372
aS'LFN:/lhcb/data/2010/RAW/EXPRESS/LHCb/COLLISION10/79791/079791_0000000081.raw'
p373
aS'LFN:/lhcb/data/2010/RAW/EXPRESS/LHCb/COLLISION10/79791/079791_0000000107.raw'
p374
aS'LFN:/lhcb/data/2010/RAW/EXPRESS/LHCb/COLLISION10/79791/079791_0000000001.raw'
p375
asI79792
(lp376
S'LFN:/lhcb/data/2010/RAW/EXPRESS/LHCb/COLLISION10/79792/079792_0000000120.raw'
p377
aS'LFN:/lhcb/data/2010/RAW/EXPRESS/LHCb/COLLISION10/79792/079792_0000000052.raw'
p378
aS'LFN:/lhcb/data/2010/RAW/EXPRESS/LHCb/COLLISION10/79792/079792_0000000023.raw'
p379
aS'LFN:/lhcb/data/2010/RAW/EXPRESS/LHCb/COLLISION10/79792/079792_0000000073.raw'
p380
aS'LFN:/lhcb/data/2010/RAW/EXPRESS/LHCb/COLLISION10/79792/079792_0000000099.raw'
p381
aS'LFN:/lhcb/data/2010/RAW/EXPRESS/LHCb/COLLISION10/79792/079792_0000000001.raw'
p382
asI79793
(lp383
S'LFN:/lhcb/data/2010/RAW/EXPRESS/LHCb/COLLISION10/79793/079793_0000000095.raw'
p384
aS'LFN:/lhcb/data/2010/RAW/EXPRESS/LHCb/COLLISION10/79793/079793_0000000023.raw'
p385
aS'LFN:/lhcb/data/2010/RAW/EXPRESS/LHCb/COLLISION10/79793/079793_0000000001.raw'
p386
aS'LFN:/lhcb/data/2010/RAW/EXPRESS/LHCb/COLLISION10/79793/079793_0000000073.raw'
p387
aS'LFN:/lhcb/data/2010/RAW/EXPRESS/LHCb/COLLISION10/79793/079793_0000000048.raw'
p388
asI79794
(lp389
S'LFN:/lhcb/data/2010/RAW/EXPRESS/LHCb/COLLISION10/79794/079794_0000000044.raw'
p390
aS'LFN:/lhcb/data/2010/RAW/EXPRESS/LHCb/COLLISION10/79794/079794_0000000091.raw'
p391
aS'LFN:/lhcb/data/2010/RAW/EXPRESS/LHCb/COLLISION10/79794/079794_0000000001.raw'
p392
aS'LFN:/lhcb/data/2010/RAW/EXPRESS/LHCb/COLLISION10/79794/079794_0000000019.raw'
p393
aS'LFN:/lhcb/data/2010/RAW/EXPRESS/LHCb/COLLISION10/79794/079794_0000000069.raw'
p394
asI79795
(lp395
S'LFN:/lhcb/data/2010/RAW/EXPRESS/LHCb/COLLISION10/79795/079795_0000000001.raw'
p396
aS'LFN:/lhcb/data/2010/RAW/EXPRESS/LHCb/COLLISION10/79795/079795_0000000019.raw'
p397
asI79801
(lp398
S'LFN:/lhcb/data/2010/RAW/EXPRESS/LHCb/COLLISION10/79801/079801_0000000003.raw'
p399
asI79802
(lp400
S'LFN:/lhcb/data/2010/RAW/EXPRESS/LHCb/COLLISION10/79802/079802_0000000002.raw'
p401
aS'LFN:/lhcb/data/2010/RAW/EXPRESS/LHCb/COLLISION10/79802/079802_0000000007.raw'
p402
asI79826
(lp403
S'LFN:/lhcb/data/2010/RAW/EXPRESS/LHCb/COLLISION10/79826/079826_0000000001.raw'
p404
aS'LFN:/lhcb/data/2010/RAW/EXPRESS/LHCb/COLLISION10/79826/079826_0000000007.raw'
p405
asI79827
(lp406
S'LFN:/lhcb/data/2010/RAW/EXPRESS/LHCb/COLLISION10/79827/079827_0000000002.raw'
p407
aS'LFN:/lhcb/data/2010/RAW/EXPRESS/LHCb/COLLISION10/79827/079827_0000000081.raw'
p408
aS'LFN:/lhcb/data/2010/RAW/EXPRESS/LHCb/COLLISION10/79827/079827_0000000044.raw'
p409
aS'LFN:/lhcb/data/2010/RAW/EXPRESS/LHCb/COLLISION10/79827/079827_0000000148.raw'
p410
aS'LFN:/lhcb/data/2010/RAW/EXPRESS/LHCb/COLLISION10/79827/079827_0000000007.raw'
p411
aS'LFN:/lhcb/data/2010/RAW/EXPRESS/LHCb/COLLISION10/79827/079827_0000000114.raw'
p412
aS'LFN:/lhcb/data/2010/RAW/EXPRESS/LHCb/COLLISION10/79827/079827_0000000181.raw'
p413
asI79828
(lp414
S'LFN:/lhcb/data/2010/RAW/EXPRESS/LHCb/COLLISION10/79828/079828_0000000007.raw'
p415
aS'LFN:/lhcb/data/2010/RAW/EXPRESS/LHCb/COLLISION10/79828/079828_0000000044.raw'
p416
aS'LFN:/lhcb/data/2010/RAW/EXPRESS/LHCb/COLLISION10/79828/079828_0000000002.raw'
p417
asI79829
(lp418
S'LFN:/lhcb/data/2010/RAW/EXPRESS/LHCb/COLLISION10/79829/079829_0000000007.raw'
p419
aS'LFN:/lhcb/data/2010/RAW/EXPRESS/LHCb/COLLISION10/79829/079829_0000000004.raw'
p420
aS'LFN:/lhcb/data/2010/RAW/EXPRESS/LHCb/COLLISION10/79829/079829_0000000040.raw'
p421
asI79830
(lp422
S'LFN:/lhcb/data/2010/RAW/EXPRESS/LHCb/COLLISION10/79830/079830_0000000007.raw'
p423
aS'LFN:/lhcb/data/2010/RAW/EXPRESS/LHCb/COLLISION10/79830/079830_0000000113.raw'
p424
aS'LFN:/lhcb/data/2010/RAW/EXPRESS/LHCb/COLLISION10/79830/079830_0000000064.raw'
p425
aS'LFN:/lhcb/data/2010/RAW/EXPRESS/LHCb/COLLISION10/79830/079830_0000000002.raw'
p426
asI79831
(lp427
S'LFN:/lhcb/data/2010/RAW/EXPRESS/LHCb/COLLISION10/79831/079831_0000000007.raw'
p428
aS'LFN:/lhcb/data/2010/RAW/EXPRESS/LHCb/COLLISION10/79831/079831_0000000106.raw'
p429
aS'LFN:/lhcb/data/2010/RAW/EXPRESS/LHCb/COLLISION10/79831/079831_0000000136.raw'
p430
aS'LFN:/lhcb/data/2010/RAW/EXPRESS/LHCb/COLLISION10/79831/079831_0000000073.raw'
p431
aS'LFN:/lhcb/data/2010/RAW/EXPRESS/LHCb/COLLISION10/79831/079831_0000000165.raw'
p432
aS'LFN:/lhcb/data/2010/RAW/EXPRESS/LHCb/COLLISION10/79831/079831_0000000001.raw'
p433
aS'LFN:/lhcb/data/2010/RAW/EXPRESS/LHCb/COLLISION10/79831/079831_0000000040.raw'
p434
asI79832
(lp435
S'LFN:/lhcb/data/2010/RAW/EXPRESS/LHCb/COLLISION10/79832/079832_0000000001.raw'
p436
aS'LFN:/lhcb/data/2010/RAW/EXPRESS/LHCb/COLLISION10/79832/079832_0000000041.raw'
p437
aS'LFN:/lhcb/data/2010/RAW/EXPRESS/LHCb/COLLISION10/79832/079832_0000000073.raw'
p438
aS'LFN:/lhcb/data/2010/RAW/EXPRESS/LHCb/COLLISION10/79832/079832_0000000007.raw'
p439
asI79833
(lp440
S'LFN:/lhcb/data/2010/RAW/EXPRESS/LHCb/COLLISION10/79833/079833_0000000002.raw'
p441
aS'LFN:/lhcb/data/2010/RAW/EXPRESS/LHCb/COLLISION10/79833/079833_0000000007.raw'
p442
asI79834
(lp443
S'LFN:/lhcb/data/2010/RAW/EXPRESS/LHCb/COLLISION10/79834/079834_0000000002.raw'
p444
aS'LFN:/lhcb/data/2010/RAW/EXPRESS/LHCb/COLLISION10/79834/079834_0000000007.raw'
p445
aS'LFN:/lhcb/data/2010/RAW/EXPRESS/LHCb/COLLISION10/79834/079834_0000000040.raw'
p446
asI79835
(lp447
S'LFN:/lhcb/data/2010/RAW/EXPRESS/LHCb/COLLISION10/79835/079835_0000000001.raw'
p448
aS'LFN:/lhcb/data/2010/RAW/EXPRESS/LHCb/COLLISION10/79835/079835_0000000101.raw'
p449
aS'LFN:/lhcb/data/2010/RAW/EXPRESS/LHCb/COLLISION10/79835/079835_0000000056.raw'
p450
aS'LFN:/lhcb/data/2010/RAW/EXPRESS/LHCb/COLLISION10/79835/079835_0000000007.raw'
p451
aS'LFN:/lhcb/data/2010/RAW/EXPRESS/LHCb/COLLISION10/79835/079835_0000000143.raw'
p452
aS'LFN:/lhcb/data/2010/RAW/EXPRESS/LHCb/COLLISION10/79835/079835_0000000180.raw'
p453
asI79836
(lp454
S'LFN:/lhcb/data/2010/RAW/EXPRESS/LHCb/COLLISION10/79836/079836_0000000135.raw'
p455
aS'LFN:/lhcb/data/2010/RAW/EXPRESS/LHCb/COLLISION10/79836/079836_0000000007.raw'
p456
aS'LFN:/lhcb/data/2010/RAW/EXPRESS/LHCb/COLLISION10/79836/079836_0000000097.raw'
p457
aS'LFN:/lhcb/data/2010/RAW/EXPRESS/LHCb/COLLISION10/79836/079836_0000000001.raw'
p458
aS'LFN:/lhcb/data/2010/RAW/EXPRESS/LHCb/COLLISION10/79836/079836_0000000053.raw'
p459
asI79837
(lp460
S'LFN:/lhcb/data/2010/RAW/EXPRESS/LHCb/COLLISION10/79837/079837_0000000093.raw'
p461
aS'LFN:/lhcb/data/2010/RAW/EXPRESS/LHCb/COLLISION10/79837/079837_0000000131.raw'
p462
aS'LFN:/lhcb/data/2010/RAW/EXPRESS/LHCb/COLLISION10/79837/079837_0000000007.raw'
p463
aS'LFN:/lhcb/data/2010/RAW/EXPRESS/LHCb/COLLISION10/79837/079837_0000000166.raw'
p464
aS'LFN:/lhcb/data/2010/RAW/EXPRESS/LHCb/COLLISION10/79837/079837_0000000003.raw'
p465
aS'LFN:/lhcb/data/2010/RAW/EXPRESS/LHCb/COLLISION10/79837/079837_0000000052.raw'
p466
asI79838
(lp467
S'LFN:/lhcb/data/2010/RAW/EXPRESS/LHCb/COLLISION10/79838/079838_0000000052.raw'
p468
aS'LFN:/lhcb/data/2010/RAW/EXPRESS/LHCb/COLLISION10/79838/079838_0000000002.raw'
p469
aS'LFN:/lhcb/data/2010/RAW/EXPRESS/LHCb/COLLISION10/79838/079838_0000000007.raw'
p470
aS'LFN:/lhcb/data/2010/RAW/EXPRESS/LHCb/COLLISION10/79838/079838_0000000123.raw'
p471
aS'LFN:/lhcb/data/2010/RAW/EXPRESS/LHCb/COLLISION10/79838/079838_0000000089.raw'
p472
aS'LFN:/lhcb/data/2010/RAW/EXPRESS/LHCb/COLLISION10/79838/079838_0000000160.raw'
p473
asI79839
(lp474
S'LFN:/lhcb/data/2010/RAW/EXPRESS/LHCb/COLLISION10/79839/079839_0000000004.raw'
p475
aS'LFN:/lhcb/data/2010/RAW/EXPRESS/LHCb/COLLISION10/79839/079839_0000000007.raw'
p476
aS'LFN:/lhcb/data/2010/RAW/EXPRESS/LHCb/COLLISION10/79839/079839_0000000085.raw'
p477
aS'LFN:/lhcb/data/2010/RAW/EXPRESS/LHCb/COLLISION10/79839/079839_0000000048.raw'
p478
aS'LFN:/lhcb/data/2010/RAW/EXPRESS/LHCb/COLLISION10/79839/079839_0000000152.raw'
p479
aS'LFN:/lhcb/data/2010/RAW/EXPRESS/LHCb/COLLISION10/79839/079839_0000000119.raw'
p480
asI79840
(lp481
S'LFN:/lhcb/data/2010/RAW/EXPRESS/LHCb/COLLISION10/79840/079840_0000000002.raw'
p482
aS'LFN:/lhcb/data/2010/RAW/EXPRESS/LHCb/COLLISION10/79840/079840_0000000144.raw'
p483
aS'LFN:/lhcb/data/2010/RAW/EXPRESS/LHCb/COLLISION10/79840/079840_0000000007.raw'
p484
aS'LFN:/lhcb/data/2010/RAW/EXPRESS/LHCb/COLLISION10/79840/079840_0000000048.raw'
p485
aS'LFN:/lhcb/data/2010/RAW/EXPRESS/LHCb/COLLISION10/79840/079840_0000000081.raw'
p486
aS'LFN:/lhcb/data/2010/RAW/EXPRESS/LHCb/COLLISION10/79840/079840_0000000115.raw'
p487
asI79841
(lp488
S'LFN:/lhcb/data/2010/RAW/EXPRESS/LHCb/COLLISION10/79841/079841_0000000004.raw'
p489
aS'LFN:/lhcb/data/2010/RAW/EXPRESS/LHCb/COLLISION10/79841/079841_0000000044.raw'
p490
aS'LFN:/lhcb/data/2010/RAW/EXPRESS/LHCb/COLLISION10/79841/079841_0000000007.raw'
p491
aS'LFN:/lhcb/data/2010/RAW/EXPRESS/LHCb/COLLISION10/79841/079841_0000000076.raw'
p492
aS'LFN:/lhcb/data/2010/RAW/EXPRESS/LHCb/COLLISION10/79841/079841_0000000106.raw'
p493
aS'LFN:/lhcb/data/2010/RAW/EXPRESS/LHCb/COLLISION10/79841/079841_0000000136.raw'
p494
asI79842
(lp495
S'LFN:/lhcb/data/2010/RAW/EXPRESS/LHCb/COLLISION10/79842/079842_0000000101.raw'
p496
aS'LFN:/lhcb/data/2010/RAW/EXPRESS/LHCb/COLLISION10/79842/079842_0000000044.raw'
p497
aS'LFN:/lhcb/data/2010/RAW/EXPRESS/LHCb/COLLISION10/79842/079842_0000000073.raw'
p498
aS'LFN:/lhcb/data/2010/RAW/EXPRESS/LHCb/COLLISION10/79842/079842_0000000007.raw'
p499
aS'LFN:/lhcb/data/2010/RAW/EXPRESS/LHCb/COLLISION10/79842/079842_0000000128.raw'
p500
aS'LFN:/lhcb/data/2010/RAW/EXPRESS/LHCb/COLLISION10/79842/079842_0000000001.raw'
p501
asI79843
(lp502
S'LFN:/lhcb/data/2010/RAW/EXPRESS/LHCb/COLLISION10/79843/079843_0000000007.raw'
p503
aS'LFN:/lhcb/data/2010/RAW/EXPRESS/LHCb/COLLISION10/79843/079843_0000000004.raw'
p504
asI79844
(lp505
S'LFN:/lhcb/data/2010/RAW/EXPRESS/LHCb/COLLISION10/79844/079844_0000000001.raw'
p506
as.