(i__main__
LogFile
p0
(dp1
S'_installed_files'
p2
(dp3
S'../../../Mint/genConf/Mint'
p4
(dp5
S'../../../../Mint/genConf/Mint/MintConf.py'
p6
S'../../InstallArea/x86_64-slc5-gcc43-opt/python/Mint/MintConf.py'
p7
sS'../../../../Mint/genConf/Mint/Mint_confDb.py'
p8
S'../../InstallArea/x86_64-slc5-gcc43-opt/python/Mint/Mint_confDb.py'
p9
ssS'../../../Mint/x86_64-slc5-gcc43-opt/libMint.so'
p10
S'../../InstallArea/x86_64-slc5-gcc43-opt/lib/libMint.so'
p11
ssb.