(i__main__
LogFile
p0
(dp1
S'_installed_files'
p2
(dp3
S'../../Online/RateService/v2r2/genConf/RateService'
p4
(dp5
S'../../../Online/RateService/v2r2/genConf/RateService/RateService_confDb.py'
p6
S'../../../../InstallArea/python/RateService/RateService_confDb.py'
p7
sS'../../../Online/RateService/v2r2/genConf/RateService/RateServiceConf.py'
p8
S'../../../../InstallArea/python/RateService/RateServiceConf.py'
p9
ssS'../../../Online/RateService/v2r2/slc4_amd64_gcc34/libRateService.so'
p10
S'../../../../InstallArea/slc4_amd64_gcc34/lib/libRateService.so'
p11
ssb.