(i__main__
LogFile
p0
(dp1
S'_installed_files'
p2
(dp3
S'../../Kernel/HltInterfaces/v1r0/Kernel'
p4
(dp5
S'../../../Kernel/HltInterfaces/v1r0/Kernel/IANNSvc.h'
p6
S'../../../../InstallArea/include/Kernel/IANNSvc.h'
p7
ssS'../../../Kernel/HltInterfaces/v1r0/slc4_amd64_gcc34/libHltInterfaces.so'
p8
S'../../../../InstallArea/slc4_amd64_gcc34/lib/libHltInterfaces.so'
p9
sS'../../../Kernel/HltInterfaces/v1r0/slc4_amd64_gcc34/libHltInterfacesDict.so'
p10
S'../../../../InstallArea/slc4_amd64_gcc34/lib/libHltInterfacesDict.so'
p11
ssb.