(i__main__
LogFile
p0
(dp1
S'_installed_files'
p2
(dp3
S'../../../Phys/DaVinciMonitors/slc4_amd64_gcc34/libDaVinciMonitors.so'
p4
S'../../../InstallArea/slc4_amd64_gcc34/lib/libDaVinciMonitors.so'
p5
sS'../../Phys/DaVinciMonitors/genConf/DaVinciMonitors'
p6
(dp7
S'../../../Phys/DaVinciMonitors/genConf/DaVinciMonitors/DaVinciMonitors_confDb.py'
p8
S'../../../InstallArea/python/DaVinciMonitors/DaVinciMonitors_confDb.py'
p9
sS'../../../Phys/DaVinciMonitors/genConf/DaVinciMonitors/DaVinciMonitorsConf.py'
p10
S'../../../InstallArea/python/DaVinciMonitors/DaVinciMonitorsConf.py'
p11
ssS'../../../../../../../../sw/Gaudi/releases/GAUDI/GAUDI_v20r3/GaudiPolicy/cmt/fragments/__init__.py'
p12
S'../../../InstallArea/python/DaVinciMonitors/__init__.py'
p13
ssb.