(i__main__
LogFile
p0
(dp1
S'_installed_files'
p2
(dp3
S'../../../Phys/DaVinciMonitors/slc4_amd64_gcc34/libDaVinciMonitors.so'
p4
S'../../../InstallArea/slc4_amd64_gcc34/lib/libDaVinciMonitors.so'
p5
sS'../../../../../../../../sw/lcg/app/nightlies/dev1/Sun/GAUDI/GAUDI_HEAD/GaudiPolicy/cmt/fragments/__init__.py'
p6
S'../../../InstallArea/python/DaVinciMonitors/__init__.py'
p7
sS'../../Phys/DaVinciMonitors/genConf/DaVinciMonitors'
p8
(dp9
S'../../../Phys/DaVinciMonitors/genConf/DaVinciMonitors/DaVinciMonitors_confDb.py'
p10
S'../../../InstallArea/python/DaVinciMonitors/DaVinciMonitors_confDb.py'
p11
sS'../../../Phys/DaVinciMonitors/genConf/DaVinciMonitors/DaVinciMonitorsConf.py'
p12
S'../../../InstallArea/python/DaVinciMonitors/DaVinciMonitorsConf.py'
p13
ssS'../../../../../../../../sw/Gaudi/releases/GAUDI/GAUDI_v20r3/GaudiPolicy/cmt/fragments/__init__.py'
p14
S'../../../InstallArea/python/DaVinciMonitors/__init__.py'
p15
ssb.