(i__main__
LogFile
p0
(dp1
S'_installed_files'
p2
(dp3
S'../../../L0/L0MuonMonitor/slc4_amd64_gcc34/libL0MuonMonitor.so'
p4
S'../../../InstallArea/slc4_amd64_gcc34/lib/libL0MuonMonitor.so'
p5
sS'../../L0/L0MuonMonitor/genConf/L0MuonMonitor'
p6
(dp7
S'../../../L0/L0MuonMonitor/genConf/L0MuonMonitor/L0MuonMonitorConf.py'
p8
S'../../../InstallArea/python/L0MuonMonitor/L0MuonMonitorConf.py'
p9
sS'../../../L0/L0MuonMonitor/genConf/L0MuonMonitor/L0MuonMonitor_confDb.py'
p10
S'../../../InstallArea/python/L0MuonMonitor/L0MuonMonitor_confDb.py'
p11
ssS'../../../../../../../../sw/Gaudi/releases/GAUDI/GAUDI_v20r1/GaudiPolicy/v8r4/cmt/fragments/__init__.py'
p12
S'../../../InstallArea/python/L0MuonMonitor/__init__.py'
p13
ssb.