(i__main__
LogFile
p0
(dp1
S'_installed_files'
p2
(dp3
S'../../../L0/L0MuonMonitor/slc4_ia32_gcc34/libL0MuonMonitor.so'
p4
S'../../../InstallArea/slc4_ia32_gcc34/lib/libL0MuonMonitor.so'
p5
sS'../../../../../../../lib/lhcb/GAUDI/GAUDI_v19r8/GaudiPolicy/v8r1/cmt/fragments/__init__.py'
p6
S'../../../InstallArea/python/L0/__init__.py'
p7
sS'../../L0/L0MuonMonitor/genConf/L0'
p8
(dp9
S'../../../L0/L0MuonMonitor/genConf/L0/L0MuonMonitorConf.py'
p10
S'../../../InstallArea/python/L0/L0MuonMonitorConf.py'
p11
sS'../../../L0/L0MuonMonitor/genConf/L0/L0MuonMonitor_confDb.py'
p12
S'../../../InstallArea/python/L0/L0MuonMonitor_confDb.py'
p13
sssb.