(i__main__
LogFile
p0
(dp1
S'_installed_files'
p2
(dp3
S'../../../L0/L0MuonMonitor/slc4_ia32_gcc34/libL0MuonMonitor.so'
p4
S'../../../InstallArea/slc4_ia32_gcc34/lib/libL0MuonMonitor.so'
p5
sS'../../L0/L0MuonMonitor/genConf/L0'
p6
(dp7
S'../../../L0/L0MuonMonitor/genConf/L0/L0MuonMonitorConf.py'
p8
S'../../../InstallArea/python/L0/L0MuonMonitorConf.py'
p9
sS'../../../L0/L0MuonMonitor/genConf/L0/L0MuonMonitor_confDb.py'
p10
S'../../../InstallArea/python/L0/L0MuonMonitor_confDb.py'
p11
ssS'../../../L0/L0MuonMonitor/slc4_amd64_gcc34/libL0MuonMonitor.so'
p12
S'../../../InstallArea/slc4_amd64_gcc34/lib/libL0MuonMonitor.so'
p13
sS'../../../../../../../../../sw/lib/lhcb/GAUDI/GAUDI_v19r8/GaudiPolicy/v8r1/cmt/fragments/__init__.py'
p14
S'../../../InstallArea/python/L0/__init__.py'
p15
ssb.