(i__main__
LogFile
p0
(dp1
S'_installed_files'
p2
(dp3
S'../../../../../../../../../sw/lib/lhcb/GAUDI/GAUDI_v20r2/GaudiPolicy/v8r5/cmt/fragments/__init__.py'
p4
S'../../../InstallArea/python/L0MuonMonitor/__init__.py'
p5
sS'../../../L0/L0MuonMonitor/slc4_ia32_gcc34/libL0MuonMonitor.so'
p6
S'../../../InstallArea/slc4_ia32_gcc34/lib/libL0MuonMonitor.so'
p7
sS'../../L0/L0MuonMonitor/genConf/L0MuonMonitor'
p8
(dp9
S'../../../L0/L0MuonMonitor/genConf/L0MuonMonitor/L0MuonMonitorConf.py'
p10
S'../../../InstallArea/python/L0MuonMonitor/L0MuonMonitorConf.py'
p11
sS'../../../L0/L0MuonMonitor/genConf/L0MuonMonitor/L0MuonMonitor_confDb.py'
p12
S'../../../InstallArea/python/L0MuonMonitor/L0MuonMonitor_confDb.py'
p13
ssS'../../../L0/L0MuonMonitor/slc4_amd64_gcc34/libL0MuonMonitor.so'
p14
S'../../../InstallArea/slc4_amd64_gcc34/lib/libL0MuonMonitor.so'
p15
sS'../../../../../../../../sw/Gaudi/releases/GAUDI/GAUDI_v20r1/GaudiPolicy/v8r4/cmt/fragments/__init__.py'
p16
S'../../../InstallArea/python/L0MuonMonitor/__init__.py'
p17
ssb.