(i__main__
LogFile
p0
(dp1
S'_installed_files'
p2
(dp3
S'../Kernel'
p4
(dp5
S'../Kernel/STTell1Board.h~'
p6
S'/afs/cern.ch/user/m/mneedham/cmtuser/Boole_v14r6/InstallArea/include/Kernel/STTell1Board.h~'
p7
sS'../Kernel/ISTReadoutTool.h~'
p8
S'/afs/cern.ch/user/m/mneedham/cmtuser/Boole_v14r6/InstallArea/include/Kernel/ISTReadoutTool.h~'
p9
sS'../Kernel/STDAQDefinitions.h'
p10
S'/afs/cern.ch/user/m/mneedham/cmtuser/Boole_v14r6/InstallArea/include/Kernel/STDAQDefinitions.h'
p11
sS'../Kernel/STBitsPolicy.h'
p12
S'/afs/cern.ch/user/m/mneedham/cmtuser/Boole_v14r6/InstallArea/include/Kernel/STBitsPolicy.h'
p13
sS'../Kernel/STDecoder.h'
p14
S'/afs/cern.ch/user/m/mneedham/cmtuser/Boole_v14r6/InstallArea/include/Kernel/STDecoder.h'
p15
sS'../Kernel/ISTReadoutTool.h'
p16
S'/afs/cern.ch/user/m/mneedham/cmtuser/Boole_v14r6/InstallArea/include/Kernel/ISTReadoutTool.h'
p17
sS'../Kernel/STClusterWord.h'
p18
S'/afs/cern.ch/user/m/mneedham/cmtuser/Boole_v14r6/InstallArea/include/Kernel/STClusterWord.h'
p19
sS'../Kernel/STTell1ID.h'
p20
S'/afs/cern.ch/user/m/mneedham/cmtuser/Boole_v14r6/InstallArea/include/Kernel/STTell1ID.h'
p21
sS'../Kernel/STTell1Board.h'
p22
S'/afs/cern.ch/user/m/mneedham/cmtuser/Boole_v14r6/InstallArea/include/Kernel/STTell1Board.h'
p23
sS'../Kernel/STClusterWord.h~'
p24
S'/afs/cern.ch/user/m/mneedham/cmtuser/Boole_v14r6/InstallArea/include/Kernel/STClusterWord.h~'
p25
sS'../Kernel/STDAQDefinitions.h~'
p26
S'/afs/cern.ch/user/m/mneedham/cmtuser/Boole_v14r6/InstallArea/include/Kernel/STDAQDefinitions.h~'
p27
sssb.