(dp0
I0
S'Iseg/can0/crate00/ma00/ch03'
p1
sI1
S'Iseg/can0/crate00/ma06/ch03'
p2
sI2
S'Iseg/can0/crate00/ma00/ch04'
p3
sI3
S'Iseg/can0/crate00/ma06/ch04'
p4
sI4
S'Iseg/can0/crate00/ma00/ch07'
p5
sI5
S'Iseg/can0/crate00/ma06/ch07'
p6
sI6
S'Iseg/can0/crate00/ma01/ch00'
p7
sI7
S'Iseg/can0/crate00/ma07/ch00'
p8
sI8
S'Iseg/can0/crate00/ma01/ch03'
p9
sI9
S'Iseg/can0/crate00/ma07/ch03'
p10
sI10
S'Iseg/can0/crate00/ma01/ch04'
p11
sI11
S'Iseg/can0/crate00/ma07/ch04'
p12
sI12
S'Iseg/can0/crate00/ma01/ch07'
p13
sI13
S'Iseg/can0/crate00/ma07/ch07'
p14
sI14
S'Iseg/can0/crate00/ma02/ch00'
p15
sI15
S'Iseg/can0/crate00/ma08/ch00'
p16
sI16
S'Iseg/can0/crate00/ma02/ch03'
p17
sI17
S'Iseg/can0/crate00/ma08/ch03'
p18
sI18
S'Iseg/can0/crate00/ma02/ch04'
p19
sI19
S'Iseg/can0/crate00/ma08/ch04'
p20
sI20
S'Iseg/can0/crate00/ma02/ch07'
p21
sI21
S'Iseg/can0/crate00/ma08/ch07'
p22
sI22
S'Iseg/can0/crate00/ma03/ch00'
p23
sI23
S'Iseg/can0/crate00/ma09/ch00'
p24
sI24
S'Iseg/can0/crate00/ma03/ch03'
p25
sI25
S'Iseg/can0/crate00/ma09/ch03'
p26
sI26
S'Iseg/can0/crate00/ma03/ch04'
p27
sI27
S'Iseg/can0/crate00/ma09/ch04'
p28
sI28
S'Iseg/can0/crate00/ma03/ch07'
p29
sI29
S'Iseg/can0/crate00/ma09/ch07'
p30
sI30
S'Iseg/can0/crate00/ma04/ch00'
p31
sI31
S'Iseg/can0/crate00/ma10/ch00'
p32
sI32
S'Iseg/can0/crate00/ma04/ch03'
p33
sI33
S'Iseg/can0/crate00/ma10/ch03'
p34
sI34
S'Iseg/can0/crate00/ma04/ch04'
p35
sI35
S'Iseg/can0/crate00/ma10/ch04'
p36
sI36
S'Iseg/can0/crate00/ma04/ch07'
p37
sI37
S'Iseg/can0/crate00/ma10/ch07'
p38
sI38
S'Iseg/can0/crate00/ma05/ch00'
p39
sI39
S'Iseg/can0/crate00/ma11/ch00'
p40
sI40
S'Iseg/can0/crate00/ma05/ch03'
p41
sI41
S'Iseg/can0/crate00/ma11/ch03'
p42
sI64
S'Iseg/can0/crate00/ma00/ch02'
p43
sI65
S'Iseg/can0/crate00/ma06/ch02'
p44
sI66
S'Iseg/can0/crate00/ma00/ch05'
p45
sI67
S'Iseg/can0/crate00/ma06/ch05'
p46
sI68
S'Iseg/can0/crate00/ma00/ch06'
p47
sI69
S'Iseg/can0/crate00/ma06/ch06'
p48
sI70
S'Iseg/can0/crate00/ma01/ch01'
p49
sI71
S'Iseg/can0/crate00/ma07/ch01'
p50
sI72
S'Iseg/can0/crate00/ma01/ch02'
p51
sI73
S'Iseg/can0/crate00/ma07/ch02'
p52
sI74
S'Iseg/can0/crate00/ma01/ch05'
p53
sI75
S'Iseg/can0/crate00/ma07/ch05'
p54
sI76
S'Iseg/can0/crate00/ma01/ch06'
p55
sI77
S'Iseg/can0/crate00/ma07/ch06'
p56
sI78
S'Iseg/can0/crate00/ma02/ch01'
p57
sI79
S'Iseg/can0/crate00/ma08/ch01'
p58
sI80
S'Iseg/can0/crate00/ma02/ch02'
p59
sI81
S'Iseg/can0/crate00/ma08/ch02'
p60
sI82
S'Iseg/can0/crate00/ma02/ch05'
p61
sI83
S'Iseg/can0/crate00/ma08/ch05'
p62
sI84
S'Iseg/can0/crate00/ma02/ch06'
p63
sI85
S'Iseg/can0/crate00/ma08/ch06'
p64
sI86
S'Iseg/can0/crate00/ma03/ch01'
p65
sI87
S'Iseg/can0/crate00/ma09/ch01'
p66
sI88
S'Iseg/can0/crate00/ma03/ch02'
p67
sI89
S'Iseg/can0/crate00/ma09/ch02'
p68
sI90
S'Iseg/can0/crate00/ma03/ch05'
p69
sI91
S'Iseg/can0/crate00/ma09/ch05'
p70
sI92
S'Iseg/can0/crate00/ma03/ch06'
p71
sI93
S'Iseg/can0/crate00/ma09/ch06'
p72
sI94
S'Iseg/can0/crate00/ma04/ch01'
p73
sI95
S'Iseg/can0/crate00/ma10/ch01'
p74
sI96
S'Iseg/can0/crate00/ma04/ch02'
p75
sI97
S'Iseg/can0/crate00/ma10/ch02'
p76
sI98
S'Iseg/can0/crate00/ma04/ch05'
p77
sI99
S'Iseg/can0/crate00/ma10/ch05'
p78
sI100
S'Iseg/can0/crate00/ma04/ch06'
p79
sI101
S'Iseg/can0/crate00/ma10/ch06'
p80
sI102
S'Iseg/can0/crate00/ma05/ch01'
p81
sI103
S'Iseg/can0/crate00/ma11/ch01'
p82
sI104
S'Iseg/can0/crate00/ma05/ch02'
p83
sI105
S'Iseg/can0/crate00/ma11/ch02'
p84
sI128
S'Iseg/can0/crate00/ma00/ch00'
p85
sI129
S'Iseg/can0/crate00/ma06/ch00'
p86
sI130
S'Iseg/can0/crate00/ma00/ch01'
p87
sI131
S'Iseg/can0/crate00/ma06/ch01'
p88
s.