(i__main__
LogFile
p0
(dp1
S'_installed_files'
p2
(dp3
S'../../Gen/Generators/genConf/Generators'
p4
(dp5
S'../../../Gen/Generators/genConf/Generators/Generators_confDb.py'
p6
S'../../../InstallArea/python/Generators/Generators_confDb.py'
p7
sS'../../../Gen/Generators/genConf/Generators/GeneratorsConf.py'
p8
S'../../../InstallArea/python/Generators/GeneratorsConf.py'
p9
ssS'../../Gen/Generators/Generators'
p10
(dp11
S'../../../Gen/Generators/Generators/IGenCutTool.h'
p12
S'../../../InstallArea/include/Generators/IGenCutTool.h'
p13
sS'../../../Gen/Generators/Generators/RandomForGenerator.h'
p14
S'../../../InstallArea/include/Generators/RandomForGenerator.h'
p15
sS'../../../Gen/Generators/Generators/Signal.h'
p16
S'../../../InstallArea/include/Generators/Signal.h'
p17
sS'../../../Gen/Generators/Generators/HepMCUtils.h'
p18
S'../../../InstallArea/include/Generators/HepMCUtils.h'
p19
sS'../../../Gen/Generators/Generators/ISampleGenerationTool.h'
p20
S'../../../InstallArea/include/Generators/ISampleGenerationTool.h'
p21
sS'../../../Gen/Generators/Generators/IBeamTool.h'
p22
S'../../../InstallArea/include/Generators/IBeamTool.h'
p23
sS'../../../Gen/Generators/Generators/IFullGenEventCutTool.h'
p24
S'../../../InstallArea/include/Generators/IFullGenEventCutTool.h'
p25
sS'../../../Gen/Generators/Generators/IPileUpTool.h'
p26
S'../../../InstallArea/include/Generators/IPileUpTool.h'
p27
sS'../../../Gen/Generators/Generators/ExternalGenerator.h'
p28
S'../../../InstallArea/include/Generators/ExternalGenerator.h'
p29
sS'../../../Gen/Generators/Generators/IProductionTool.h'
p30
S'../../../InstallArea/include/Generators/IProductionTool.h'
p31
sS'../../../Gen/Generators/Generators/IDecayTool.h'
p32
S'../../../InstallArea/include/Generators/IDecayTool.h'
p33
sS'../../../Gen/Generators/Generators/LhaPdf.h'
p34
S'../../../InstallArea/include/Generators/LhaPdf.h'
p35
sS'../../../Gen/Generators/Generators/LHAPDFCommonBlocks.h'
p36
S'../../../InstallArea/include/Generators/LHAPDFCommonBlocks.h'
p37
sS'../../../Gen/Generators/Generators/Scale.h'
p38
S'../../../InstallArea/include/Generators/Scale.h'
p39
sS'../../../Gen/Generators/Generators/F77Utils.h'
p40
S'../../../InstallArea/include/Generators/F77Utils.h'
p41
sS'../../../Gen/Generators/Generators/StreamForGenerator.h'
p42
S'../../../InstallArea/include/Generators/StreamForGenerator.h'
p43
sS'../../../Gen/Generators/Generators/StringParse.h'
p44
S'../../../InstallArea/include/Generators/StringParse.h'
p45
sS'../../../Gen/Generators/Generators/GenCounters.h'
p46
S'../../../InstallArea/include/Generators/GenCounters.h'
p47
sS'../../../Gen/Generators/Generators/IVertexSmearingTool.h'
p48
S'../../../InstallArea/include/Generators/IVertexSmearingTool.h'
p49
sssb.