(i__main__
LogFile
p0
(dp1
S'_installed_files'
p2
(dp3
S'../../../Phys/DecayTreeTupleANNPID/x86_64-slc6-gcc48-opt/libDecayTreeTupleANNPID.so'
p4
S'../../../InstallArea/x86_64-slc6-gcc48-opt/lib/libDecayTreeTupleANNPID.so'
p5
sS'../../../Phys/DecayTreeTupleANNPID/x86_64-slc6-gcc48-opt/genConf/DecayTreeTupleANNPID'
p6
(dp7
S'../../../../Phys/DecayTreeTupleANNPID/x86_64-slc6-gcc48-opt/genConf/DecayTreeTupleANNPID/DecayTreeTupleANNPIDConf.py'
p8
S'../../../InstallArea/x86_64-slc6-gcc48-opt/python/DecayTreeTupleANNPID/DecayTreeTupleANNPIDConf.py'
p9
sS'../../../../Phys/DecayTreeTupleANNPID/x86_64-slc6-gcc48-opt/genConf/DecayTreeTupleANNPID/DecayTreeTupleANNPID_confDb.py'
p10
S'../../../InstallArea/x86_64-slc6-gcc48-opt/python/DecayTreeTupleANNPID/DecayTreeTupleANNPID_confDb.py'
p11
ssS'../../../../../../../../../../cvmfs/lhcb.cern.ch/lib/lhcb/GAUDI/GAUDI_v25r0/GaudiPolicy/cmt/fragments/__init__.py'
p12
S'../../../InstallArea/x86_64-slc6-gcc48-opt/python/DecayTreeTupleANNPID/__init__.py'
p13
ssb.