(dp0
S'0eeb8ece5d3daecbc140b0e3ef0a132f'
p1
(dp2
S'RunData'
p3
(dp4
I69645
(dp5
S'Start'
p6
cdatetime
datetime
p7
(S'\x07\xda\x04\x06\x03\x08\x00\x00\x00\x00'
p8
tp9
Rp10
sS'Fill'
p11
I1023
sS'Stop'
p12
g7
(S'\x07\xda\x04\x06\x04\x02\x00\x00\x00\x00'
p13
tp14
Rp15
sS'FieldPolarity'
p16
S'MagDown'
p17
ssI69647
(dp18
g6
g7
(S'\x07\xda\x04\x06\x04\x06\x00\x00\x00\x00'
p19
tp20
Rp21
sg11
I1023
sg12
g7
(S'\x07\xda\x04\x06\x07,\x00\x00\x00\x00'
p22
tp23
Rp24
sg16
S'MagDown'
p25
ssI69648
(dp26
g6
g7
(S'\x07\xda\x04\x06\x07,\x00\x00\x00\x00'
p27
tp28
Rp29
sg11
I1023
sg12
g7
(S'\x07\xda\x04\x06\x0e(\x00\x00\x00\x00'
p30
tp31
Rp32
sg16
S'MagDown'
p33
ssI69649
(dp34
g6
g7
(S'\x07\xda\x04\x06\x0e*\x00\x00\x00\x00'
p35
tp36
Rp37
sg11
I1023
sg12
g7
(S'\x07\xda\x04\x06\x0e7\x00\x00\x00\x00'
p38
tp39
Rp40
sg16
S'MagDown'
p41
ssI69666
(dp42
g6
g7
(S'\x07\xda\x04\x07\n0\x00\x00\x00\x00'
p43
tp44
Rp45
sg11
I1026
sg12
g7
(S'\x07\xda\x04\x07\n7\x00\x00\x00\x00'
p46
tp47
Rp48
sg16
S'MagDown'
p49
ssI69667
(dp50
g6
g7
(S'\x07\xda\x04\x07\n7\x00\x00\x00\x00'
p51
tp52
Rp53
sg11
I1026
sg12
g7
(S'\x07\xda\x04\x07\x0b\x0e\x00\x00\x00\x00'
p54
tp55
Rp56
sg16
S'MagDown'
p57
ssI69669
(dp58
g6
g7
(S'\x07\xda\x04\x07\x0b\x1a\x00\x00\x00\x00'
p59
tp60
Rp61
sg11
I1026
sg12
g7
(S'\x07\xda\x04\x07\x0c*\x00\x00\x00\x00'
p62
tp63
Rp64
sg16
S'MagDown'
p65
ssI69672
(dp66
g6
g7
(S'\x07\xda\x04\x07\x0c3\x00\x00\x00\x00'
p67
tp68
Rp69
sg11
I1026
sg12
g7
(S'\x07\xda\x04\x07\x0c7\x00\x00\x00\x00'
p70
tp71
Rp72
sg16
S'MagDown'
p73
ssI77865
(dp74
g6
g7
(S'\x07\xda\x08\x14\x01+8\x00\x00\x00'
p75
tp76
Rp77
sg11
I1295
sg12
g7
(S'\x07\xda\x08\x14\x03,\x0f\x00\x00\x00'
p78
tp79
Rp80
sg16
S'MagUp'
p81
ssI77866
(dp82
g6
g7
(S'\x07\xda\x08\x14\x03,\x10\x00\x00\x00'
p83
tp84
Rp85
sg11
I1295
sg12
g7
(S'\x07\xda\x08\x14\x05,$\x00\x00\x00'
p86
tp87
Rp88
sg16
S'MagUp'
p89
ssI77867
(dp90
g6
g7
(S'\x07\xda\x08\x14\x05,$\x00\x00\x00'
p91
tp92
Rp93
sg11
I1295
sg12
g7
(S'\x07\xda\x08\x14\x07\x1b\x00\x00\x00\x00'
p94
tp95
Rp96
sg16
S'MagUp'
p97
ssI77868
(dp98
g6
g7
(S'\x07\xda\x08\x14\x07\x1b\x01\x00\x00\x00'
p99
tp100
Rp101
sg11
I1295
sg12
g7
(S'\x07\xda\x08\x14\x07\x1b1\x00\x00\x00'
p102
tp103
Rp104
sg16
S'MagUp'
p105
ssI77869
(dp106
g6
g7
(S'\x07\xda\x08\x14\x07\x1b2\x00\x00\x00'
p107
tp108
Rp109
sg11
I1295
sg12
g7
(S'\x07\xda\x08\x14\x08\x06\x06\x00\x00\x00'
p110
tp111
Rp112
sg16
S'MagUp'
p113
ssI77870
(dp114
g6
g7
(S'\x07\xda\x08\x14\x08\x06\x06\x00\x00\x00'
p115
tp116
Rp117
sg11
I1295
sg12
g7
(S'\x07\xda\x08\x14\x08\x0b\r\x00\x00\x00'
p118
tp119
Rp120
sg16
S'MagUp'
p121
ssI77871
(dp122
g6
g7
(S'\x07\xda\x08\x14\x08\x0b\x0e\x00\x00\x00'
p123
tp124
Rp125
sg11
I1295
sg12
g7
(S'\x07\xda\x08\x14\x08#.\x00\x00\x00'
p126
tp127
Rp128
sg16
S'MagUp'
p129
ssI77872
(dp130
g6
g7
(S'\x07\xda\x08\x14\x08#.\x00\x00\x00'
p131
tp132
Rp133
sg11
I1295
sg12
g7
(S'\x07\xda\x08\x14\x087:\x00\x00\x00'
p134
tp135
Rp136
sg16
S'MagUp'
p137
ssI77873
(dp138
g6
g7
(S'\x07\xda\x08\x14\x087:\x00\x00\x00'
p139
tp140
Rp141
sg11
I1295
sg12
g7
(S'\x07\xda\x08\x14\t\x12\x0f\x00\x00\x00'
p142
tp143
Rp144
sg16
S'MagUp'
p145
ssI77874
(dp146
g6
g7
(S'\x07\xda\x08\x14\t\x12\x10\x00\x00\x00'
p147
tp148
Rp149
sg11
I1295
sg12
g7
(S'\x07\xda\x08\x14\x0b\x12$\x00\x00\x00'
p150
tp151
Rp152
sg16
S'MagUp'
p153
ssI77875
(dp154
g6
g7
(S'\x07\xda\x08\x14\x0b\x12%\x00\x00\x00'
p155
tp156
Rp157
sg11
I1295
sg12
g7
(S'\x07\xda\x08\x14\x0c\x1b;\x00\x00\x00'
p158
tp159
Rp160
sg16
S'MagUp'
p161
ssI77881
(dp162
g6
g7
(S'\x07\xda\x08\x14\x0c(\x19\x00\x00\x00'
p163
tp164
Rp165
sg11
I1295
sg12
g7
(S'\x07\xda\x08\x14\x0e\n\x07\x00\x00\x00'
p166
tp167
Rp168
sg16
S'MagUp'
p169
ssI71803
(dp170
g6
g7
(S'\x07\xda\x05\x0e\r\x07\x00\x00\x00\x00'
p171
tp172
Rp173
sg11
I1101
sg12
g7
(S'\x07\xda\x05\x0e\r;\x00\x00\x00\x00'
p174
tp175
Rp176
sg16
S'MagDown'
p177
ssI71804
(dp178
g6
g7
(S'\x07\xda\x05\x0e\r;\x00\x00\x00\x00'
p179
tp180
Rp181
sg11
I1101
sg12
g7
(S'\x07\xda\x05\x0e\x0e\x0e\x00\x00\x00\x00'
p182
tp183
Rp184
sg16
S'MagDown'
p185
ssI71805
(dp186
g6
g7
(S'\x07\xda\x05\x0e\x0e\x0e\x00\x00\x00\x00'
p187
tp188
Rp189
sg11
I1101
sg12
g7
(S'\x07\xda\x05\x0e\x10\x04\x00\x00\x00\x00'
p190
tp191
Rp192
sg16
S'MagDown'
p193
ssI71806
(dp194
g6
g7
(S'\x07\xda\x05\x0e\x10\x04\x00\x00\x00\x00'
p195
tp196
Rp197
sg11
I1101
sg12
g7
(S'\x07\xda\x05\x0e\x10-\x00\x00\x00\x00'
p198
tp199
Rp200
sg16
S'MagDown'
p201
ssI71807
(dp202
g6
g7
(S'\x07\xda\x05\x0e\x104\x00\x00\x00\x00'
p203
tp204
Rp205
sg11
I1101
sg12
g7
(S'\x07\xda\x05\x0e\x109\x00\x00\x00\x00'
p206
tp207
Rp208
sg16
S'MagDown'
p209
ssI71808
(dp210
g6
g7
(S'\x07\xda\x05\x0e\x109\x00\x00\x00\x00'
p211
tp212
Rp213
sg11
I1101
sg12
g7
(S'\x07\xda\x05\x0e\x11\x04\x00\x00\x00\x00'
p214
tp215
Rp216
sg16
S'MagDown'
p217
ssI71809
(dp218
g6
g7
(S'\x07\xda\x05\x0e\x11\x04\x00\x00\x00\x00'
p219
tp220
Rp221
sg11
I1101
sg12
g7
(S'\x07\xda\x05\x0e\x11\x07\x00\x00\x00\x00'
p222
tp223
Rp224
sg16
S'MagDown'
p225
ssI71810
(dp226
g6
g7
(S'\x07\xda\x05\x0e\x11\x07\x00\x00\x00\x00'
p227
tp228
Rp229
sg11
I1101
sg12
g7
(S'\x07\xda\x05\x0e\x11\x0e\x00\x00\x00\x00'
p230
tp231
Rp232
sg16
S'MagDown'
p233
ssI71811
(dp234
g6
g7
(S'\x07\xda\x05\x0e\x11\x0e\x00\x00\x00\x00'
p235
tp236
Rp237
sg11
I1101
sg12
g7
(S'\x07\xda\x05\x0e\x11\x15\x00\x00\x00\x00'
p238
tp239
Rp240
sg16
S'MagDown'
p241
ssI71812
(dp242
g6
g7
(S'\x07\xda\x05\x0e\x11\x15\x00\x00\x00\x00'
p243
tp244
Rp245
sg11
I1101
sg12
g7
(S'\x07\xda\x05\x0e\x12\x0e\x00\x00\x00\x00'
p246
tp247
Rp248
sg16
S'MagDown'
p249
ssI71813
(dp250
g6
g7
(S'\x07\xda\x05\x0e\x12 \x00\x00\x00\x00'
p251
tp252
Rp253
sg11
I1101
sg12
g7
(S'\x07\xda\x05\x0e\x14\r\x00\x00\x00\x00'
p254
tp255
Rp256
sg16
S'MagDown'
p257
ssI71815
(dp258
g6
g7
(S'\x07\xda\x05\x0e\x14\x15\x00\x00\x00\x00'
p259
tp260
Rp261
sg11
I1101
sg12
g7
(S'\x07\xda\x05\x0e\x15/\x00\x00\x00\x00'
p262
tp263
Rp264
sg16
S'MagDown'
p265
ssI71816
(dp266
g6
g7
(S'\x07\xda\x05\x0e\x15/\x00\x00\x00\x00'
p267
tp268
Rp269
sg11
I1101
sg12
g7
(S'\x07\xda\x05\x0e\x17/\x00\x00\x00\x00'
p270
tp271
Rp272
sg16
S'MagDown'
p273
ssI77968
(dp274
g6
g7
(S'\x07\xda\x08\x17\x0188\x00\x00\x00'
p275
tp276
Rp277
sg11
I1298
sg12
g7
(S'\x07\xda\x08\x17\x02\x1b,\x00\x00\x00'
p278
tp279
Rp280
sg16
S'MagUp'
p281
ssI77969
(dp282
g6
g7
(S'\x07\xda\x08\x17\x02\x1b-\x00\x00\x00'
p283
tp284
Rp285
sg11
I1298
sg12
g7
(S'\x07\xda\x08\x17\x03.-\x00\x00\x00'
p286
tp287
Rp288
sg16
S'MagUp'
p289
ssI77971
(dp290
g6
g7
(S'\x07\xda\x08\x17\x030\x14\x00\x00\x00'
p291
tp292
Rp293
sg11
I1298
sg12
g7
(S'\x07\xda\x08\x17\x050$\x00\x00\x00'
p294
tp295
Rp296
sg16
S'MagUp'
p297
ssI77972
(dp298
g6
g7
(S'\x07\xda\x08\x17\x050%\x00\x00\x00'
p299
tp300
Rp301
sg11
I1298
sg12
g7
(S'\x07\xda\x08\x17\x0707\x00\x00\x00'
p302
tp303
Rp304
sg16
S'MagUp'
p305
ssI77973
(dp306
g6
g7
(S'\x07\xda\x08\x17\x0708\x00\x00\x00'
p307
tp308
Rp309
sg11
I1298
sg12
g7
(S'\x07\xda\x08\x17\t\x04\x01\x00\x00\x00'
p310
tp311
Rp312
sg16
S'MagUp'
p313
ssI77974
(dp314
g6
g7
(S'\x07\xda\x08\x17\t\x04\x01\x00\x00\x00'
p315
tp316
Rp317
sg11
I1298
sg12
g7
(S'\x07\xda\x08\x17\t7\x1f\x00\x00\x00'
p318
tp319
Rp320
sg16
S'MagUp'
p321
ssI77975
(dp322
g6
g7
(S'\x07\xda\x08\x17\t7 \x00\x00\x00'
p323
tp324
Rp325
sg11
I1298
sg12
g7
(S'\x07\xda\x08\x17\n\x0e*\x00\x00\x00'
p326
tp327
Rp328
sg16
S'MagUp'
p329
ssI77976
(dp330
g6
g7
(S'\x07\xda\x08\x17\n\x0e+\x00\x00\x00'
p331
tp332
Rp333
sg11
I1298
sg12
g7
(S'\x07\xda\x08\x17\n3\x0f\x00\x00\x00'
p334
tp335
Rp336
sg16
S'MagUp'
p337
ssI77977
(dp338
g6
g7
(S'\x07\xda\x08\x17\n3\x10\x00\x00\x00'
p339
tp340
Rp341
sg11
I1298
sg12
g7
(S'\x07\xda\x08\x17\x0b\x13"\x00\x00\x00'
p342
tp343
Rp344
sg16
S'MagUp'
p345
ssI77979
(dp346
g6
g7
(S"\x07\xda\x08\x17\x0b\x14'\x00\x00\x00"
p347
tp348
Rp349
sg11
I1298
sg12
g7
(S'\x07\xda\x08\x17\x0c\x145\x00\x00\x00'
p350
tp351
Rp352
sg16
S'MagUp'
p353
ssI77980
(dp354
g6
g7
(S'\x07\xda\x08\x17\x0c\x146\x00\x00\x00'
p355
tp356
Rp357
sg11
I1298
sg12
g7
(S'\x07\xda\x08\x17\r\x15\x0e\x00\x00\x00'
p358
tp359
Rp360
sg16
S'MagUp'
p361
ssI77981
(dp362
g6
g7
(S'\x07\xda\x08\x17\r\x15\x0f\x00\x00\x00'
p363
tp364
Rp365
sg11
I1298
sg12
g7
(S'\x07\xda\x08\x17\r)&\x00\x00\x00'
p366
tp367
Rp368
sg16
S'MagUp'
p369
ssI77982
(dp370
g6
g7
(S"\x07\xda\x08\x17\r)'\x00\x00\x00"
p371
tp372
Rp373
sg11
I1298
sg12
g7
(S'\x07\xda\x08\x17\r4%\x00\x00\x00'
p374
tp375
Rp376
sg16
S'MagUp'
p377
ssI71857
(dp378
g6
g7
(S'\x07\xda\x05\x0f\x11\x14\x00\x00\x00\x00'
p379
tp380
Rp381
sg11
I1104
sg12
g7
(S'\x07\xda\x05\x0f\x13\x14\x00\x00\x00\x00'
p382
tp383
Rp384
sg16
S'MagUp'
p385
ssI71859
(dp386
g6
g7
(S'\x07\xda\x05\x0f\x13\x1b\x00\x00\x00\x00'
p387
tp388
Rp389
sg11
I1104
sg12
g7
(S'\x07\xda\x05\x0f\x14\x19\x00\x00\x00\x00'
p390
tp391
Rp392
sg16
S'MagUp'
p393
ssI71860
(dp394
g6
g7
(S'\x07\xda\x05\x0f\x14\x19\x00\x00\x00\x00'
p395
tp396
Rp397
sg11
I1104
sg12
g7
(S'\x07\xda\x05\x0f\x15"\x00\x00\x00\x00'
p398
tp399
Rp400
sg16
S'MagUp'
p401
ssI71861
(dp402
g6
g7
(S'\x07\xda\x05\x0f\x15"\x00\x00\x00\x00'
p403
tp404
Rp405
sg11
I1104
sg12
g7
(S'\x07\xda\x05\x0f\x16\x1a\x00\x00\x00\x00'
p406
tp407
Rp408
sg16
S'MagUp'
p409
ssI71862
(dp410
g6
g7
(S'\x07\xda\x05\x0f\x16\x1a\x00\x00\x00\x00'
p411
tp412
Rp413
sg11
I1104
sg12
g7
(S'\x07\xda\x05\x0f\x17\x1a\x00\x00\x00\x00'
p414
tp415
Rp416
sg16
S'MagUp'
p417
ssI71863
(dp418
g6
g7
(S'\x07\xda\x05\x0f\x17\x1a\x00\x00\x00\x00'
p419
tp420
Rp421
sg11
I1104
sg12
g7
(S'\x07\xda\x05\x10\x00\x0f\x00\x00\x00\x00'
p422
tp423
Rp424
sg16
S'MagUp'
p425
ssI71864
(dp426
g6
g7
(S'\x07\xda\x05\x10\x00\x0f\x00\x00\x00\x00'
p427
tp428
Rp429
sg11
I1104
sg12
g7
(S'\x07\xda\x05\x10\x00\x13\x00\x00\x00\x00'
p430
tp431
Rp432
sg16
S'MagUp'
p433
ssI71865
(dp434
g6
g7
(S'\x07\xda\x05\x10\x00\x19\x00\x00\x00\x00'
p435
tp436
Rp437
sg11
I1104
sg12
g7
(S'\x07\xda\x05\x10\x00\x1c\x00\x00\x00\x00'
p438
tp439
Rp440
sg16
S'MagUp'
p441
ssI78010
(dp442
g6
g7
(S'\x07\xda\x08\x18\x00:*\x00\x00\x00'
p443
tp444
Rp445
sg11
I1299
sg12
g7
(S'\x07\xda\x08\x18\x01\x06\x1c\x00\x00\x00'
p446
tp447
Rp448
sg16
S'MagUp'
p449
ssI71867
(dp450
g6
g7
(S'\x07\xda\x05\x10\x009\x00\x00\x00\x00'
p451
tp452
Rp453
sg11
I1104
sg12
g7
(S'\x07\xda\x05\x10\x02\x02\x00\x00\x00\x00'
p454
tp455
Rp456
sg16
S'MagUp'
p457
ssI78012
(dp458
g6
g7
(S'\x07\xda\x08\x18\x01.\x1e\x00\x00\x00'
p459
tp460
Rp461
sg11
I1299
sg12
g7
(S'\x07\xda\x08\x18\x01;\r\x00\x00\x00'
p462
tp463
Rp464
sg16
S'MagUp'
p465
ssI71869
(dp466
g6
g7
(S'\x07\xda\x05\x10\x03\x16\x00\x00\x00\x00'
p467
tp468
Rp469
sg11
I1104
sg12
g7
(S'\x07\xda\x05\x10\x03+\x00\x00\x00\x00'
p470
tp471
Rp472
sg16
S'MagUp'
p473
ssI78014
(dp474
g6
g7
(S'\x07\xda\x08\x18\x02;(\x00\x00\x00'
p475
tp476
Rp477
sg11
I1299
sg12
g7
(S'\x07\xda\x08\x18\x03\x1b\x16\x00\x00\x00'
p478
tp479
Rp480
sg16
S'MagUp'
p481
ssI71871
(dp482
g6
g7
(S'\x07\xda\x05\x10\x033\x00\x00\x00\x00'
p483
tp484
Rp485
sg11
I1104
sg12
g7
(S'\x07\xda\x05\x10\x034\x00\x00\x00\x00'
p486
tp487
Rp488
sg16
S'MagUp'
p489
ssI71872
(dp490
g6
g7
(S'\x07\xda\x05\x10\x03;\x00\x00\x00\x00'
p491
tp492
Rp493
sg11
I1104
sg12
g7
(S'\x07\xda\x05\x10\x04\x01\x00\x00\x00\x00'
p494
tp495
Rp496
sg16
S'MagUp'
p497
ssI71873
(dp498
g6
g7
(S'\x07\xda\x05\x10\x04\x01\x00\x00\x00\x00'
p499
tp500
Rp501
sg11
I1104
sg12
g7
(S'\x07\xda\x05\x10\x04\x07\x00\x00\x00\x00'
p502
tp503
Rp504
sg16
S'MagUp'
p505
ssI71876
(dp506
g6
g7
(S'\x07\xda\x05\x10\x04\x10\x00\x00\x00\x00'
p507
tp508
Rp509
sg11
I1104
sg12
g7
(S'\x07\xda\x05\x10\x04\x19\x00\x00\x00\x00'
p510
tp511
Rp512
sg16
S'MagUp'
p513
ssI71877
(dp514
g6
g7
(S'\x07\xda\x05\x10\x04\x1f\x00\x00\x00\x00'
p515
tp516
Rp517
sg11
I1104
sg12
g7
(S'\x07\xda\x05\x10\x05)\x00\x00\x00\x00'
p518
tp519
Rp520
sg16
S'MagUp'
p521
ssI71878
(dp522
g6
g7
(S'\x07\xda\x05\x10\x05)\x00\x00\x00\x00'
p523
tp524
Rp525
sg11
I1104
sg12
g7
(S'\x07\xda\x05\x10\x06!\x00\x00\x00\x00'
p526
tp527
Rp528
sg16
S'MagUp'
p529
ssI71879
(dp530
g6
g7
(S'\x07\xda\x05\x10\x06!\x00\x00\x00\x00'
p531
tp532
Rp533
sg11
I1104
sg12
g7
(S'\x07\xda\x05\x10\x066\x00\x00\x00\x00'
p534
tp535
Rp536
sg16
S'MagUp'
p537
ssI71880
(dp538
g6
g7
(S'\x07\xda\x05\x10\x066\x00\x00\x00\x00'
p539
tp540
Rp541
sg11
I1104
sg12
g7
(S'\x07\xda\x05\x10\x07\x02\x00\x00\x00\x00'
p542
tp543
Rp544
sg16
S'MagUp'
p545
ssI71881
(dp546
g6
g7
(S'\x07\xda\x05\x10\x07\x02\x00\x00\x00\x00'
p547
tp548
Rp549
sg11
I1104
sg12
g7
(S'\x07\xda\x05\x10\x08\x03\x00\x00\x00\x00'
p550
tp551
Rp552
sg16
S'MagUp'
p553
ssI71882
(dp554
g6
g7
(S'\x07\xda\x05\x10\x08\x03\x00\x00\x00\x00'
p555
tp556
Rp557
sg11
I1104
sg12
g7
(S'\x07\xda\x05\x10\t\x1d\x00\x00\x00\x00'
p558
tp559
Rp560
sg16
S'MagUp'
p561
ssI71883
(dp562
g6
g7
(S'\x07\xda\x05\x10\t\x1d\x00\x00\x00\x00'
p563
tp564
Rp565
sg11
I1104
sg12
g7
(S'\x07\xda\x05\x10\n.\x00\x00\x00\x00'
p566
tp567
Rp568
sg16
S'MagUp'
p569
ssI71885
(dp570
g6
g7
(S'\x07\xda\x05\x10\x0b\x01\x00\x00\x00\x00'
p571
tp572
Rp573
sg11
I1104
sg12
g7
(S'\x07\xda\x05\x10\x0b"\x00\x00\x00\x00'
p574
tp575
Rp576
sg16
S'MagUp'
p577
ssI71886
(dp578
g6
g7
(S'\x07\xda\x05\x10\x0b#\x00\x00\x00\x00'
p579
tp580
Rp581
sg11
I1104
sg12
g7
(S'\x07\xda\x05\x10\x0c4\x00\x00\x00\x00'
p582
tp583
Rp584
sg16
S'MagUp'
p585
ssI71887
(dp586
g6
g7
(S'\x07\xda\x05\x10\x0c4\x00\x00\x00\x00'
p587
tp588
Rp589
sg11
I1104
sg12
g7
(S'\x07\xda\x05\x10\x0e\x03\x00\x00\x00\x00'
p590
tp591
Rp592
sg16
S'MagUp'
p593
ssI69856
(dp594
g6
g7
(S'\x07\xda\x04\n\x08\x12\x00\x00\x00\x00'
p595
tp596
Rp597
sg11
I1031
sg12
g7
(S'\x07\xda\x04\n\n\x1b\x00\x00\x00\x00'
p598
tp599
Rp600
sg16
S'MagDown'
p601
ssI69857
(dp602
g6
g7
(S'\x07\xda\x04\n\n#\x00\x00\x00\x00'
p603
tp604
Rp605
sg11
I1031
sg12
g7
(S'\x07\xda\x04\n\x0b\x12\x00\x00\x00\x00'
p606
tp607
Rp608
sg16
S'MagDown'
p609
ssI69858
(dp610
g6
g7
(S'\x07\xda\x04\n\x0b\x1c\x00\x00\x00\x00'
p611
tp612
Rp613
sg11
I1031
sg12
g7
(S'\x07\xda\x04\n\x0c\x1b\x00\x00\x00\x00'
p614
tp615
Rp616
sg16
S'MagDown'
p617
ssI78051
(dp618
g6
g7
(S'\x07\xda\x08\x18\x11+3\x00\x00\x00'
p619
tp620
Rp621
sg11
I1301
sg12
g7
(S'\x07\xda\x08\x18\x12\x0f0\x00\x00\x00'
p622
tp623
Rp624
sg16
S'MagUp'
p625
ssI69860
(dp626
g6
g7
(S'\x07\xda\x04\n\x0c\x1c\x00\x00\x00\x00'
p627
tp628
Rp629
sg11
I1031
sg12
g7
(S'\x07\xda\x04\n\r\x1f\x00\x00\x00\x00'
p630
tp631
Rp632
sg16
S'MagDown'
p633
ssI78053
(dp634
g6
g7
(S"\x07\xda\x08\x18\x12\x19'\x00\x00\x00"
p635
tp636
Rp637
sg11
I1301
sg12
g7
(S'\x07\xda\x08\x18\x12"\x1b\x00\x00\x00'
p638
tp639
Rp640
sg16
S'MagUp'
p641
ssI69862
(dp642
g6
g7
(S'\x07\xda\x04\n\r)\x00\x00\x00\x00'
p643
tp644
Rp645
sg11
I1031
sg12
g7
(S'\x07\xda\x04\n\x0e\x07\x00\x00\x00\x00'
p646
tp647
Rp648
sg16
S'MagDown'
p649
ssI78055
(dp650
g6
g7
(S"\x07\xda\x08\x18\x12':\x00\x00\x00"
p651
tp652
Rp653
sg11
I1301
sg12
g7
(S'\x07\xda\x08\x18\x12)$\x00\x00\x00'
p654
tp655
Rp656
sg16
S'MagUp'
p657
ssI78056
(dp658
g6
g7
(S'\x07\xda\x08\x18\x12)%\x00\x00\x00'
p659
tp660
Rp661
sg11
I1301
sg12
g7
(S'\x07\xda\x08\x18\x12-\x0b\x00\x00\x00'
p662
tp663
Rp664
sg16
S'MagUp'
p665
ssI78057
(dp666
g6
g7
(S'\x07\xda\x08\x18\x12-\x0b\x00\x00\x00'
p667
tp668
Rp669
sg11
I1301
sg12
g7
(S'\x07\xda\x08\x18\x12/\n\x00\x00\x00'
p670
tp671
Rp672
sg16
S'MagUp'
p673
ssI69866
(dp674
g6
g7
(S'\x07\xda\x04\n\x0e\x07\x00\x00\x00\x00'
p675
tp676
Rp677
sg11
I1031
sg12
g7
(S'\x07\xda\x04\n\x0f$\x00\x00\x00\x00'
p678
tp679
Rp680
sg16
S'MagDown'
p681
ssI78059
(dp682
g6
g7
(S'\x07\xda\x08\x18\x127\x1c\x00\x00\x00'
p683
tp684
Rp685
sg11
I1301
sg12
g7
(S'\x07\xda\x08\x18\x13\x08$\x00\x00\x00'
p686
tp687
Rp688
sg16
S'MagUp'
p689
ssI78060
(dp690
g6
g7
(S'\x07\xda\x08\x18\x13\x08$\x00\x00\x00'
p691
tp692
Rp693
sg11
I1301
sg12
g7
(S'\x07\xda\x08\x18\x13\x082\x00\x00\x00'
p694
tp695
Rp696
sg16
S'MagUp'
p697
ssI78061
(dp698
g6
g7
(S'\x07\xda\x08\x18\x13\x082\x00\x00\x00'
p699
tp700
Rp701
sg11
I1301
sg12
g7
(S'\x07\xda\x08\x18\x13\n\x1d\x00\x00\x00'
p702
tp703
Rp704
sg16
S'MagUp'
p705
ssI78062
(dp706
g6
g7
(S'\x07\xda\x08\x18\x13\x0e0\x00\x00\x00'
p707
tp708
Rp709
sg11
I1301
sg12
g7
(S'\x07\xda\x08\x18\x13\x114\x00\x00\x00'
p710
tp711
Rp712
sg16
S'MagUp'
p713
ssI71919
(dp714
g6
g7
(S'\x07\xda\x05\x11\x06$\x00\x00\x00\x00'
p715
tp716
Rp717
sg11
I1107
sg12
g7
(S'\x07\xda\x05\x11\x08%\x00\x00\x00\x00'
p718
tp719
Rp720
sg16
S'MagUp'
p721
ssI71920
(dp722
g6
g7
(S'\x07\xda\x05\x11\x08%\x00\x00\x00\x00'
p723
tp724
Rp725
sg11
I1107
sg12
g7
(S'\x07\xda\x05\x11\n%\x00\x00\x00\x00'
p726
tp727
Rp728
sg16
S'MagUp'
p729
ssI71921
(dp730
g6
g7
(S'\x07\xda\x05\x11\n%\x00\x00\x00\x00'
p731
tp732
Rp733
sg11
I1107
sg12
g7
(S'\x07\xda\x05\x11\x0c\x1f\x00\x00\x00\x00'
p734
tp735
Rp736
sg16
S'MagUp'
p737
ssI78066
(dp738
g6
g7
(S'\x07\xda\x08\x18\x16\x15-\x00\x00\x00'
p739
tp740
Rp741
sg11
I1301
sg12
g7
(S'\x07\xda\x08\x18\x17\x13\x0e\x00\x00\x00'
p742
tp743
Rp744
sg16
S'MagUp'
p745
ssI78067
(dp746
g6
g7
(S'\x07\xda\x08\x18\x17\x13\x0f\x00\x00\x00'
p747
tp748
Rp749
sg11
I1301
sg12
g7
(S'\x07\xda\x08\x19\x00\x13"\x00\x00\x00'
p750
tp751
Rp752
sg16
S'MagUp'
p753
ssI71924
(dp754
g6
g7
(S"\x07\xda\x05\x11\x0c'\x00\x00\x00\x00"
p755
tp756
Rp757
sg11
I1107
sg12
g7
(S'\x07\xda\x05\x11\x0e$\x00\x00\x00\x00'
p758
tp759
Rp760
sg16
S'MagUp'
p761
ssI78069
(dp762
g6
g7
(S'\x07\xda\x08\x19\x01\x13:\x00\x00\x00'
p763
tp764
Rp765
sg11
I1301
sg12
g7
(S'\x07\xda\x08\x19\x02\x12;\x00\x00\x00'
p766
tp767
Rp768
sg16
S'MagUp'
p769
ssI78070
(dp770
g6
g7
(S'\x07\xda\x08\x19\x02\x13\x00\x00\x00\x00'
p771
tp772
Rp773
sg11
I1301
sg12
g7
(S'\x07\xda\x08\x19\x03\x13\x11\x00\x00\x00'
p774
tp775
Rp776
sg16
S'MagUp'
p777
ssI78071
(dp778
g6
g7
(S'\x07\xda\x08\x19\x03\x13\x12\x00\x00\x00'
p779
tp780
Rp781
sg11
I1301
sg12
g7
(S'\x07\xda\x08\x19\x04\x13 \x00\x00\x00'
p782
tp783
Rp784
sg16
S'MagUp'
p785
ssI78072
(dp786
g6
g7
(S'\x07\xda\x08\x19\x04\x13!\x00\x00\x00'
p787
tp788
Rp789
sg11
I1301
sg12
g7
(S'\x07\xda\x08\x19\x05\n\x12\x00\x00\x00'
p790
tp791
Rp792
sg16
S'MagUp'
p793
ssI78073
(dp794
g6
g7
(S'\x07\xda\x08\x19\x05\n\x13\x00\x00\x00'
p795
tp796
Rp797
sg11
I1301
sg12
g7
(S'\x07\xda\x08\x19\x05\x0e$\x00\x00\x00'
p798
tp799
Rp800
sg16
S'MagUp'
p801
ssI78074
(dp802
g6
g7
(S'\x07\xda\x08\x19\x05\x0e%\x00\x00\x00'
p803
tp804
Rp805
sg11
I1301
sg12
g7
(S'\x07\xda\x08\x19\x05\x1c\x14\x00\x00\x00'
p806
tp807
Rp808
sg16
S'MagUp'
p809
ssI71931
(dp810
g6
g7
(S'\x07\xda\x05\x11\x0e7\x00\x00\x00\x00'
p811
tp812
Rp813
sg11
I1107
sg12
g7
(S'\x07\xda\x05\x11\x0f\x12\x00\x00\x00\x00'
p814
tp815
Rp816
sg16
S'MagUp'
p817
ssI78076
(dp818
g6
g7
(S'\x07\xda\x08\x19\x06\x1c!\x00\x00\x00'
p819
tp820
Rp821
sg11
I1301
sg12
g7
(S'\x07\xda\x08\x19\x07\x11\t\x00\x00\x00'
p822
tp823
Rp824
sg16
S'MagUp'
p825
ssI71958
(dp826
g6
g7
(S'\x07\xda\x05\x12\x05\x02\x00\x00\x00\x00'
p827
tp828
Rp829
sg11
I1109
sg12
g7
(S'\x07\xda\x05\x12\x056\x00\x00\x00\x00'
p830
tp831
Rp832
sg16
S'MagUp'
p833
ssI69921
(dp834
g6
g7
(S'\x07\xda\x04\x0c\x01\x1b\x00\x00\x00\x00'
p835
tp836
Rp837
sg11
I1033
sg12
g7
(S'\x07\xda\x04\x0c\x02\x01\x00\x00\x00\x00'
p838
tp839
Rp840
sg16
S'MagOff'
p841
ssI69922
(dp842
g6
g7
(S'\x07\xda\x04\x0c\x02\x01\x00\x00\x00\x00'
p843
tp844
Rp845
sg11
I1033
sg12
g7
(S'\x07\xda\x04\x0c\x02\x02\x00\x00\x00\x00'
p846
tp847
Rp848
sg16
S'MagOff'
p849
ssI69923
(dp850
g6
g7
(S'\x07\xda\x04\x0c\x02\x05\x00\x00\x00\x00'
p851
tp852
Rp853
sg11
I1033
sg12
g7
(S'\x07\xda\x04\x0c\x02\x0c\x00\x00\x00\x00'
p854
tp855
Rp856
sg16
S'MagOff'
p857
ssI69924
(dp858
g6
g7
(S'\x07\xda\x04\x0c\x02\x10\x00\x00\x00\x00'
p859
tp860
Rp861
sg11
I1033
sg12
g7
(S'\x07\xda\x04\x0c\x03\x1c\x00\x00\x00\x00'
p862
tp863
Rp864
sg16
S'MagOff'
p865
ssI76850
(dp866
g6
g7
(S'\x07\xda\x07\x1e\x06\x1d2\x00\x00\x00'
p867
tp868
Rp869
sg11
I1251
sg12
g7
(S'\x07\xda\x07\x1e\x06:\x00\x00\x00\x00'
p870
tp871
Rp872
sg16
S'MagDown'
p873
ssI74803
(dp874
g6
g7
(S'\x07\xda\x07\x04\x0643\x00\x00\x00'
p875
tp876
Rp877
sg11
I1197
sg12
g7
(S'\x07\xda\x07\x04\x08\x14&\x00\x00\x00'
p878
tp879
Rp880
sg16
S'MagDown'
p881
ssI69947
(dp882
g6
g7
(S'\x07\xda\x04\x0c\n\x0e\x00\x00\x00\x00'
p883
tp884
Rp885
sg11
I1034
sg12
g7
(S'\x07\xda\x04\x0c\x0c,\x00\x00\x00\x00'
p886
tp887
Rp888
sg16
S'MagOff'
p889
ssI69948
(dp890
g6
g7
(S'\x07\xda\x04\x0c\x0c,\x00\x00\x00\x00'
p891
tp892
Rp893
sg11
I1034
sg12
g7
(S'\x07\xda\x04\x0c\r,\x00\x00\x00\x00'
p894
tp895
Rp896
sg16
S'MagOff'
p897
ssI75488
(dp898
g6
g7
(S'\x07\xda\x07\x0f\x05\n\r\x00\x00\x00'
p899
tp900
Rp901
sg11
I1226
sg12
g7
(S'\x07\xda\x07\x0f\x06\x07\x12\x00\x00\x00'
p902
tp903
Rp904
sg16
S'MagUp'
p905
ssI78146
(dp906
g6
g7
(S'\x07\xda\x08\x1a\x04"0\x00\x00\x00'
p907
tp908
Rp909
sg11
I1303
sg12
g7
(S'\x07\xda\x08\x1a\x05\x14\x04\x00\x00\x00'
p910
tp911
Rp912
sg16
S'MagUp'
p913
ssI78147
(dp914
g6
g7
(S'\x07\xda\x08\x1a\x05\x14\x05\x00\x00\x00'
p915
tp916
Rp917
sg11
I1303
sg12
g7
(S'\x07\xda\x08\x1a\x06\x121\x00\x00\x00'
p918
tp919
Rp920
sg16
S'MagUp'
p921
ssI78148
(dp922
g6
g7
(S'\x07\xda\x08\x1a\x06\x121\x00\x00\x00'
p923
tp924
Rp925
sg11
I1303
sg12
g7
(S'\x07\xda\x08\x1a\x07\x13\x02\x00\x00\x00'
p926
tp927
Rp928
sg16
S'MagUp'
p929
ssI78149
(dp930
g6
g7
(S'\x07\xda\x08\x1a\x07\x13\x03\x00\x00\x00'
p931
tp932
Rp933
sg11
I1303
sg12
g7
(S'\x07\xda\x08\x1a\x08\x13\x19\x00\x00\x00'
p934
tp935
Rp936
sg16
S'MagUp'
p937
ssI78150
(dp938
g6
g7
(S'\x07\xda\x08\x1a\x08\x13\x1a\x00\x00\x00'
p939
tp940
Rp941
sg11
I1303
sg12
g7
(S'\x07\xda\x08\x1a\t\x13/\x00\x00\x00'
p942
tp943
Rp944
sg16
S'MagUp'
p945
ssI78151
(dp946
g6
g7
(S'\x07\xda\x08\x1a\t\x130\x00\x00\x00'
p947
tp948
Rp949
sg11
I1303
sg12
g7
(S'\x07\xda\x08\x1a\t6\x06\x00\x00\x00'
p950
tp951
Rp952
sg16
S'MagUp'
p953
ssI78153
(dp954
g6
g7
(S'\x07\xda\x08\x1a\t7\x02\x00\x00\x00'
p955
tp956
Rp957
sg11
I1303
sg12
g7
(S'\x07\xda\x08\x1a\n7\x0f\x00\x00\x00'
p958
tp959
Rp960
sg16
S'MagUp'
p961
ssI78154
(dp962
g6
g7
(S'\x07\xda\x08\x1a\n7\x0f\x00\x00\x00'
p963
tp964
Rp965
sg11
I1303
sg12
g7
(S'\x07\xda\x08\x1a\x0b7%\x00\x00\x00'
p966
tp967
Rp968
sg16
S'MagUp'
p969
ssI78155
(dp970
g6
g7
(S'\x07\xda\x08\x1a\x0b7&\x00\x00\x00'
p971
tp972
Rp973
sg11
I1303
sg12
g7
(S'\x07\xda\x08\x1a\x0c74\x00\x00\x00'
p974
tp975
Rp976
sg16
S'MagUp'
p977
ssI78156
(dp978
g6
g7
(S'\x07\xda\x08\x1a\x0c75\x00\x00\x00'
p979
tp980
Rp981
sg11
I1303
sg12
g7
(S'\x07\xda\x08\x1a\r8\x05\x00\x00\x00'
p982
tp983
Rp984
sg16
S'MagUp'
p985
ssI78157
(dp986
g6
g7
(S'\x07\xda\x08\x1a\r8\x06\x00\x00\x00'
p987
tp988
Rp989
sg11
I1303
sg12
g7
(S'\x07\xda\x08\x1a\x0e8\x19\x00\x00\x00'
p990
tp991
Rp992
sg16
S'MagUp'
p993
ssI78158
(dp994
g6
g7
(S'\x07\xda\x08\x1a\x0e8\x1a\x00\x00\x00'
p995
tp996
Rp997
sg11
I1303
sg12
g7
(S'\x07\xda\x08\x1a\x0f8)\x00\x00\x00'
p998
tp999
Rp1000
sg16
S'MagUp'
p1001
ssI78159
(dp1002
g6
g7
(S'\x07\xda\x08\x1a\x0f8*\x00\x00\x00'
p1003
tp1004
Rp1005
sg11
I1303
sg12
g7
(S'\x07\xda\x08\x1a\x1084\x00\x00\x00'
p1006
tp1007
Rp1008
sg16
S'MagUp'
p1009
ssI78160
(dp1010
g6
g7
(S'\x07\xda\x08\x1a\x1085\x00\x00\x00'
p1011
tp1012
Rp1013
sg11
I1303
sg12
g7
(S'\x07\xda\x08\x1a\x112#\x00\x00\x00'
p1014
tp1015
Rp1016
sg16
S'MagUp'
p1017
ssI72020
(dp1018
g6
g7
(S'\x07\xda\x05\x13\x06(\x00\x00\x00\x00'
p1019
tp1020
Rp1021
sg11
I1112
sg12
g7
(S'\x07\xda\x05\x13\x07\x06\x00\x00\x00\x00'
p1022
tp1023
Rp1024
sg16
S'MagDown'
p1025
ssI72021
(dp1026
g6
g7
(S'\x07\xda\x05\x13\x07\x06\x00\x00\x00\x00'
p1027
tp1028
Rp1029
sg11
I1112
sg12
g7
(S'\x07\xda\x05\x13\x078\x00\x00\x00\x00'
p1030
tp1031
Rp1032
sg16
S'MagDown'
p1033
ssI69984
(dp1034
g6
g7
(S'\x07\xda\x04\r\x05 \x00\x00\x00\x00'
p1035
tp1036
Rp1037
sg11
I1035
sg12
g7
(S'\x07\xda\x04\r\x06!\x00\x00\x00\x00'
p1038
tp1039
Rp1040
sg16
S'MagDown'
p1041
ssI69985
(dp1042
g6
g7
(S'\x07\xda\x04\r\x06(\x00\x00\x00\x00'
p1043
tp1044
Rp1045
sg11
I1035
sg12
g7
(S'\x07\xda\x04\r\t\n\x00\x00\x00\x00'
p1046
tp1047
Rp1048
sg16
S'MagDown'
p1049
ssI69986
(dp1050
g6
g7
(S'\x07\xda\x04\r\t\n\x00\x00\x00\x00'
p1051
tp1052
Rp1053
sg11
I1035
sg12
g7
(S'\x07\xda\x04\r\t\x0e\x00\x00\x00\x00'
p1054
tp1055
Rp1056
sg16
S'MagDown'
p1057
ssI78186
(dp1058
g6
g7
(S'\x07\xda\x08\x1b\x06\x10-\x00\x00\x00'
p1059
tp1060
Rp1061
sg11
I1305
sg12
g7
(S'\x07\xda\x08\x1b\x06\x14\x01\x00\x00\x00'
p1062
tp1063
Rp1064
sg16
S'MagUp'
p1065
ssI78187
(dp1066
g6
g7
(S'\x07\xda\x08\x1b\x06\x14\x02\x00\x00\x00'
p1067
tp1068
Rp1069
sg11
I1305
sg12
g7
(S'\x07\xda\x08\x1b\x06\x17\x06\x00\x00\x00'
p1070
tp1071
Rp1072
sg16
S'MagUp'
p1073
ssI78189
(dp1074
g6
g7
(S'\x07\xda\x08\x1b\x06\x1d\x06\x00\x00\x00'
p1075
tp1076
Rp1077
sg11
I1305
sg12
g7
(S'\x07\xda\x08\x1b\x06#\x18\x00\x00\x00'
p1078
tp1079
Rp1080
sg16
S'MagUp'
p1081
ssI78190
(dp1082
g6
g7
(S'\x07\xda\x08\x1b\x06#\x18\x00\x00\x00'
p1083
tp1084
Rp1085
sg11
I1305
sg12
g7
(S'\x07\xda\x08\x1b\x07#-\x00\x00\x00'
p1086
tp1087
Rp1088
sg16
S'MagUp'
p1089
ssI78191
(dp1090
g6
g7
(S'\x07\xda\x08\x1b\x07#.\x00\x00\x00'
p1091
tp1092
Rp1093
sg11
I1305
sg12
g7
(S'\x07\xda\x08\x1b\x08$\x07\x00\x00\x00'
p1094
tp1095
Rp1096
sg16
S'MagUp'
p1097
ssI78192
(dp1098
g6
g7
(S'\x07\xda\x08\x1b\x08$\x07\x00\x00\x00'
p1099
tp1100
Rp1101
sg11
I1305
sg12
g7
(S'\x07\xda\x08\x1b\x08(0\x00\x00\x00'
p1102
tp1103
Rp1104
sg16
S'MagUp'
p1105
ssI78193
(dp1106
g6
g7
(S'\x07\xda\x08\x1b\x08(0\x00\x00\x00'
p1107
tp1108
Rp1109
sg11
I1305
sg12
g7
(S'\x07\xda\x08\x1b\t)\x05\x00\x00\x00'
p1110
tp1111
Rp1112
sg16
S'MagUp'
p1113
ssI70731
(dp1114
g6
g7
(S'\x07\xda\x04\x1a\x05\x11\x00\x00\x00\x00'
p1115
tp1116
Rp1117
sg11
I1059
sg12
g7
(S'\x07\xda\x04\x1a\x05\x14\x00\x00\x00\x00'
p1118
tp1119
Rp1120
sg16
S'MagDown'
p1121
ssI69353
(dp1122
g6
g7
(S'\x07\xda\x04\x01\x008\x00\x00\x00\x00'
p1123
tp1124
Rp1125
sg11
I1013
sg12
g7
(S'\x07\xda\x04\x01\x01\t\x00\x00\x00\x00'
p1126
tp1127
Rp1128
sg16
S'MagDown'
p1129
ssI77546
(dp1130
g6
g7
(S'\x07\xda\x08\x0e\x04&\x1f\x00\x00\x00'
p1131
tp1132
Rp1133
sg11
I1283
sg12
g7
(S'\x07\xda\x08\x0e\x04()\x00\x00\x00'
p1134
tp1135
Rp1136
sg16
S'MagDown'
p1137
ssI77547
(dp1138
g6
g7
(S'\x07\xda\x08\x0e\x04()\x00\x00\x00'
p1139
tp1140
Rp1141
sg11
I1283
sg12
g7
(S'\x07\xda\x08\x0e\x04; \x00\x00\x00'
p1142
tp1143
Rp1144
sg16
S'MagDown'
p1145
ssI70721
(dp1146
g6
g7
(S'\x07\xda\x04\x1a\x02\n\x00\x00\x00\x00'
p1147
tp1148
Rp1149
sg11
I1059
sg12
g7
(S'\x07\xda\x04\x1a\x02\x0c\x00\x00\x00\x00'
p1150
tp1151
Rp1152
sg16
S'MagDown'
p1153
ssI75500
(dp1154
g6
g7
(S'\x07\xda\x07\x0f\x08\x02*\x00\x00\x00'
p1155
tp1156
Rp1157
sg11
I1226
sg12
g7
(S'\x07\xda\x07\x0f\x08\x04\x18\x00\x00\x00'
p1158
tp1159
Rp1160
sg16
S'MagUp'
p1161
ssI70722
(dp1162
g6
g7
(S'\x07\xda\x04\x1a\x02\x13\x00\x00\x00\x00'
p1163
tp1164
Rp1165
sg11
I1059
sg12
g7
(S'\x07\xda\x04\x1a\x02)\x00\x00\x00\x00'
p1166
tp1167
Rp1168
sg16
S'MagDown'
p1169
ssI75501
(dp1170
g6
g7
(S'\x07\xda\x07\x0f\x08\x04\x18\x00\x00\x00'
p1171
tp1172
Rp1173
sg11
I1226
sg12
g7
(S'\x07\xda\x07\x0f\x08\x05\x05\x00\x00\x00'
p1174
tp1175
Rp1176
sg16
S'MagUp'
p1177
ssI70723
(dp1178
g6
g7
(S'\x07\xda\x04\x1a\x021\x00\x00\x00\x00'
p1179
tp1180
Rp1181
sg11
I1059
sg12
g7
(S'\x07\xda\x04\x1a\x04\n\x00\x00\x00\x00'
p1182
tp1183
Rp1184
sg16
S'MagDown'
p1185
ssI70724
(dp1186
g6
g7
(S'\x07\xda\x04\x1a\x04\n\x00\x00\x00\x00'
p1187
tp1188
Rp1189
sg11
I1059
sg12
g7
(S'\x07\xda\x04\x1a\x04\x13\x00\x00\x00\x00'
p1190
tp1191
Rp1192
sg16
S'MagDown'
p1193
ssI70725
(dp1194
g6
g7
(S'\x07\xda\x04\x1a\x04\x13\x00\x00\x00\x00'
p1195
tp1196
Rp1197
sg11
I1059
sg12
g7
(S'\x07\xda\x04\x1a\x043\x00\x00\x00\x00'
p1198
tp1199
Rp1200
sg16
S'MagDown'
p1201
ssI70075
(dp1202
g6
g7
(S'\x07\xda\x04\x0e\x06%\x00\x00\x00\x00'
p1203
tp1204
Rp1205
sg11
I1038
sg12
g7
(S'\x07\xda\x04\x0e\x065\x00\x00\x00\x00'
p1206
tp1207
Rp1208
sg16
S'MagDown'
p1209
ssI70076
(dp1210
g6
g7
(S'\x07\xda\x04\x0e\x06:\x00\x00\x00\x00'
p1211
tp1212
Rp1213
sg11
I1038
sg12
g7
(S'\x07\xda\x04\x0e\x07\x0c\x00\x00\x00\x00'
p1214
tp1215
Rp1216
sg16
S'MagDown'
p1217
ssI70730
(dp1218
g6
g7
(S'\x07\xda\x04\x1a\x05\x03\x00\x00\x00\x00'
p1219
tp1220
Rp1221
sg11
I1059
sg12
g7
(S'\x07\xda\x04\x1a\x05\x05\x00\x00\x00\x00'
p1222
tp1223
Rp1224
sg16
S'MagDown'
p1225
ssI70078
(dp1226
g6
g7
(S'\x07\xda\x04\x0e\x07\x10\x00\x00\x00\x00'
p1227
tp1228
Rp1229
sg11
I1038
sg12
g7
(S'\x07\xda\x04\x0e\x07\x13\x00\x00\x00\x00'
p1230
tp1231
Rp1232
sg16
S'MagDown'
p1233
ssI78271
(dp1234
g6
g7
(S"\x07\xda\x08\x1d\x00\x1f'\x00\x00\x00"
p1235
tp1236
Rp1237
sg11
I1308
sg12
g7
(S'\x07\xda\x08\x1d\x01\x1f;\x00\x00\x00'
p1238
tp1239
Rp1240
sg16
S'MagUp'
p1241
ssI70080
(dp1242
g6
g7
(S'\x07\xda\x04\x0e\t\x1e\x00\x00\x00\x00'
p1243
tp1244
Rp1245
sg11
I1038
sg12
g7
(S'\x07\xda\x04\x0e\n$\x00\x00\x00\x00'
p1246
tp1247
Rp1248
sg16
S'MagDown'
p1249
ssI78273
(dp1250
g6
g7
(S'\x07\xda\x08\x1d\x02 \x15\x00\x00\x00'
p1251
tp1252
Rp1253
sg11
I1308
sg12
g7
(S'\x07\xda\x08\x1d\x03 (\x00\x00\x00'
p1254
tp1255
Rp1256
sg16
S'MagUp'
p1257
ssI78274
(dp1258
g6
g7
(S'\x07\xda\x08\x1d\x03 (\x00\x00\x00'
p1259
tp1260
Rp1261
sg11
I1308
sg12
g7
(S'\x07\xda\x08\x1d\x04 :\x00\x00\x00'
p1262
tp1263
Rp1264
sg16
S'MagUp'
p1265
ssI78275
(dp1266
g6
g7
(S'\x07\xda\x08\x1d\x04 :\x00\x00\x00'
p1267
tp1268
Rp1269
sg11
I1308
sg12
g7
(S'\x07\xda\x08\x1d\x05!\r\x00\x00\x00'
p1270
tp1271
Rp1272
sg16
S'MagUp'
p1273
ssI78276
(dp1274
g6
g7
(S'\x07\xda\x08\x1d\x05!\r\x00\x00\x00'
p1275
tp1276
Rp1277
sg11
I1308
sg12
g7
(S'\x07\xda\x08\x1d\x06\x14+\x00\x00\x00'
p1278
tp1279
Rp1280
sg16
S'MagUp'
p1281
ssI78277
(dp1282
g6
g7
(S'\x07\xda\x08\x1d\x06\x1c\x05\x00\x00\x00'
p1283
tp1284
Rp1285
sg11
I1308
sg12
g7
(S'\x07\xda\x08\x1d\x061\x0e\x00\x00\x00'
p1286
tp1287
Rp1288
sg16
S'MagUp'
p1289
ssI78278
(dp1290
g6
g7
(S'\x07\xda\x08\x1d\x061\x0f\x00\x00\x00'
p1291
tp1292
Rp1293
sg11
I1308
sg12
g7
(S'\x07\xda\x08\x1d\x0669\x00\x00\x00'
p1294
tp1295
Rp1296
sg16
S'MagUp'
p1297
ssI78279
(dp1298
g6
g7
(S'\x07\xda\x08\x1d\x0669\x00\x00\x00'
p1299
tp1300
Rp1301
sg11
I1308
sg12
g7
(S'\x07\xda\x08\x1d\x077\x15\x00\x00\x00'
p1302
tp1303
Rp1304
sg16
S'MagUp'
p1305
ssI78280
(dp1306
g6
g7
(S'\x07\xda\x08\x1d\x077\x15\x00\x00\x00'
p1307
tp1308
Rp1309
sg11
I1308
sg12
g7
(S"\x07\xda\x08\x1d\x087'\x00\x00\x00"
p1310
tp1311
Rp1312
sg16
S'MagUp'
p1313
ssI70732
(dp1314
g6
g7
(S'\x07\xda\x04\x1a\x05\x14\x00\x00\x00\x00'
p1315
tp1316
Rp1317
sg11
I1059
sg12
g7
(S'\x07\xda\x04\x1a\x05\x15\x00\x00\x00\x00'
p1318
tp1319
Rp1320
sg16
S'MagDown'
p1321
ssI78282
(dp1322
g6
g7
(S'\x07\xda\x08\x1d\t;\x02\x00\x00\x00'
p1323
tp1324
Rp1325
sg11
I1308
sg12
g7
(S'\x07\xda\x08\x1d\n\x1b\x1f\x00\x00\x00'
p1326
tp1327
Rp1328
sg16
S'MagUp'
p1329
ssI78283
(dp1330
g6
g7
(S'\x07\xda\x08\x1d\n\x1b \x00\x00\x00'
p1331
tp1332
Rp1333
sg11
I1308
sg12
g7
(S'\x07\xda\x08\x1d\n9\x06\x00\x00\x00'
p1334
tp1335
Rp1336
sg16
S'MagUp'
p1337
ssI78284
(dp1338
g6
g7
(S'\x07\xda\x08\x1d\n9\x07\x00\x00\x00'
p1339
tp1340
Rp1341
sg11
I1308
sg12
g7
(S'\x07\xda\x08\x1d\x0b\x17\x08\x00\x00\x00'
p1342
tp1343
Rp1344
sg16
S'MagUp'
p1345
ssI70733
(dp1346
g6
g7
(S'\x07\xda\x04\x1a\x05\x1c\x00\x00\x00\x00'
p1347
tp1348
Rp1349
sg11
I1059
sg12
g7
(S'\x07\xda\x04\x1a\x06\x19\x00\x00\x00\x00'
p1350
tp1351
Rp1352
sg16
S'MagDown'
p1353
ssI75174
(dp1354
g6
g7
(S'\x07\xda\x07\t\x07\t\x04\x00\x00\x00'
p1355
tp1356
Rp1357
sg11
I1207
sg12
g7
(S'\x07\xda\x07\t\x08\x17\x01\x00\x00\x00'
p1358
tp1359
Rp1360
sg16
S'MagDown'
p1361
ssI70121
(dp1362
g6
g7
(S'\x07\xda\x04\x0f\x07\x04\x00\x00\x00\x00'
p1363
tp1364
Rp1365
sg11
I1042
sg12
g7
(S'\x07\xda\x04\x0f\x07\x06\x00\x00\x00\x00'
p1366
tp1367
Rp1368
sg16
S'MagDown'
p1369
ssI70122
(dp1370
g6
g7
(S'\x07\xda\x04\x0f\x07\x19\x00\x00\x00\x00'
p1371
tp1372
Rp1373
sg11
I1042
sg12
g7
(S'\x07\xda\x04\x0f\x08)\x00\x00\x00\x00'
p1374
tp1375
Rp1376
sg16
S'MagDown'
p1377
ssI78315
(dp1378
g6
g7
(S'\x07\xda\x08\x1d\x12\x1a\x08\x00\x00\x00'
p1379
tp1380
Rp1381
sg11
I1309
sg12
g7
(S'\x07\xda\x08\x1d\x13\x1a\x14\x00\x00\x00'
p1382
tp1383
Rp1384
sg16
S'MagDown'
p1385
ssI78316
(dp1386
g6
g7
(S'\x07\xda\x08\x1d\x13\x1a\x15\x00\x00\x00'
p1387
tp1388
Rp1389
sg11
I1309
sg12
g7
(S'\x07\xda\x08\x1d\x13!\x08\x00\x00\x00'
p1390
tp1391
Rp1392
sg16
S'MagDown'
p1393
ssI78318
(dp1394
g6
g7
(S'\x07\xda\x08\x1d\x13"\r\x00\x00\x00'
p1395
tp1396
Rp1397
sg11
I1309
sg12
g7
(S'\x07\xda\x08\x1d\x14"\x1e\x00\x00\x00'
p1398
tp1399
Rp1400
sg16
S'MagDown'
p1401
ssI78319
(dp1402
g6
g7
(S'\x07\xda\x08\x1d\x14"\x1f\x00\x00\x00'
p1403
tp1404
Rp1405
sg11
I1309
sg12
g7
(S'\x07\xda\x08\x1d\x15"8\x00\x00\x00'
p1406
tp1407
Rp1408
sg16
S'MagDown'
p1409
ssI78320
(dp1410
g6
g7
(S'\x07\xda\x08\x1d\x15"9\x00\x00\x00'
p1411
tp1412
Rp1413
sg11
I1309
sg12
g7
(S'\x07\xda\x08\x1d\x16#\r\x00\x00\x00'
p1414
tp1415
Rp1416
sg16
S'MagDown'
p1417
ssI78321
(dp1418
g6
g7
(S'\x07\xda\x08\x1d\x16#\x0e\x00\x00\x00'
p1419
tp1420
Rp1421
sg11
I1309
sg12
g7
(S'\x07\xda\x08\x1d\x17#\x1f\x00\x00\x00'
p1422
tp1423
Rp1424
sg16
S'MagDown'
p1425
ssI78322
(dp1426
g6
g7
(S'\x07\xda\x08\x1d\x17# \x00\x00\x00'
p1427
tp1428
Rp1429
sg11
I1309
sg12
g7
(S'\x07\xda\x08\x1e\x00#\x16\x00\x00\x00'
p1430
tp1431
Rp1432
sg16
S'MagDown'
p1433
ssI78323
(dp1434
g6
g7
(S'\x07\xda\x08\x1e\x00#\x16\x00\x00\x00'
p1435
tp1436
Rp1437
sg11
I1309
sg12
g7
(S"\x07\xda\x08\x1e\x00'*\x00\x00\x00"
p1438
tp1439
Rp1440
sg16
S'MagDown'
p1441
ssI78324
(dp1442
g6
g7
(S"\x07\xda\x08\x1e\x00'*\x00\x00\x00"
p1443
tp1444
Rp1445
sg11
I1309
sg12
g7
(S'\x07\xda\x08\x1e\x01(\x02\x00\x00\x00'
p1446
tp1447
Rp1448
sg16
S'MagDown'
p1449
ssI78325
(dp1450
g6
g7
(S'\x07\xda\x08\x1e\x01(\x03\x00\x00\x00'
p1451
tp1452
Rp1453
sg11
I1309
sg12
g7
(S'\x07\xda\x08\x1e\x018\t\x00\x00\x00'
p1454
tp1455
Rp1456
sg16
S'MagDown'
p1457
ssI78327
(dp1458
g6
g7
(S"\x07\xda\x08\x1e\x019'\x00\x00\x00"
p1459
tp1460
Rp1461
sg11
I1309
sg12
g7
(S'\x07\xda\x08\x1e\x0294\x00\x00\x00'
p1462
tp1463
Rp1464
sg16
S'MagDown'
p1465
ssI78328
(dp1466
g6
g7
(S'\x07\xda\x08\x1e\x0295\x00\x00\x00'
p1467
tp1468
Rp1469
sg11
I1309
sg12
g7
(S'\x07\xda\x08\x1e\x03:\x0b\x00\x00\x00'
p1470
tp1471
Rp1472
sg16
S'MagDown'
p1473
ssI78329
(dp1474
g6
g7
(S'\x07\xda\x08\x1e\x03:\x0c\x00\x00\x00'
p1475
tp1476
Rp1477
sg11
I1309
sg12
g7
(S'\x07\xda\x08\x1e\x04: \x00\x00\x00'
p1478
tp1479
Rp1480
sg16
S'MagDown'
p1481
ssI78330
(dp1482
g6
g7
(S'\x07\xda\x08\x1e\x04: \x00\x00\x00'
p1483
tp1484
Rp1485
sg11
I1309
sg12
g7
(S'\x07\xda\x08\x1e\x05.\x1d\x00\x00\x00'
p1486
tp1487
Rp1488
sg16
S'MagDown'
p1489
ssI72216
(dp1490
g6
g7
(S'\x07\xda\x05\x16\x038\x00\x00\x00\x00'
p1491
tp1492
Rp1493
sg11
I1117
sg12
g7
(S'\x07\xda\x05\x16\x058\x00\x00\x00\x00'
p1494
tp1495
Rp1496
sg16
S'MagDown'
p1497
ssI72217
(dp1498
g6
g7
(S'\x07\xda\x05\x16\x058\x00\x00\x00\x00'
p1499
tp1500
Rp1501
sg11
I1117
sg12
g7
(S'\x07\xda\x05\x16\x07\x1b\x00\x00\x00\x00'
p1502
tp1503
Rp1504
sg16
S'MagDown'
p1505
ssI72218
(dp1506
g6
g7
(S'\x07\xda\x05\x16\x07\x1b\x00\x00\x00\x00'
p1507
tp1508
Rp1509
sg11
I1117
sg12
g7
(S'\x07\xda\x05\x16\x07\x1e\x00\x00\x00\x00'
p1510
tp1511
Rp1512
sg16
S'MagDown'
p1513
ssI72219
(dp1514
g6
g7
(S'\x07\xda\x05\x16\x07\x1e\x00\x00\x00\x00'
p1515
tp1516
Rp1517
sg11
I1117
sg12
g7
(S'\x07\xda\x05\x16\x07\x1f\x00\x00\x00\x00'
p1518
tp1519
Rp1520
sg16
S'MagDown'
p1521
ssI72220
(dp1522
g6
g7
(S'\x07\xda\x05\x16\x07\x1f\x00\x00\x00\x00'
p1523
tp1524
Rp1525
sg11
I1117
sg12
g7
(S'\x07\xda\x05\x16\t\x1f\x00\x00\x00\x00'
p1526
tp1527
Rp1528
sg16
S'MagDown'
p1529
ssI72221
(dp1530
g6
g7
(S'\x07\xda\x05\x16\t\x1f\x00\x00\x00\x00'
p1531
tp1532
Rp1533
sg11
I1117
sg12
g7
(S'\x07\xda\x05\x16\x0b \x00\x00\x00\x00'
p1534
tp1535
Rp1536
sg16
S'MagDown'
p1537
ssI72222
(dp1538
g6
g7
(S'\x07\xda\x05\x16\x0b \x00\x00\x00\x00'
p1539
tp1540
Rp1541
sg11
I1117
sg12
g7
(S'\x07\xda\x05\x16\x0b+\x00\x00\x00\x00'
p1542
tp1543
Rp1544
sg16
S'MagDown'
p1545
ssI74286
(dp1546
g6
g7
(S'\x07\xda\x06\x19\x02 \n\x00\x00\x00'
p1547
tp1548
Rp1549
sg11
I1179
sg12
g7
(S'\x07\xda\x06\x19\x03;\x04\x00\x00\x00'
p1550
tp1551
Rp1552
sg16
S'MagDown'
p1553
ssI70192
(dp1554
g6
g7
(S'\x07\xda\x04\x10\x07\x01\x00\x00\x00\x00'
p1555
tp1556
Rp1557
sg11
I1044
sg12
g7
(S'\x07\xda\x04\x10\x08\r\x00\x00\x00\x00'
p1558
tp1559
Rp1560
sg16
S'MagDown'
p1561
ssI70193
(dp1562
g6
g7
(S'\x07\xda\x04\x10\x08\r\x00\x00\x00\x00'
p1563
tp1564
Rp1565
sg11
I1044
sg12
g7
(S'\x07\xda\x04\x10\x08&\x00\x00\x00\x00'
p1566
tp1567
Rp1568
sg16
S'MagDown'
p1569
ssI70195
(dp1570
g6
g7
(S'\x07\xda\x04\x10\x081\x00\x00\x00\x00'
p1571
tp1572
Rp1573
sg11
I1044
sg12
g7
(S'\x07\xda\x04\x10\t\x04\x00\x00\x00\x00'
p1574
tp1575
Rp1576
sg16
S'MagDown'
p1577
ssI72251
(dp1578
g6
g7
(S'\x07\xda\x05\x17\x06\x14\x00\x00\x00\x00'
p1579
tp1580
Rp1581
sg11
I1118
sg12
g7
(S'\x07\xda\x05\x17\x08\x14\x00\x00\x00\x00'
p1582
tp1583
Rp1584
sg16
S'MagDown'
p1585
ssI72252
(dp1586
g6
g7
(S'\x07\xda\x05\x17\x08\x14\x00\x00\x00\x00'
p1587
tp1588
Rp1589
sg11
I1118
sg12
g7
(S'\x07\xda\x05\x17\n\x14\x00\x00\x00\x00'
p1590
tp1591
Rp1592
sg16
S'MagDown'
p1593
ssI72253
(dp1594
g6
g7
(S'\x07\xda\x05\x17\n\x14\x00\x00\x00\x00'
p1595
tp1596
Rp1597
sg11
I1118
sg12
g7
(S'\x07\xda\x05\x17\x0c\x15\x00\x00\x00\x00'
p1598
tp1599
Rp1600
sg16
S'MagDown'
p1601
ssI72254
(dp1602
g6
g7
(S'\x07\xda\x05\x17\x0c\x15\x00\x00\x00\x00'
p1603
tp1604
Rp1605
sg11
I1118
sg12
g7
(S'\x07\xda\x05\x17\x0c%\x00\x00\x00\x00'
p1606
tp1607
Rp1608
sg16
S'MagDown'
p1609
ssI72266
(dp1610
g6
g7
(S'\x07\xda\x05\x17\x15\x0c\x00\x00\x00\x00'
p1611
tp1612
Rp1613
sg11
I1119
sg12
g7
(S'\x07\xda\x05\x17\x16\x00\x00\x00\x00\x00'
p1614
tp1615
Rp1616
sg16
S'MagDown'
p1617
ssI72267
(dp1618
g6
g7
(S'\x07\xda\x05\x17\x16\x00\x00\x00\x00\x00'
p1619
tp1620
Rp1621
sg11
I1119
sg12
g7
(S'\x07\xda\x05\x17\x16\x03\x00\x00\x00\x00'
p1622
tp1623
Rp1624
sg16
S'MagDown'
p1625
ssI72268
(dp1626
g6
g7
(S'\x07\xda\x05\x17\x16\x1c\x00\x00\x00\x00'
p1627
tp1628
Rp1629
sg11
I1119
sg12
g7
(S'\x07\xda\x05\x17\x17\x13\x00\x00\x00\x00'
p1630
tp1631
Rp1632
sg16
S'MagDown'
p1633
ssI72269
(dp1634
g6
g7
(S'\x07\xda\x05\x17\x17\x18\x00\x00\x00\x00'
p1635
tp1636
Rp1637
sg11
I1119
sg12
g7
(S'\x07\xda\x05\x18\x00\x15\x00\x00\x00\x00'
p1638
tp1639
Rp1640
sg16
S'MagDown'
p1641
ssI68179
(dp1642
g6
g7
(S"\x07\xda\x03\x10\x15'\x00\x00\x00\x00"
p1643
tp1644
Rp1645
sg11
I952
sg12
g7
(S'\x07\xda\x03\x10\x16\x01\x00\x00\x00\x00'
p1646
tp1647
Rp1648
sg16
S'MagOff'
p1649
ssI68181
(dp1650
g6
g7
(S'\x07\xda\x03\x10\x16\x18\x00\x00\x00\x00'
p1651
tp1652
Rp1653
sg11
I952
sg12
g7
(S'\x07\xda\x03\x10\x16\x1c\x00\x00\x00\x00'
p1654
tp1655
Rp1656
sg16
S'MagOff'
p1657
ssI72309
(dp1658
g6
g7
(S'\x07\xda\x05\x18\x0f\x16\x00\x00\x00\x00'
p1659
tp1660
Rp1661
sg11
I1121
sg12
g7
(S'\x07\xda\x05\x18\x11\x16\x00\x00\x00\x00'
p1662
tp1663
Rp1664
sg16
S'MagDown'
p1665
ssI72310
(dp1666
g6
g7
(S'\x07\xda\x05\x18\x11\x16\x00\x00\x00\x00'
p1667
tp1668
Rp1669
sg11
I1121
sg12
g7
(S'\x07\xda\x05\x18\x11 \x00\x00\x00\x00'
p1670
tp1671
Rp1672
sg16
S'MagDown'
p1673
ssI70079
(dp1674
g6
g7
(S'\x07\xda\x04\x0e\x07"\x00\x00\x00\x00'
p1675
tp1676
Rp1677
sg11
I1038
sg12
g7
(S'\x07\xda\x04\x0e\t\x18\x00\x00\x00\x00'
p1678
tp1679
Rp1680
sg16
S'MagDown'
p1681
ssI74364
(dp1682
g6
g7
(S"\x07\xda\x06\x1a\x13'\r\x00\x00\x00"
p1683
tp1684
Rp1685
sg11
I1182
sg12
g7
(S'\x07\xda\x06\x1a\x139#\x00\x00\x00'
p1686
tp1687
Rp1688
sg16
S'MagDown'
p1689
ssI74367
(dp1690
g6
g7
(S"\x07\xda\x06\x1a\x14'+\x00\x00\x00"
p1691
tp1692
Rp1693
sg11
I1182
sg12
g7
(S'\x07\xda\x06\x1a\x15\x191\x00\x00\x00'
p1694
tp1695
Rp1696
sg16
S'MagDown'
p1697
ssI74368
(dp1698
g6
g7
(S'\x07\xda\x06\x1a\x15\x192\x00\x00\x00'
p1699
tp1700
Rp1701
sg11
I1182
sg12
g7
(S'\x07\xda\x06\x1a\x15*$\x00\x00\x00'
p1702
tp1703
Rp1704
sg16
S'MagDown'
p1705
ssI70273
(dp1706
g6
g7
(S'\x07\xda\x04\x11\x06\x12\x00\x00\x00\x00'
p1707
tp1708
Rp1709
sg11
I1045
sg12
g7
(S'\x07\xda\x04\x11\x06$\x00\x00\x00\x00'
p1710
tp1711
Rp1712
sg16
S'MagDown'
p1713
ssI70274
(dp1714
g6
g7
(S'\x07\xda\x04\x11\x06$\x00\x00\x00\x00'
p1715
tp1716
Rp1717
sg11
I1045
sg12
g7
(S'\x07\xda\x04\x11\x08\x07\x00\x00\x00\x00'
p1718
tp1719
Rp1720
sg16
S'MagDown'
p1721
ssI70276
(dp1722
g6
g7
(S'\x07\xda\x04\x11\x08\x0f\x00\x00\x00\x00'
p1723
tp1724
Rp1725
sg11
I1045
sg12
g7
(S'\x07\xda\x04\x11\t\x1f\x00\x00\x00\x00'
p1726
tp1727
Rp1728
sg16
S'MagDown'
p1729
ssI72325
(dp1730
g6
g7
(S'\x07\xda\x05\x19\x03\x1f\x00\x00\x00\x00'
p1731
tp1732
Rp1733
sg11
I1122
sg12
g7
(S'\x07\xda\x05\x19\x03\x1f\x00\x00\x00\x00'
p1734
tp1735
Rp1736
sg16
S'MagDown'
p1737
ssI70278
(dp1738
g6
g7
(S'\x07\xda\x04\x11\t%\x00\x00\x00\x00'
p1739
tp1740
Rp1741
sg11
I1045
sg12
g7
(S'\x07\xda\x04\x11\x0c\x07\x00\x00\x00\x00'
p1742
tp1743
Rp1744
sg16
S'MagDown'
p1745
ssI74375
(dp1746
g6
g7
(S'\x07\xda\x06\x1a\x17,)\x00\x00\x00'
p1747
tp1748
Rp1749
sg11
I1182
sg12
g7
(S'\x07\xda\x06\x1b\x00\x19&\x00\x00\x00'
p1750
tp1751
Rp1752
sg16
S'MagDown'
p1753
ssI72328
(dp1754
g6
g7
(S'\x07\xda\x05\x19\x05 \x00\x00\x00\x00'
p1755
tp1756
Rp1757
sg11
I1122
sg12
g7
(S'\x07\xda\x05\x19\x07 \x00\x00\x00\x00'
p1758
tp1759
Rp1760
sg16
S'MagDown'
p1761
ssI72329
(dp1762
g6
g7
(S'\x07\xda\x05\x19\x07 \x00\x00\x00\x00'
p1763
tp1764
Rp1765
sg11
I1122
sg12
g7
(S'\x07\xda\x05\x19\t \x00\x00\x00\x00'
p1766
tp1767
Rp1768
sg16
S'MagDown'
p1769
ssI72330
(dp1770
g6
g7
(S'\x07\xda\x05\x19\t \x00\x00\x00\x00'
p1771
tp1772
Rp1773
sg11
I1122
sg12
g7
(S'\x07\xda\x05\x19\x0b \x00\x00\x00\x00'
p1774
tp1775
Rp1776
sg16
S'MagDown'
p1777
ssI72331
(dp1778
g6
g7
(S'\x07\xda\x05\x19\x0b \x00\x00\x00\x00'
p1779
tp1780
Rp1781
sg11
I1122
sg12
g7
(S'\x07\xda\x05\x19\x0c\x05\x00\x00\x00\x00'
p1782
tp1783
Rp1784
sg16
S'MagDown'
p1785
ssI74380
(dp1786
g6
g7
(S'\x07\xda\x06\x1b\x07\x15\x16\x00\x00\x00'
p1787
tp1788
Rp1789
sg11
I1182
sg12
g7
(S'\x07\xda\x06\x1b\t\x15+\x00\x00\x00'
p1790
tp1791
Rp1792
sg16
S'MagDown'
p1793
ssI74381
(dp1794
g6
g7
(S'\x07\xda\x06\x1b\t\x15,\x00\x00\x00'
p1795
tp1796
Rp1797
sg11
I1182
sg12
g7
(S'\x07\xda\x06\x1b\n\x0e\x0f\x00\x00\x00'
p1798
tp1799
Rp1800
sg16
S'MagDown'
p1801
ssI70288
(dp1802
g6
g7
(S'\x07\xda\x04\x11\x0e%\x00\x00\x00\x00'
p1803
tp1804
Rp1805
sg11
I1045
sg12
g7
(S'\x07\xda\x04\x11\x0f\x0e\x00\x00\x00\x00'
p1806
tp1807
Rp1808
sg16
S'MagDown'
p1809
ssI68254
(dp1810
g6
g7
(S'\x07\xda\x03\x11\n,\x00\x00\x00\x00'
p1811
tp1812
Rp1813
sg11
I952
sg12
g7
(S'\x07\xda\x03\x11\n.\x00\x00\x00\x00'
p1814
tp1815
Rp1816
sg16
S'MagOff'
p1817
ssI78281
(dp1818
g6
g7
(S'\x07\xda\x08\x1d\x087(\x00\x00\x00'
p1819
tp1820
Rp1821
sg11
I1308
sg12
g7
(S'\x07\xda\x08\x1d\t;\x01\x00\x00\x00'
p1822
tp1823
Rp1824
sg16
S'MagUp'
p1825
ssI70331
(dp1826
g6
g7
(S'\x07\xda\x04\x12\x0b0\x00\x00\x00\x00'
p1827
tp1828
Rp1829
sg11
I1047
sg12
g7
(S'\x07\xda\x04\x12\x0b1\x00\x00\x00\x00'
p1830
tp1831
Rp1832
sg16
S'MagDown'
p1833
ssI70347
(dp1834
g6
g7
(S'\x07\xda\x04\x12\x0c8\x00\x00\x00\x00'
p1835
tp1836
Rp1837
sg11
I1047
sg12
g7
(S'\x07\xda\x04\x12\x0e/\x00\x00\x00\x00'
p1838
tp1839
Rp1840
sg16
S'MagDown'
p1841
ssI72405
(dp1842
g6
g7
(S'\x07\xda\x05\x1b\x0f\x1a\x00\x00\x00\x00'
p1843
tp1844
Rp1845
sg11
I1128
sg12
g7
(S'\x07\xda\x05\x1b\x0f(\x00\x00\x00\x00'
p1846
tp1847
Rp1848
sg16
S'MagDown'
p1849
ssI72406
(dp1850
g6
g7
(S'\x07\xda\x05\x1b\x0f(\x00\x00\x00\x00'
p1851
tp1852
Rp1853
sg11
I1128
sg12
g7
(S'\x07\xda\x05\x1b\x10\x0c\x00\x00\x00\x00'
p1854
tp1855
Rp1856
sg16
S'MagDown'
p1857
ssI78287
(dp1858
g6
g7
(S'\x07\xda\x08\x1d\x0b&"\x00\x00\x00'
p1859
tp1860
Rp1861
sg11
I1308
sg12
g7
(S'\x07\xda\x08\x1d\x0c\x169\x00\x00\x00'
p1862
tp1863
Rp1864
sg16
S'MagUp'
p1865
ssI70366
(dp1866
g6
g7
(S'\x07\xda\x04\x13\x04\x19\x00\x00\x00\x00'
p1867
tp1868
Rp1869
sg11
I1049
sg12
g7
(S'\x07\xda\x04\x13\x04,\x00\x00\x00\x00'
p1870
tp1871
Rp1872
sg16
S'MagDown'
p1873
ssI70367
(dp1874
g6
g7
(S'\x07\xda\x04\x13\x04,\x00\x00\x00\x00'
p1875
tp1876
Rp1877
sg11
I1049
sg12
g7
(S'\x07\xda\x04\x13\x05\x02\x00\x00\x00\x00'
p1878
tp1879
Rp1880
sg16
S'MagDown'
p1881
ssI70368
(dp1882
g6
g7
(S'\x07\xda\x04\x13\x05\x02\x00\x00\x00\x00'
p1883
tp1884
Rp1885
sg11
I1049
sg12
g7
(S'\x07\xda\x04\x13\x05\x10\x00\x00\x00\x00'
p1886
tp1887
Rp1888
sg16
S'MagDown'
p1889
ssI74465
(dp1890
g6
g7
(S'\x07\xda\x06\x1d\x0c\x1a(\x00\x00\x00'
p1891
tp1892
Rp1893
sg11
I1185
sg12
g7
(S'\x07\xda\x06\x1d\r\x1e3\x00\x00\x00'
p1894
tp1895
Rp1896
sg16
S'MagDown'
p1897
ssI74466
(dp1898
g6
g7
(S'\x07\xda\x06\x1d\r\x1e4\x00\x00\x00'
p1899
tp1900
Rp1901
sg11
I1185
sg12
g7
(S'\x07\xda\x06\x1d\x0f\x1f4\x00\x00\x00'
p1902
tp1903
Rp1904
sg16
S'MagDown'
p1905
ssI74467
(dp1906
g6
g7
(S'\x07\xda\x06\x1d\x0f\x1f5\x00\x00\x00'
p1907
tp1908
Rp1909
sg11
I1185
sg12
g7
(S'\x07\xda\x06\x1d\x10\x0c,\x00\x00\x00'
p1910
tp1911
Rp1912
sg16
S'MagDown'
p1913
ssI71474
(dp1914
g6
g7
(S'\x07\xda\x05\x08\x165\x00\x00\x00\x00'
p1915
tp1916
Rp1917
sg11
I1089
sg12
g7
(S'\x07\xda\x05\x08\x17\x1e\x00\x00\x00\x00'
p1918
tp1919
Rp1920
sg16
S'MagUp'
p1921
ssI71476
(dp1922
g6
g7
(S'\x07\xda\x05\x08\x17"\x00\x00\x00\x00'
p1923
tp1924
Rp1925
sg11
I1089
sg12
g7
(S'\x07\xda\x05\t\x01"\x00\x00\x00\x00'
p1926
tp1927
Rp1928
sg16
S'MagUp'
p1929
ssI71477
(dp1930
g6
g7
(S'\x07\xda\x05\t\x01"\x00\x00\x00\x00'
p1931
tp1932
Rp1933
sg11
I1089
sg12
g7
(S'\x07\xda\x05\t\x03*\x00\x00\x00\x00'
p1934
tp1935
Rp1936
sg16
S'MagUp'
p1937
ssI71478
(dp1938
g6
g7
(S'\x07\xda\x05\t\x03+\x00\x00\x00\x00'
p1939
tp1940
Rp1941
sg11
I1089
sg12
g7
(S'\x07\xda\x05\t\x04\x00\x00\x00\x00\x00'
p1942
tp1943
Rp1944
sg16
S'MagUp'
p1945
ssI77623
(dp1946
g6
g7
(S'\x07\xda\x08\x10\x07(7\x00\x00\x00'
p1947
tp1948
Rp1949
sg11
I1287
sg12
g7
(S'\x07\xda\x08\x10\t\x072\x00\x00\x00'
p1950
tp1951
Rp1952
sg16
S'MagDown'
p1953
ssI74621
(dp1954
g6
g7
(S'\x07\xda\x07\x01\x03\x06-\x00\x00\x00'
p1955
tp1956
Rp1957
sg11
I1188
sg12
g7
(S'\x07\xda\x07\x01\x03,\x0f\x00\x00\x00'
p1958
tp1959
Rp1960
sg16
S'MagDown'
p1961
ssI74624
(dp1962
g6
g7
(S'\x07\xda\x07\x01\x0363\x00\x00\x00'
p1963
tp1964
Rp1965
sg11
I1188
sg12
g7
(S'\x07\xda\x07\x01\x037,\x00\x00\x00'
p1966
tp1967
Rp1968
sg16
S'MagDown'
p1969
ssI74631
(dp1970
g6
g7
(S'\x07\xda\x07\x01\x05\x008\x00\x00\x00'
p1971
tp1972
Rp1973
sg11
I1188
sg12
g7
(S'\x07\xda\x07\x01\x07\x01\x14\x00\x00\x00'
p1974
tp1975
Rp1976
sg16
S'MagDown'
p1977
ssI74632
(dp1978
g6
g7
(S'\x07\xda\x07\x01\x07\x01\x14\x00\x00\x00'
p1979
tp1980
Rp1981
sg11
I1188
sg12
g7
(S'\x07\xda\x07\x01\x07\x1a\x04\x00\x00\x00'
p1982
tp1983
Rp1984
sg16
S'MagDown'
p1985
ssI74637
(dp1986
g6
g7
(S'\x07\xda\x07\x01\x08#2\x00\x00\x00'
p1987
tp1988
Rp1989
sg11
I1188
sg12
g7
(S'\x07\xda\x07\x01\n$\x06\x00\x00\x00'
p1990
tp1991
Rp1992
sg16
S'MagDown'
p1993
ssI74638
(dp1994
g6
g7
(S'\x07\xda\x07\x01\n$\x07\x00\x00\x00'
p1995
tp1996
Rp1997
sg11
I1188
sg12
g7
(S'\x07\xda\x07\x01\n0\x14\x00\x00\x00'
p1998
tp1999
Rp2000
sg16
S'MagDown'
p2001
ssI71491
(dp2002
g6
g7
(S'\x07\xda\x05\t\x0b5\x00\x00\x00\x00'
p2003
tp2004
Rp2005
sg11
I1089
sg12
g7
(S'\x07\xda\x05\t\r5\x00\x00\x00\x00'
p2006
tp2007
Rp2008
sg16
S'MagUp'
p2009
ssI74695
(dp2010
g6
g7
(S'\x07\xda\x07\x02\x057\x10\x00\x00\x00'
p2011
tp2012
Rp2013
sg11
I1190
sg12
g7
(S'\x07\xda\x07\x02\x057\x10\x00\x00\x00'
p2014
tp2015
Rp2016
sg16
S'MagDown'
p2017
ssI74733
(dp2018
g6
g7
(S'\x07\xda\x07\x02\x11)*\x00\x00\x00'
p2019
tp2020
Rp2021
sg11
I1192
sg12
g7
(S'\x07\xda\x07\x02\x12\x07\r\x00\x00\x00'
p2022
tp2023
Rp2024
sg16
S'MagDown'
p2025
ssI74734
(dp2026
g6
g7
(S'\x07\xda\x07\x02\x12\x07\x0e\x00\x00\x00'
p2027
tp2028
Rp2029
sg11
I1192
sg12
g7
(S'\x07\xda\x07\x02\x12\x0c&\x00\x00\x00'
p2030
tp2031
Rp2032
sg16
S'MagDown'
p2033
ssI76790
(dp2034
g6
g7
(S'\x07\xda\x07\x1c\x16%\x0b\x00\x00\x00'
p2035
tp2036
Rp2037
sg11
I1250
sg12
g7
(S'\x07\xda\x07\x1c\x16.7\x00\x00\x00'
p2038
tp2039
Rp2040
sg16
S'MagDown'
p2041
ssI76791
(dp2042
g6
g7
(S'\x07\xda\x07\x1c\x16.7\x00\x00\x00'
p2043
tp2044
Rp2045
sg11
I1250
sg12
g7
(S'\x07\xda\x07\x1c\x165-\x00\x00\x00'
p2046
tp2047
Rp2048
sg16
S'MagDown'
p2049
ssI76792
(dp2050
g6
g7
(S'\x07\xda\x07\x1c\x165.\x00\x00\x00'
p2051
tp2052
Rp2053
sg11
I1250
sg12
g7
(S'\x07\xda\x07\x1d\x00\x071\x00\x00\x00'
p2054
tp2055
Rp2056
sg16
S'MagDown'
p2057
ssI76793
(dp2058
g6
g7
(S'\x07\xda\x07\x1d\x00\x072\x00\x00\x00'
p2059
tp2060
Rp2061
sg11
I1250
sg12
g7
(S"\x07\xda\x07\x1d\x00\n'\x00\x00\x00"
p2062
tp2063
Rp2064
sg16
S'MagDown'
p2065
ssI76794
(dp2066
g6
g7
(S"\x07\xda\x07\x1d\x00\n'\x00\x00\x00"
p2067
tp2068
Rp2069
sg11
I1250
sg12
g7
(S'\x07\xda\x07\x1d\x02\n8\x00\x00\x00'
p2070
tp2071
Rp2072
sg16
S'MagDown'
p2073
ssI76795
(dp2074
g6
g7
(S'\x07\xda\x07\x1d\x02\n8\x00\x00\x00'
p2075
tp2076
Rp2077
sg11
I1250
sg12
g7
(S'\x07\xda\x07\x1d\x04\x0b\x0c\x00\x00\x00'
p2078
tp2079
Rp2080
sg16
S'MagDown'
p2081
ssI76796
(dp2082
g6
g7
(S'\x07\xda\x07\x1d\x04\x0b\r\x00\x00\x00'
p2083
tp2084
Rp2085
sg11
I1250
sg12
g7
(S'\x07\xda\x07\x1d\x06\x0b!\x00\x00\x00'
p2086
tp2087
Rp2088
sg16
S'MagDown'
p2089
ssI76797
(dp2090
g6
g7
(S'\x07\xda\x07\x1d\x06\x0b"\x00\x00\x00'
p2091
tp2092
Rp2093
sg11
I1250
sg12
g7
(S'\x07\xda\x07\x1d\x08\x0b4\x00\x00\x00'
p2094
tp2095
Rp2096
sg16
S'MagDown'
p2097
ssI76798
(dp2098
g6
g7
(S'\x07\xda\x07\x1d\x08\x0b5\x00\x00\x00'
p2099
tp2100
Rp2101
sg11
I1250
sg12
g7
(S'\x07\xda\x07\x1d\n\x0c\x0e\x00\x00\x00'
p2102
tp2103
Rp2104
sg16
S'MagDown'
p2105
ssI76799
(dp2106
g6
g7
(S'\x07\xda\x07\x1d\n\x0c\x0f\x00\x00\x00'
p2107
tp2108
Rp2109
sg11
I1250
sg12
g7
(S'\x07\xda\x07\x1d\n)!\x00\x00\x00'
p2110
tp2111
Rp2112
sg16
S'MagDown'
p2113
ssI70666
(dp2114
g6
g7
(S'\x07\xda\x04\x18\x04\x18\x00\x00\x00\x00'
p2115
tp2116
Rp2117
sg11
I1058
sg12
g7
(S'\x07\xda\x04\x18\x05*\x00\x00\x00\x00'
p2118
tp2119
Rp2120
sg16
S'MagDown'
p2121
ssI70667
(dp2122
g6
g7
(S'\x07\xda\x04\x18\x051\x00\x00\x00\x00'
p2123
tp2124
Rp2125
sg11
I1058
sg12
g7
(S'\x07\xda\x04\x18\x06\n\x00\x00\x00\x00'
p2126
tp2127
Rp2128
sg16
S'MagDown'
p2129
ssI70679
(dp2130
g6
g7
(S'\x07\xda\x04\x18\n\x02\x00\x00\x00\x00'
p2131
tp2132
Rp2133
sg11
I1058
sg12
g7
(S'\x07\xda\x04\x18\n\x05\x00\x00\x00\x00'
p2134
tp2135
Rp2136
sg16
S'MagDown'
p2137
ssI70680
(dp2138
g6
g7
(S'\x07\xda\x04\x18\n\x0f\x00\x00\x00\x00'
p2139
tp2140
Rp2141
sg11
I1058
sg12
g7
(S'\x07\xda\x04\x18\n\x1c\x00\x00\x00\x00'
p2142
tp2143
Rp2144
sg16
S'MagDown'
p2145
ssI70681
(dp2146
g6
g7
(S'\x07\xda\x04\x18\n \x00\x00\x00\x00'
p2147
tp2148
Rp2149
sg11
I1058
sg12
g7
(S'\x07\xda\x04\x18\r\x02\x00\x00\x00\x00'
p2150
tp2151
Rp2152
sg16
S'MagDown'
p2153
ssI70682
(dp2154
g6
g7
(S'\x07\xda\x04\x18\r\x02\x00\x00\x00\x00'
p2155
tp2156
Rp2157
sg11
I1058
sg12
g7
(S'\x07\xda\x04\x18\x0e9\x00\x00\x00\x00'
p2158
tp2159
Rp2160
sg16
S'MagDown'
p2161
ssI70683
(dp2162
g6
g7
(S'\x07\xda\x04\x18\x0e9\x00\x00\x00\x00'
p2163
tp2164
Rp2165
sg11
I1058
sg12
g7
(S'\x07\xda\x04\x18\x11\x1b\x00\x00\x00\x00'
p2166
tp2167
Rp2168
sg16
S'MagDown'
p2169
ssI70684
(dp2170
g6
g7
(S'\x07\xda\x04\x18\x11\x1b\x00\x00\x00\x00'
p2171
tp2172
Rp2173
sg11
I1058
sg12
g7
(S'\x07\xda\x04\x18\x13:\x00\x00\x00\x00'
p2174
tp2175
Rp2176
sg16
S'MagDown'
p2177
ssI70685
(dp2178
g6
g7
(S'\x07\xda\x04\x18\x13:\x00\x00\x00\x00'
p2179
tp2180
Rp2181
sg11
I1058
sg12
g7
(S'\x07\xda\x04\x18\x16\x1c\x00\x00\x00\x00'
p2182
tp2183
Rp2184
sg16
S'MagDown'
p2185
ssI70686
(dp2186
g6
g7
(S'\x07\xda\x04\x18\x16\x1c\x00\x00\x00\x00'
p2187
tp2188
Rp2189
sg11
I1058
sg12
g7
(S'\x07\xda\x04\x19\x00:\x00\x00\x00\x00'
p2190
tp2191
Rp2192
sg16
S'MagDown'
p2193
ssI70687
(dp2194
g6
g7
(S'\x07\xda\x04\x19\x00:\x00\x00\x00\x00'
p2195
tp2196
Rp2197
sg11
I1058
sg12
g7
(S'\x07\xda\x04\x19\x03\x1c\x00\x00\x00\x00'
p2198
tp2199
Rp2200
sg16
S'MagDown'
p2201
ssI70688
(dp2202
g6
g7
(S'\x07\xda\x04\x19\x03\x1c\x00\x00\x00\x00'
p2203
tp2204
Rp2205
sg11
I1058
sg12
g7
(S'\x07\xda\x04\x19\x05\x07\x00\x00\x00\x00'
p2206
tp2207
Rp2208
sg16
S'MagDown'
p2209
ssI70689
(dp2210
g6
g7
(S'\x07\xda\x04\x19\x05\x15\x00\x00\x00\x00'
p2211
tp2212
Rp2213
sg11
I1058
sg12
g7
(S'\x07\xda\x04\x19\x06$\x00\x00\x00\x00'
p2214
tp2215
Rp2216
sg16
S'MagDown'
p2217
ssI70690
(dp2218
g6
g7
(S'\x07\xda\x04\x19\x06*\x00\x00\x00\x00'
p2219
tp2220
Rp2221
sg11
I1058
sg12
g7
(S'\x07\xda\x04\x19\t\r\x00\x00\x00\x00'
p2222
tp2223
Rp2224
sg16
S'MagDown'
p2225
ssI70691
(dp2226
g6
g7
(S'\x07\xda\x04\x19\t\r\x00\x00\x00\x00'
p2227
tp2228
Rp2229
sg11
I1058
sg12
g7
(S'\x07\xda\x04\x19\t\x13\x00\x00\x00\x00'
p2230
tp2231
Rp2232
sg16
S'MagDown'
p2233
ssI74788
(dp2234
g6
g7
(S'\x07\xda\x07\x04\x008-\x00\x00\x00'
p2235
tp2236
Rp2237
sg11
I1196
sg12
g7
(S'\x07\xda\x07\x04\x01\x1b\x19\x00\x00\x00'
p2238
tp2239
Rp2240
sg16
S'MagDown'
p2241
ssI74789
(dp2242
g6
g7
(S'\x07\xda\x07\x04\x01\x1b\x19\x00\x00\x00'
p2243
tp2244
Rp2245
sg11
I1196
sg12
g7
(S'\x07\xda\x07\x04\x01%\x1b\x00\x00\x00'
p2246
tp2247
Rp2248
sg16
S'MagDown'
p2249
ssI74790
(dp2250
g6
g7
(S'\x07\xda\x07\x04\x01%\x1c\x00\x00\x00'
p2251
tp2252
Rp2253
sg11
I1196
sg12
g7
(S'\x07\xda\x07\x04\x015\x11\x00\x00\x00'
p2254
tp2255
Rp2256
sg16
S'MagDown'
p2257
ssI76845
(dp2258
g6
g7
(S'\x07\xda\x07\x1d\x17#\x07\x00\x00\x00'
p2259
tp2260
Rp2261
sg11
I1251
sg12
g7
(S'\x07\xda\x07\x1e\x01#\x17\x00\x00\x00'
p2262
tp2263
Rp2264
sg16
S'MagDown'
p2265
ssI76846
(dp2266
g6
g7
(S'\x07\xda\x07\x1e\x01#\x18\x00\x00\x00'
p2267
tp2268
Rp2269
sg11
I1251
sg12
g7
(S'\x07\xda\x07\x1e\x03\x12\x0f\x00\x00\x00'
p2270
tp2271
Rp2272
sg16
S'MagDown'
p2273
ssI76847
(dp2274
g6
g7
(S'\x07\xda\x07\x1e\x03\x12\x10\x00\x00\x00'
p2275
tp2276
Rp2277
sg11
I1251
sg12
g7
(S'\x07\xda\x07\x1e\x03.\r\x00\x00\x00'
p2278
tp2279
Rp2280
sg16
S'MagDown'
p2281
ssI76848
(dp2282
g6
g7
(S'\x07\xda\x07\x1e\x03.\x0e\x00\x00\x00'
p2283
tp2284
Rp2285
sg11
I1251
sg12
g7
(S'\x07\xda\x07\x1e\x051\x07\x00\x00\x00'
p2286
tp2287
Rp2288
sg16
S'MagDown'
p2289
ssI74802
(dp2290
g6
g7
(S'\x07\xda\x07\x04\x06+6\x00\x00\x00'
p2291
tp2292
Rp2293
sg11
I1197
sg12
g7
(S'\x07\xda\x07\x04\x0643\x00\x00\x00'
p2294
tp2295
Rp2296
sg16
S'MagDown'
p2297
ssI76851
(dp2298
g6
g7
(S'\x07\xda\x07\x1e\x06:\x01\x00\x00\x00'
p2299
tp2300
Rp2301
sg11
I1251
sg12
g7
(S'\x07\xda\x07\x1e\x07,\x18\x00\x00\x00'
p2302
tp2303
Rp2304
sg16
S'MagDown'
p2305
ssI74804
(dp2306
g6
g7
(S"\x07\xda\x07\x04\x08\x14'\x00\x00\x00"
p2307
tp2308
Rp2309
sg11
I1197
sg12
g7
(S'\x07\xda\x07\x04\x08\x1c\x1a\x00\x00\x00'
p2310
tp2311
Rp2312
sg16
S'MagDown'
p2313
ssI74805
(dp2314
g6
g7
(S'\x07\xda\x07\x04\x08\x1c\x1b\x00\x00\x00'
p2315
tp2316
Rp2317
sg11
I1197
sg12
g7
(S'\x07\xda\x07\x04\t\x05\x11\x00\x00\x00'
p2318
tp2319
Rp2320
sg16
S'MagDown'
p2321
ssI74806
(dp2322
g6
g7
(S'\x07\xda\x07\x04\t\x05\x12\x00\x00\x00'
p2323
tp2324
Rp2325
sg11
I1197
sg12
g7
(S'\x07\xda\x07\x04\n\t\x12\x00\x00\x00'
p2326
tp2327
Rp2328
sg16
S'MagDown'
p2329
ssI74807
(dp2330
g6
g7
(S'\x07\xda\x07\x04\n\t\x13\x00\x00\x00'
p2331
tp2332
Rp2333
sg11
I1197
sg12
g7
(S'\x07\xda\x07\x04\x0c\t4\x00\x00\x00'
p2334
tp2335
Rp2336
sg16
S'MagDown'
p2337
ssI74808
(dp2338
g6
g7
(S'\x07\xda\x07\x04\x0c\t5\x00\x00\x00'
p2339
tp2340
Rp2341
sg11
I1197
sg12
g7
(S'\x07\xda\x07\x04\r\x12\x17\x00\x00\x00'
p2342
tp2343
Rp2344
sg16
S'MagDown'
p2345
ssI74809
(dp2346
g6
g7
(S'\x07\xda\x07\x04\r\x12\x17\x00\x00\x00'
p2347
tp2348
Rp2349
sg11
I1197
sg12
g7
(S'\x07\xda\x07\x04\r\x14 \x00\x00\x00'
p2350
tp2351
Rp2352
sg16
S'MagDown'
p2353
ssI74810
(dp2354
g6
g7
(S'\x07\xda\x07\x04\r\x14 \x00\x00\x00'
p2355
tp2356
Rp2357
sg11
I1197
sg12
g7
(S'\x07\xda\x07\x04\r\x1e\x00\x00\x00\x00'
p2358
tp2359
Rp2360
sg16
S'MagDown'
p2361
ssI74811
(dp2362
g6
g7
(S'\x07\xda\x07\x04\r\x1e\x00\x00\x00\x00'
p2363
tp2364
Rp2365
sg11
I1197
sg12
g7
(S'\x07\xda\x07\x04\r"2\x00\x00\x00'
p2366
tp2367
Rp2368
sg16
S'MagDown'
p2369
ssI74812
(dp2370
g6
g7
(S'\x07\xda\x07\x04\r"3\x00\x00\x00'
p2371
tp2372
Rp2373
sg11
I1197
sg12
g7
(S'\x07\xda\x07\x04\r&&\x00\x00\x00'
p2374
tp2375
Rp2376
sg16
S'MagDown'
p2377
ssI74813
(dp2378
g6
g7
(S"\x07\xda\x07\x04\r&'\x00\x00\x00"
p2379
tp2380
Rp2381
sg11
I1197
sg12
g7
(S'\x07\xda\x07\x04\r-\x03\x00\x00\x00'
p2382
tp2383
Rp2384
sg16
S'MagDown'
p2385
ssI74814
(dp2386
g6
g7
(S'\x07\xda\x07\x04\r-\x04\x00\x00\x00'
p2387
tp2388
Rp2389
sg11
I1197
sg12
g7
(S'\x07\xda\x07\x04\r0.\x00\x00\x00'
p2390
tp2391
Rp2392
sg16
S'MagDown'
p2393
ssI74815
(dp2394
g6
g7
(S'\x07\xda\x07\x04\r0/\x00\x00\x00'
p2395
tp2396
Rp2397
sg11
I1197
sg12
g7
(S'\x07\xda\x07\x04\r4\x1e\x00\x00\x00'
p2398
tp2399
Rp2400
sg16
S'MagDown'
p2401
ssI74816
(dp2402
g6
g7
(S'\x07\xda\x07\x04\r4\x1e\x00\x00\x00'
p2403
tp2404
Rp2405
sg11
I1197
sg12
g7
(S'\x07\xda\x07\x04\r8\x06\x00\x00\x00'
p2406
tp2407
Rp2408
sg16
S'MagDown'
p2409
ssI74817
(dp2410
g6
g7
(S'\x07\xda\x07\x04\r8\x07\x00\x00\x00'
p2411
tp2412
Rp2413
sg11
I1197
sg12
g7
(S'\x07\xda\x07\x04\x0e\x00\x16\x00\x00\x00'
p2414
tp2415
Rp2416
sg16
S'MagDown'
p2417
ssI74818
(dp2418
g6
g7
(S'\x07\xda\x07\x04\x0e\x00\x17\x00\x00\x00'
p2419
tp2420
Rp2421
sg11
I1197
sg12
g7
(S'\x07\xda\x07\x04\x0e\x04\x11\x00\x00\x00'
p2422
tp2423
Rp2424
sg16
S'MagDown'
p2425
ssI74819
(dp2426
g6
g7
(S'\x07\xda\x07\x04\x0e\x04\x12\x00\x00\x00'
p2427
tp2428
Rp2429
sg11
I1197
sg12
g7
(S'\x07\xda\x07\x04\x0e\x079\x00\x00\x00'
p2430
tp2431
Rp2432
sg16
S'MagDown'
p2433
ssI74820
(dp2434
g6
g7
(S'\x07\xda\x07\x04\x0e\x079\x00\x00\x00'
p2435
tp2436
Rp2437
sg11
I1197
sg12
g7
(S'\x07\xda\x07\x04\x0e\x0e\x07\x00\x00\x00'
p2438
tp2439
Rp2440
sg16
S'MagDown'
p2441
ssI74821
(dp2442
g6
g7
(S'\x07\xda\x07\x04\x0e\x0e\x08\x00\x00\x00'
p2443
tp2444
Rp2445
sg11
I1197
sg12
g7
(S'\x07\xda\x07\x04\x0e\x117\x00\x00\x00'
p2446
tp2447
Rp2448
sg16
S'MagDown'
p2449
ssI74822
(dp2450
g6
g7
(S'\x07\xda\x07\x04\x0e\x118\x00\x00\x00'
p2451
tp2452
Rp2453
sg11
I1197
sg12
g7
(S'\x07\xda\x07\x04\x0e\x15!\x00\x00\x00'
p2454
tp2455
Rp2456
sg16
S'MagDown'
p2457
ssI74823
(dp2458
g6
g7
(S'\x07\xda\x07\x04\x0e\x15"\x00\x00\x00'
p2459
tp2460
Rp2461
sg11
I1197
sg12
g7
(S'\x07\xda\x07\x04\x0e\x19\x08\x00\x00\x00'
p2462
tp2463
Rp2464
sg16
S'MagDown'
p2465
ssI74825
(dp2466
g6
g7
(S'\x07\xda\x07\x04\x0e\x1a\x1c\x00\x00\x00'
p2467
tp2468
Rp2469
sg11
I1197
sg12
g7
(S'\x07\xda\x07\x04\x0e\x1e\x05\x00\x00\x00'
p2470
tp2471
Rp2472
sg16
S'MagDown'
p2473
ssI74826
(dp2474
g6
g7
(S'\x07\xda\x07\x04\x0e\x1e\x06\x00\x00\x00'
p2475
tp2476
Rp2477
sg11
I1197
sg12
g7
(S'\x07\xda\x07\x04\x0e!.\x00\x00\x00'
p2478
tp2479
Rp2480
sg16
S'MagDown'
p2481
ssI74827
(dp2482
g6
g7
(S'\x07\xda\x07\x04\x0e!/\x00\x00\x00'
p2483
tp2484
Rp2485
sg11
I1197
sg12
g7
(S'\x07\xda\x07\x04\x0e%\x13\x00\x00\x00'
p2486
tp2487
Rp2488
sg16
S'MagDown'
p2489
ssI74828
(dp2490
g6
g7
(S'\x07\xda\x07\x04\x0e%\x14\x00\x00\x00'
p2491
tp2492
Rp2493
sg11
I1197
sg12
g7
(S'\x07\xda\x07\x04\x0e*\x0f\x00\x00\x00'
p2494
tp2495
Rp2496
sg16
S'MagDown'
p2497
ssI74829
(dp2498
g6
g7
(S'\x07\xda\x07\x04\x0e*\x10\x00\x00\x00'
p2499
tp2500
Rp2501
sg11
I1197
sg12
g7
(S'\x07\xda\x07\x04\x0f\x0f\x04\x00\x00\x00'
p2502
tp2503
Rp2504
sg16
S'MagDown'
p2505
ssI70734
(dp2506
g6
g7
(S'\x07\xda\x04\x1a\x06\x19\x00\x00\x00\x00'
p2507
tp2508
Rp2509
sg11
I1059
sg12
g7
(S'\x07\xda\x04\x1a\x06 \x00\x00\x00\x00'
p2510
tp2511
Rp2512
sg16
S'MagDown'
p2513
ssI74836
(dp2514
g6
g7
(S'\x07\xda\x07\x04\x104\x1f\x00\x00\x00'
p2515
tp2516
Rp2517
sg11
I1197
sg12
g7
(S'\x07\xda\x07\x04\x12\x0c2\x00\x00\x00'
p2518
tp2519
Rp2520
sg16
S'MagDown'
p2521
ssI78009
(dp2522
g6
g7
(S"\x07\xda\x08\x18\x00'&\x00\x00\x00"
p2523
tp2524
Rp2525
sg11
I1299
sg12
g7
(S'\x07\xda\x08\x18\x00+%\x00\x00\x00'
p2526
tp2527
Rp2528
sg16
S'MagUp'
p2529
ssI78011
(dp2530
g6
g7
(S'\x07\xda\x08\x18\x01\x12\x1d\x00\x00\x00'
p2531
tp2532
Rp2533
sg11
I1299
sg12
g7
(S"\x07\xda\x08\x18\x01'-\x00\x00\x00"
p2534
tp2535
Rp2536
sg16
S'MagUp'
p2537
ssI74853
(dp2538
g6
g7
(S'\x07\xda\x07\x05\x02%"\x00\x00\x00'
p2539
tp2540
Rp2541
sg11
I1198
sg12
g7
(S'\x07\xda\x07\x05\x02(2\x00\x00\x00'
p2542
tp2543
Rp2544
sg16
S'MagDown'
p2545
ssI74854
(dp2546
g6
g7
(S'\x07\xda\x07\x05\x02(3\x00\x00\x00'
p2547
tp2548
Rp2549
sg11
I1198
sg12
g7
(S'\x07\xda\x07\x05\x04\x0f\x00\x00\x00\x00'
p2550
tp2551
Rp2552
sg16
S'MagDown'
p2553
ssI74855
(dp2554
g6
g7
(S'\x07\xda\x07\x05\x04\x0f\x01\x00\x00\x00'
p2555
tp2556
Rp2557
sg11
I1198
sg12
g7
(S'\x07\xda\x07\x05\x049.\x00\x00\x00'
p2558
tp2559
Rp2560
sg16
S'MagDown'
p2561
ssI74857
(dp2562
g6
g7
(S'\x07\xda\x07\x05\x05*\x01\x00\x00\x00'
p2563
tp2564
Rp2565
sg11
I1198
sg12
g7
(S'\x07\xda\x07\x05\x06;\x11\x00\x00\x00'
p2566
tp2567
Rp2568
sg16
S'MagDown'
p2569
ssI74858
(dp2570
g6
g7
(S'\x07\xda\x07\x05\x06;\x12\x00\x00\x00'
p2571
tp2572
Rp2573
sg11
I1198
sg12
g7
(S'\x07\xda\x07\x05\x07\x03\x02\x00\x00\x00'
p2574
tp2575
Rp2576
sg16
S'MagDown'
p2577
ssI74861
(dp2578
g6
g7
(S'\x07\xda\x07\x05\x07\x06\x00\x00\x00\x00'
p2579
tp2580
Rp2581
sg11
I1198
sg12
g7
(S'\x07\xda\x07\x05\x07\x1a\x05\x00\x00\x00'
p2582
tp2583
Rp2584
sg16
S'MagDown'
p2585
ssI74862
(dp2586
g6
g7
(S'\x07\xda\x07\x05\x07\x1a\x06\x00\x00\x00'
p2587
tp2588
Rp2589
sg11
I1198
sg12
g7
(S'\x07\xda\x07\x05\x08;$\x00\x00\x00'
p2590
tp2591
Rp2592
sg16
S'MagDown'
p2593
ssI74863
(dp2594
g6
g7
(S'\x07\xda\x07\x05\x08;$\x00\x00\x00'
p2595
tp2596
Rp2597
sg11
I1198
sg12
g7
(S'\x07\xda\x07\x05\n\x1f1\x00\x00\x00'
p2598
tp2599
Rp2600
sg16
S'MagDown'
p2601
ssI74865
(dp2602
g6
g7
(S'\x07\xda\x07\x05\n!\x13\x00\x00\x00'
p2603
tp2604
Rp2605
sg11
I1198
sg12
g7
(S'\x07\xda\x07\x05\n&\x07\x00\x00\x00'
p2606
tp2607
Rp2608
sg16
S'MagDown'
p2609
ssI74866
(dp2610
g6
g7
(S'\x07\xda\x07\x05\n&\x08\x00\x00\x00'
p2611
tp2612
Rp2613
sg11
I1198
sg12
g7
(S'\x07\xda\x07\x05\x0c&)\x00\x00\x00'
p2614
tp2615
Rp2616
sg16
S'MagDown'
p2617
ssI74867
(dp2618
g6
g7
(S'\x07\xda\x07\x05\x0c&*\x00\x00\x00'
p2619
tp2620
Rp2621
sg11
I1198
sg12
g7
(S'\x07\xda\x07\x05\r9%\x00\x00\x00'
p2622
tp2623
Rp2624
sg16
S'MagDown'
p2625
ssI76932
(dp2626
g6
g7
(S'\x07\xda\x07\x1e\x17\x1a\x0c\x00\x00\x00'
p2627
tp2628
Rp2629
sg11
I1253
sg12
g7
(S'\x07\xda\x07\x1e\x17:)\x00\x00\x00'
p2630
tp2631
Rp2632
sg16
S'MagDown'
p2633
ssI76933
(dp2634
g6
g7
(S'\x07\xda\x07\x1e\x17:)\x00\x00\x00'
p2635
tp2636
Rp2637
sg11
I1253
sg12
g7
(S'\x07\xda\x07\x1f\x01:8\x00\x00\x00'
p2638
tp2639
Rp2640
sg16
S'MagDown'
p2641
ssI70280
(dp2642
g6
g7
(S'\x07\xda\x04\x11\x0c\x07\x00\x00\x00\x00'
p2643
tp2644
Rp2645
sg11
I1045
sg12
g7
(S'\x07\xda\x04\x11\x0e%\x00\x00\x00\x00'
p2646
tp2647
Rp2648
sg16
S'MagDown'
p2649
ssI74905
(dp2650
g6
g7
(S'\x07\xda\x07\x05\x17\x16%\x00\x00\x00'
p2651
tp2652
Rp2653
sg11
I1199
sg12
g7
(S'\x07\xda\x07\x06\x01\x17\x02\x00\x00\x00'
p2654
tp2655
Rp2656
sg16
S'MagDown'
p2657
ssI74906
(dp2658
g6
g7
(S'\x07\xda\x07\x06\x01\x17\x02\x00\x00\x00'
p2659
tp2660
Rp2661
sg11
I1199
sg12
g7
(S'\x07\xda\x07\x06\x02\x1f)\x00\x00\x00'
p2662
tp2663
Rp2664
sg16
S'MagDown'
p2665
ssI74907
(dp2666
g6
g7
(S'\x07\xda\x07\x06\x02\x1f*\x00\x00\x00'
p2667
tp2668
Rp2669
sg11
I1199
sg12
g7
(S'\x07\xda\x07\x06\x025%\x00\x00\x00'
p2670
tp2671
Rp2672
sg16
S'MagDown'
p2673
ssI74908
(dp2674
g6
g7
(S'\x07\xda\x07\x06\x025&\x00\x00\x00'
p2675
tp2676
Rp2677
sg11
I1199
sg12
g7
(S'\x07\xda\x07\x06\x02;\r\x00\x00\x00'
p2678
tp2679
Rp2680
sg16
S'MagDown'
p2681
ssI76976
(dp2682
g6
g7
(S'\x07\xda\x08\x01\x04\x07\x12\x00\x00\x00'
p2683
tp2684
Rp2685
sg11
I1256
sg12
g7
(S'\x07\xda\x08\x01\x04\x0e\n\x00\x00\x00'
p2686
tp2687
Rp2688
sg16
S'MagDown'
p2689
ssI76977
(dp2690
g6
g7
(S'\x07\xda\x08\x01\x04\x0e\n\x00\x00\x00'
p2691
tp2692
Rp2693
sg11
I1256
sg12
g7
(S'\x07\xda\x08\x01\x04\x13\x17\x00\x00\x00'
p2694
tp2695
Rp2696
sg16
S'MagDown'
p2697
ssI76978
(dp2698
g6
g7
(S'\x07\xda\x08\x01\x04\x13\x18\x00\x00\x00'
p2699
tp2700
Rp2701
sg11
I1256
sg12
g7
(S'\x07\xda\x08\x01\x04!\x18\x00\x00\x00'
p2702
tp2703
Rp2704
sg16
S'MagDown'
p2705
ssI76979
(dp2706
g6
g7
(S'\x07\xda\x08\x01\x04!\x18\x00\x00\x00'
p2707
tp2708
Rp2709
sg11
I1256
sg12
g7
(S'\x07\xda\x08\x01\x042#\x00\x00\x00'
p2710
tp2711
Rp2712
sg16
S'MagDown'
p2713
ssI76994
(dp2714
g6
g7
(S'\x07\xda\x08\x01\x16\x08.\x00\x00\x00'
p2715
tp2716
Rp2717
sg11
I1257
sg12
g7
(S"\x07\xda\x08\x01\x17\x1a'\x00\x00\x00"
p2718
tp2719
Rp2720
sg16
S'MagDown'
p2721
ssI76996
(dp2722
g6
g7
(S'\x07\xda\x08\x01\x17\x1c\x05\x00\x00\x00'
p2723
tp2724
Rp2725
sg11
I1257
sg12
g7
(S'\x07\xda\x08\x02\x01\x1c\x12\x00\x00\x00'
p2726
tp2727
Rp2728
sg16
S'MagDown'
p2729
ssI76997
(dp2730
g6
g7
(S'\x07\xda\x08\x02\x01\x1c\x13\x00\x00\x00'
p2731
tp2732
Rp2733
sg11
I1257
sg12
g7
(S'\x07\xda\x08\x02\x03\x1c%\x00\x00\x00'
p2734
tp2735
Rp2736
sg16
S'MagDown'
p2737
ssI76998
(dp2738
g6
g7
(S'\x07\xda\x08\x02\x03\x1c&\x00\x00\x00'
p2739
tp2740
Rp2741
sg11
I1257
sg12
g7
(S'\x07\xda\x08\x02\x05\x1c:\x00\x00\x00'
p2742
tp2743
Rp2744
sg16
S'MagDown'
p2745
ssI76999
(dp2746
g6
g7
(S'\x07\xda\x08\x02\x05\x1c;\x00\x00\x00'
p2747
tp2748
Rp2749
sg11
I1257
sg12
g7
(S'\x07\xda\x08\x02\x07\x1d\x13\x00\x00\x00'
p2750
tp2751
Rp2752
sg16
S'MagDown'
p2753
ssI77000
(dp2754
g6
g7
(S'\x07\xda\x08\x02\x07\x1d\x13\x00\x00\x00'
p2755
tp2756
Rp2757
sg11
I1257
sg12
g7
(S"\x07\xda\x08\x02\t\x1d'\x00\x00\x00"
p2758
tp2759
Rp2760
sg16
S'MagDown'
p2761
ssI77001
(dp2762
g6
g7
(S'\x07\xda\x08\x02\t\x1d(\x00\x00\x00'
p2763
tp2764
Rp2765
sg11
I1257
sg12
g7
(S'\x07\xda\x08\x02\n#\x0e\x00\x00\x00'
p2766
tp2767
Rp2768
sg16
S'MagDown'
p2769
ssI77002
(dp2770
g6
g7
(S'\x07\xda\x08\x02\n#\x0f\x00\x00\x00'
p2771
tp2772
Rp2773
sg11
I1257
sg12
g7
(S'\x07\xda\x08\x02\x0b\x11(\x00\x00\x00'
p2774
tp2775
Rp2776
sg16
S'MagDown'
p2777
ssI77003
(dp2778
g6
g7
(S'\x07\xda\x08\x02\x0b\x11)\x00\x00\x00'
p2779
tp2780
Rp2781
sg11
I1257
sg12
g7
(S'\x07\xda\x08\x02\x0b/\x03\x00\x00\x00'
p2782
tp2783
Rp2784
sg16
S'MagDown'
p2785
ssI72908
(dp2786
g6
g7
(S'\x07\xda\x06\x05\x0e+\r\x00\x00\x00'
p2787
tp2788
Rp2789
sg11
I1134
sg12
g7
(S'\x07\xda\x06\x05\x10+\x1d\x00\x00\x00'
p2790
tp2791
Rp2792
sg16
S'MagDown'
p2793
ssI72909
(dp2794
g6
g7
(S'\x07\xda\x06\x05\x10+\x1e\x00\x00\x00'
p2795
tp2796
Rp2797
sg11
I1134
sg12
g7
(S'\x07\xda\x06\x05\x11%\r\x00\x00\x00'
p2798
tp2799
Rp2800
sg16
S'MagDown'
p2801
ssI75499
(dp2802
g6
g7
(S'\x07\xda\x07\x0f\x08\x01\x0f\x00\x00\x00'
p2803
tp2804
Rp2805
sg11
I1226
sg12
g7
(S'\x07\xda\x07\x0f\x08\x02)\x00\x00\x00'
p2806
tp2807
Rp2808
sg16
S'MagUp'
p2809
ssI77059
(dp2810
g6
g7
(S'\x07\xda\x08\x03\x00\x1b;\x00\x00\x00'
p2811
tp2812
Rp2813
sg11
I1258
sg12
g7
(S'\x07\xda\x08\x03\x02\x1c\x12\x00\x00\x00'
p2814
tp2815
Rp2816
sg16
S'MagDown'
p2817
ssI77060
(dp2818
g6
g7
(S'\x07\xda\x08\x03\x02\x1c\x13\x00\x00\x00'
p2819
tp2820
Rp2821
sg11
I1258
sg12
g7
(S'\x07\xda\x08\x03\x029\x16\x00\x00\x00'
p2822
tp2823
Rp2824
sg16
S'MagDown'
p2825
ssI77062
(dp2826
g6
g7
(S'\x07\xda\x08\x03\x02: \x00\x00\x00'
p2827
tp2828
Rp2829
sg11
I1258
sg12
g7
(S'\x07\xda\x08\x03\x036\x12\x00\x00\x00'
p2830
tp2831
Rp2832
sg16
S'MagDown'
p2833
ssI77063
(dp2834
g6
g7
(S'\x07\xda\x08\x03\x036\x13\x00\x00\x00'
p2835
tp2836
Rp2837
sg11
I1258
sg12
g7
(S'\x07\xda\x08\x03\x04)\x19\x00\x00\x00'
p2838
tp2839
Rp2840
sg16
S'MagDown'
p2841
ssI77064
(dp2842
g6
g7
(S'\x07\xda\x08\x03\x04)*\x00\x00\x00'
p2843
tp2844
Rp2845
sg11
I1258
sg12
g7
(S'\x07\xda\x08\x03\x04-4\x00\x00\x00'
p2846
tp2847
Rp2848
sg16
S'MagDown'
p2849
ssI77065
(dp2850
g6
g7
(S'\x07\xda\x08\x03\x04.\x0b\x00\x00\x00'
p2851
tp2852
Rp2853
sg11
I1258
sg12
g7
(S'\x07\xda\x08\x03\x06.\x19\x00\x00\x00'
p2854
tp2855
Rp2856
sg16
S'MagDown'
p2857
ssI77066
(dp2858
g6
g7
(S'\x07\xda\x08\x03\x06.\x1a\x00\x00\x00'
p2859
tp2860
Rp2861
sg11
I1258
sg12
g7
(S"\x07\xda\x08\x03\x07''\x00\x00\x00"
p2862
tp2863
Rp2864
sg16
S'MagDown'
p2865
ssI77067
(dp2866
g6
g7
(S"\x07\xda\x08\x03\x07'(\x00\x00\x00"
p2867
tp2868
Rp2869
sg11
I1258
sg12
g7
(S'\x07\xda\x08\x03\x07)\x1f\x00\x00\x00'
p2870
tp2871
Rp2872
sg16
S'MagDown'
p2873
ssI74377
(dp2874
g6
g7
(S'\x07\xda\x06\x1b\x02\x1a\x0c\x00\x00\x00'
p2875
tp2876
Rp2877
sg11
I1182
sg12
g7
(S'\x07\xda\x06\x1b\x04\x1a$\x00\x00\x00'
p2878
tp2879
Rp2880
sg16
S'MagDown'
p2881
ssI68909
(dp2882
g6
g7
(S'\x07\xda\x03\x19\x0b\x0b\x00\x00\x00\x00'
p2883
tp2884
Rp2885
sg11
I993
sg12
g7
(S'\x07\xda\x03\x19\x0c\x13\x00\x00\x00\x00'
p2886
tp2887
Rp2888
sg16
S'MagDown'
p2889
ssI77102
(dp2890
g6
g7
(S'\x07\xda\x08\x04\x0436\x00\x00\x00'
p2891
tp2892
Rp2893
sg11
I1260
sg12
g7
(S'\x07\xda\x08\x04\x065\x17\x00\x00\x00'
p2894
tp2895
Rp2896
sg16
S'MagDown'
p2897
ssI74378
(dp2898
g6
g7
(S'\x07\xda\x06\x1b\x04\x1a%\x00\x00\x00'
p2899
tp2900
Rp2901
sg11
I1182
sg12
g7
(S'\x07\xda\x06\x1b\x054\x1b\x00\x00\x00'
p2902
tp2903
Rp2904
sg16
S'MagDown'
p2905
ssI77127
(dp2906
g6
g7
(S'\x07\xda\x08\x04\x115(\x00\x00\x00'
p2907
tp2908
Rp2909
sg11
I1262
sg12
g7
(S'\x07\xda\x08\x04\x14\x1e\t\x00\x00\x00'
p2910
tp2911
Rp2912
sg16
S'MagDown'
p2913
ssI77128
(dp2914
g6
g7
(S'\x07\xda\x08\x04\x14\x1e\t\x00\x00\x00'
p2915
tp2916
Rp2917
sg11
I1262
sg12
g7
(S'\x07\xda\x08\x04\x16\t+\x00\x00\x00'
p2918
tp2919
Rp2920
sg16
S'MagDown'
p2921
ssI77129
(dp2922
g6
g7
(S'\x07\xda\x08\x04\x16\t+\x00\x00\x00'
p2923
tp2924
Rp2925
sg11
I1262
sg12
g7
(S'\x07\xda\x08\x04\x166\x1f\x00\x00\x00'
p2926
tp2927
Rp2928
sg16
S'MagDown'
p2929
ssI77130
(dp2930
g6
g7
(S'\x07\xda\x08\x04\x166\x1f\x00\x00\x00'
p2931
tp2932
Rp2933
sg11
I1262
sg12
g7
(S'\x07\xda\x08\x04\x17:"\x00\x00\x00'
p2934
tp2935
Rp2936
sg16
S'MagDown'
p2937
ssI77131
(dp2938
g6
g7
(S'\x07\xda\x08\x04\x17:#\x00\x00\x00'
p2939
tp2940
Rp2941
sg11
I1262
sg12
g7
(S'\x07\xda\x08\x05\x00\x00\x1e\x00\x00\x00'
p2942
tp2943
Rp2944
sg16
S'MagDown'
p2945
ssI77132
(dp2946
g6
g7
(S'\x07\xda\x08\x05\x00\x00\x1f\x00\x00\x00'
p2947
tp2948
Rp2949
sg11
I1262
sg12
g7
(S'\x07\xda\x08\x05\x02\x002\x00\x00\x00'
p2950
tp2951
Rp2952
sg16
S'MagDown'
p2953
ssI77133
(dp2954
g6
g7
(S'\x07\xda\x08\x05\x02\x003\x00\x00\x00'
p2955
tp2956
Rp2957
sg11
I1262
sg12
g7
(S'\x07\xda\x08\x05\x04\x01\t\x00\x00\x00'
p2958
tp2959
Rp2960
sg16
S'MagDown'
p2961
ssI77134
(dp2962
g6
g7
(S'\x07\xda\x08\x05\x04\x01\n\x00\x00\x00'
p2963
tp2964
Rp2965
sg11
I1262
sg12
g7
(S'\x07\xda\x08\x05\x06\x01\x1c\x00\x00\x00'
p2966
tp2967
Rp2968
sg16
S'MagDown'
p2969
ssI77135
(dp2970
g6
g7
(S'\x07\xda\x08\x05\x06\x01\x1c\x00\x00\x00'
p2971
tp2972
Rp2973
sg11
I1262
sg12
g7
(S'\x07\xda\x08\x05\x08\x01)\x00\x00\x00'
p2974
tp2975
Rp2976
sg16
S'MagDown'
p2977
ssI77136
(dp2978
g6
g7
(S'\x07\xda\x08\x05\x08\x01)\x00\x00\x00'
p2979
tp2980
Rp2981
sg11
I1262
sg12
g7
(S'\x07\xda\x08\x05\n\x01;\x00\x00\x00'
p2982
tp2983
Rp2984
sg16
S'MagDown'
p2985
ssI77138
(dp2986
g6
g7
(S'\x07\xda\x08\x05\n\x02\x00\x00\x00\x00'
p2987
tp2988
Rp2989
sg11
I1262
sg12
g7
(S'\x07\xda\x08\x05\x0b\n\x1b\x00\x00\x00'
p2990
tp2991
Rp2992
sg16
S'MagDown'
p2993
ssI77139
(dp2994
g6
g7
(S'\x07\xda\x08\x05\x0b\n\x1c\x00\x00\x00'
p2995
tp2996
Rp2997
sg11
I1262
sg12
g7
(S'\x07\xda\x08\x05\x0b\x0c\x03\x00\x00\x00'
p2998
tp2999
Rp3000
sg16
S'MagDown'
p3001
ssI78052
(dp3002
g6
g7
(S'\x07\xda\x08\x18\x12\x0f1\x00\x00\x00'
p3003
tp3004
Rp3005
sg11
I1301
sg12
g7
(S'\x07\xda\x08\x18\x12\x11\x16\x00\x00\x00'
p3006
tp3007
Rp3008
sg16
S'MagUp'
p3009
ssI78054
(dp3010
g6
g7
(S'\x07\xda\x08\x18\x12"\x1b\x00\x00\x00'
p3011
tp3012
Rp3013
sg11
I1301
sg12
g7
(S"\x07\xda\x08\x18\x12':\x00\x00\x00"
p3014
tp3015
Rp3016
sg16
S'MagUp'
p3017
ssI77171
(dp3018
g6
g7
(S'\x07\xda\x08\x06\x04\x00-\x00\x00\x00'
p3019
tp3020
Rp3021
sg11
I1263
sg12
g7
(S'\x07\xda\x08\x06\x044\t\x00\x00\x00'
p3022
tp3023
Rp3024
sg16
S'MagDown'
p3025
ssI77172
(dp3026
g6
g7
(S'\x07\xda\x08\x06\x044\n\x00\x00\x00'
p3027
tp3028
Rp3029
sg11
I1263
sg12
g7
(S'\x07\xda\x08\x06\x064!\x00\x00\x00'
p3030
tp3031
Rp3032
sg16
S'MagDown'
p3033
ssI77173
(dp3034
g6
g7
(S'\x07\xda\x08\x06\x064"\x00\x00\x00'
p3035
tp3036
Rp3037
sg11
I1263
sg12
g7
(S'\x07\xda\x08\x06\x0843\x00\x00\x00'
p3038
tp3039
Rp3040
sg16
S'MagDown'
p3041
ssI77174
(dp3042
g6
g7
(S'\x07\xda\x08\x06\x0843\x00\x00\x00'
p3043
tp3044
Rp3045
sg11
I1263
sg12
g7
(S'\x07\xda\x08\x06\t\x01(\x00\x00\x00'
p3046
tp3047
Rp3048
sg16
S'MagDown'
p3049
ssI77175
(dp3050
g6
g7
(S'\x07\xda\x08\x06\t\x055\x00\x00\x00'
p3051
tp3052
Rp3053
sg11
I1263
sg12
g7
(S'\x07\xda\x08\x06\x0b\x06\r\x00\x00\x00'
p3054
tp3055
Rp3056
sg16
S'MagDown'
p3057
ssI77176
(dp3058
g6
g7
(S'\x07\xda\x08\x06\x0b\x06\x0e\x00\x00\x00'
p3059
tp3060
Rp3061
sg11
I1263
sg12
g7
(S'\x07\xda\x08\x06\r\x06\x1e\x00\x00\x00'
p3062
tp3063
Rp3064
sg16
S'MagDown'
p3065
ssI77177
(dp3066
g6
g7
(S'\x07\xda\x08\x06\r\x06\x1f\x00\x00\x00'
p3067
tp3068
Rp3069
sg11
I1263
sg12
g7
(S'\x07\xda\x08\x06\x0e8.\x00\x00\x00'
p3070
tp3071
Rp3072
sg16
S'MagDown'
p3073
ssI77179
(dp3074
g6
g7
(S'\x07\xda\x08\x06\x0e92\x00\x00\x00'
p3075
tp3076
Rp3077
sg11
I1263
sg12
g7
(S'\x07\xda\x08\x06\x10\x14!\x00\x00\x00'
p3078
tp3079
Rp3080
sg16
S'MagDown'
p3081
ssI77180
(dp3082
g6
g7
(S'\x07\xda\x08\x06\x10\x14"\x00\x00\x00'
p3083
tp3084
Rp3085
sg11
I1263
sg12
g7
(S'\x07\xda\x08\x06\x12\x144\x00\x00\x00'
p3086
tp3087
Rp3088
sg16
S'MagDown'
p3089
ssI77181
(dp3090
g6
g7
(S'\x07\xda\x08\x06\x12\x145\x00\x00\x00'
p3091
tp3092
Rp3093
sg11
I1263
sg12
g7
(S'\x07\xda\x08\x06\x124\x05\x00\x00\x00'
p3094
tp3095
Rp3096
sg16
S'MagDown'
p3097
ssI77183
(dp3098
g6
g7
(S'\x07\xda\x08\x06\x125\x1a\x00\x00\x00'
p3099
tp3100
Rp3101
sg11
I1263
sg12
g7
(S'\x07\xda\x08\x06\x13\x03\x15\x00\x00\x00'
p3102
tp3103
Rp3104
sg16
S'MagDown'
p3105
ssI77195
(dp3106
g6
g7
(S'\x07\xda\x08\x07\x018\x0e\x00\x00\x00'
p3107
tp3108
Rp3109
sg11
I1264
sg12
g7
(S'\x07\xda\x08\x07\x02\x116\x00\x00\x00'
p3110
tp3111
Rp3112
sg16
S'MagDown'
p3113
ssI77196
(dp3114
g6
g7
(S'\x07\xda\x08\x07\x02\x117\x00\x00\x00'
p3115
tp3116
Rp3117
sg11
I1264
sg12
g7
(S'\x07\xda\x08\x07\x02\x1e/\x00\x00\x00'
p3118
tp3119
Rp3120
sg16
S'MagDown'
p3121
ssI75160
(dp3122
g6
g7
(S'\x07\xda\x07\t\x04\x1b4\x00\x00\x00'
p3123
tp3124
Rp3125
sg11
I1207
sg12
g7
(S'\x07\xda\x07\t\x04.0\x00\x00\x00'
p3126
tp3127
Rp3128
sg16
S'MagDown'
p3129
ssI75161
(dp3130
g6
g7
(S'\x07\xda\x07\t\x04.1\x00\x00\x00'
p3131
tp3132
Rp3133
sg11
I1207
sg12
g7
(S'\x07\xda\x07\t\x06#\x08\x00\x00\x00'
p3134
tp3135
Rp3136
sg16
S'MagDown'
p3137
ssI78063
(dp3138
g6
g7
(S'\x07\xda\x08\x18\x13\x1a\x1d\x00\x00\x00'
p3139
tp3140
Rp3141
sg11
I1301
sg12
g7
(S'\x07\xda\x08\x18\x14\x1a-\x00\x00\x00'
p3142
tp3143
Rp3144
sg16
S'MagUp'
p3145
ssI75166
(dp3146
g6
g7
(S'\x07\xda\x07\t\x06(\x0b\x00\x00\x00'
p3147
tp3148
Rp3149
sg11
I1207
sg12
g7
(S'\x07\xda\x07\t\x06-\x08\x00\x00\x00'
p3150
tp3151
Rp3152
sg16
S'MagDown'
p3153
ssI78064
(dp3154
g6
g7
(S'\x07\xda\x08\x18\x14\x1a-\x00\x00\x00'
p3155
tp3156
Rp3157
sg11
I1301
sg12
g7
(S'\x07\xda\x08\x18\x15\x15\x1a\x00\x00\x00'
p3158
tp3159
Rp3160
sg16
S'MagUp'
p3161
ssI77222
(dp3162
g6
g7
(S'\x07\xda\x08\x07\x17\x15\x0e\x00\x00\x00'
p3163
tp3164
Rp3165
sg11
I1266
sg12
g7
(S'\x07\xda\x08\x08\x01\x1f!\x00\x00\x00'
p3166
tp3167
Rp3168
sg16
S'MagDown'
p3169
ssI78065
(dp3170
g6
g7
(S'\x07\xda\x08\x18\x15\x15\x1a\x00\x00\x00'
p3171
tp3172
Rp3173
sg11
I1301
sg12
g7
(S'\x07\xda\x08\x18\x16\x15-\x00\x00\x00'
p3174
tp3175
Rp3176
sg16
S'MagUp'
p3177
ssI75176
(dp3178
g6
g7
(S'\x07\xda\x07\t\x08\x1e\x16\x00\x00\x00'
p3179
tp3180
Rp3181
sg11
I1207
sg12
g7
(S'\x07\xda\x07\t\n\n\x0e\x00\x00\x00'
p3182
tp3183
Rp3184
sg16
S'MagDown'
p3185
ssI77230
(dp3186
g6
g7
(S'\x07\xda\x08\x08\x05\x1b\x0e\x00\x00\x00'
p3187
tp3188
Rp3189
sg11
I1267
sg12
g7
(S'\x07\xda\x08\x08\x07\x1b \x00\x00\x00'
p3190
tp3191
Rp3192
sg16
S'MagDown'
p3193
ssI77231
(dp3194
g6
g7
(S'\x07\xda\x08\x08\x07\x1b!\x00\x00\x00'
p3195
tp3196
Rp3197
sg11
I1267
sg12
g7
(S'\x07\xda\x08\x08\t\x02\x1f\x00\x00\x00'
p3198
tp3199
Rp3200
sg16
S'MagDown'
p3201
ssI77232
(dp3202
g6
g7
(S'\x07\xda\x08\x08\t\x02 \x00\x00\x00'
p3203
tp3204
Rp3205
sg11
I1267
sg12
g7
(S'\x07\xda\x08\x08\t7-\x00\x00\x00'
p3206
tp3207
Rp3208
sg16
S'MagDown'
p3209
ssI77233
(dp3210
g6
g7
(S'\x07\xda\x08\x08\t7.\x00\x00\x00'
p3211
tp3212
Rp3213
sg11
I1267
sg12
g7
(S'\x07\xda\x08\x08\x0b8\x03\x00\x00\x00'
p3214
tp3215
Rp3216
sg16
S'MagDown'
p3217
ssI77234
(dp3218
g6
g7
(S'\x07\xda\x08\x08\x0b8\x04\x00\x00\x00'
p3219
tp3220
Rp3221
sg11
I1267
sg12
g7
(S'\x07\xda\x08\x08\x0c\x0e9\x00\x00\x00'
p3222
tp3223
Rp3224
sg16
S'MagDown'
p3225
ssI77236
(dp3226
g6
g7
(S'\x07\xda\x08\x08\x0c\x10\n\x00\x00\x00'
p3227
tp3228
Rp3229
sg11
I1267
sg12
g7
(S'\x07\xda\x08\x08\x0c51\x00\x00\x00'
p3230
tp3231
Rp3232
sg16
S'MagDown'
p3233
ssI77237
(dp3234
g6
g7
(S'\x07\xda\x08\x08\x0c52\x00\x00\x00'
p3235
tp3236
Rp3237
sg11
I1267
sg12
g7
(S'\x07\xda\x08\x08\x0e\x18\x15\x00\x00\x00'
p3238
tp3239
Rp3240
sg16
S'MagDown'
p3241
ssI77238
(dp3242
g6
g7
(S'\x07\xda\x08\x08\x0e\x18\x15\x00\x00\x00'
p3243
tp3244
Rp3245
sg11
I1267
sg12
g7
(S'\x07\xda\x08\x08\x10\x18#\x00\x00\x00'
p3246
tp3247
Rp3248
sg16
S'MagDown'
p3249
ssI77239
(dp3250
g6
g7
(S'\x07\xda\x08\x08\x10\x18#\x00\x00\x00'
p3251
tp3252
Rp3253
sg11
I1267
sg12
g7
(S'\x07\xda\x08\x08\x12\x06\x12\x00\x00\x00'
p3254
tp3255
Rp3256
sg16
S'MagDown'
p3257
ssI77240
(dp3258
g6
g7
(S'\x07\xda\x08\x08\x12\x06\x12\x00\x00\x00'
p3259
tp3260
Rp3261
sg11
I1267
sg12
g7
(S'\x07\xda\x08\x08\x13\x1d\x07\x00\x00\x00'
p3262
tp3263
Rp3264
sg16
S'MagDown'
p3265
ssI78068
(dp3266
g6
g7
(S'\x07\xda\x08\x19\x00\x13#\x00\x00\x00'
p3267
tp3268
Rp3269
sg11
I1301
sg12
g7
(S'\x07\xda\x08\x19\x01\x139\x00\x00\x00'
p3270
tp3271
Rp3272
sg16
S'MagUp'
p3273
ssI77263
(dp3274
g6
g7
(S'\x07\xda\x08\t\x01$4\x00\x00\x00'
p3275
tp3276
Rp3277
sg11
I1268
sg12
g7
(S'\x07\xda\x08\t\x02\x0c\x17\x00\x00\x00'
p3278
tp3279
Rp3280
sg16
S'MagDown'
p3281
ssI77264
(dp3282
g6
g7
(S'\x07\xda\x08\t\x02\x0c\x17\x00\x00\x00'
p3283
tp3284
Rp3285
sg11
I1268
sg12
g7
(S'\x07\xda\x08\t\x02\x11 \x00\x00\x00'
p3286
tp3287
Rp3288
sg16
S'MagDown'
p3289
ssI77265
(dp3290
g6
g7
(S'\x07\xda\x08\t\x02\x11!\x00\x00\x00'
p3291
tp3292
Rp3293
sg11
I1268
sg12
g7
(S'\x07\xda\x08\t\x03\x06(\x00\x00\x00'
p3294
tp3295
Rp3296
sg16
S'MagDown'
p3297
ssI77266
(dp3298
g6
g7
(S'\x07\xda\x08\t\x03\x06)\x00\x00\x00'
p3299
tp3300
Rp3301
sg11
I1268
sg12
g7
(S'\x07\xda\x08\t\x04\x0c\r\x00\x00\x00'
p3302
tp3303
Rp3304
sg16
S'MagDown'
p3305
ssI78270
(dp3306
g6
g7
(S'\x07\xda\x08\x1c\x17\x1f\x1a\x00\x00\x00'
p3307
tp3308
Rp3309
sg11
I1308
sg12
g7
(S'\x07\xda\x08\x1d\x00\x1f&\x00\x00\x00'
p3310
tp3311
Rp3312
sg16
S'MagUp'
p3313
ssI78075
(dp3314
g6
g7
(S'\x07\xda\x08\x19\x05\x1c\x14\x00\x00\x00'
p3315
tp3316
Rp3317
sg11
I1301
sg12
g7
(S'\x07\xda\x08\x19\x06\x1c \x00\x00\x00'
p3318
tp3319
Rp3320
sg16
S'MagUp'
p3321
ssI71165
(dp3322
g6
g7
(S'\x07\xda\x05\x02\x0e0\x00\x00\x00\x00'
p3323
tp3324
Rp3325
sg11
I1068
sg12
g7
(S'\x07\xda\x05\x02\x0f3\x00\x00\x00\x00'
p3326
tp3327
Rp3328
sg16
S'MagDown'
p3329
ssI71166
(dp3330
g6
g7
(S'\x07\xda\x05\x02\x0f3\x00\x00\x00\x00'
p3331
tp3332
Rp3333
sg11
I1068
sg12
g7
(S'\x07\xda\x05\x02\x10\x13\x00\x00\x00\x00'
p3334
tp3335
Rp3336
sg16
S'MagDown'
p3337
ssI71167
(dp3338
g6
g7
(S'\x07\xda\x05\x02\x10\x13\x00\x00\x00\x00'
p3339
tp3340
Rp3341
sg11
I1068
sg12
g7
(S'\x07\xda\x05\x02\x11$\x00\x00\x00\x00'
p3342
tp3343
Rp3344
sg16
S'MagDown'
p3345
ssI71168
(dp3346
g6
g7
(S'\x07\xda\x05\x02\x11.\x00\x00\x00\x00'
p3347
tp3348
Rp3349
sg11
I1068
sg12
g7
(S'\x07\xda\x05\x02\x124\x00\x00\x00\x00'
p3350
tp3351
Rp3352
sg16
S'MagDown'
p3353
ssI71169
(dp3354
g6
g7
(S'\x07\xda\x05\x02\x124\x00\x00\x00\x00'
p3355
tp3356
Rp3357
sg11
I1068
sg12
g7
(S'\x07\xda\x05\x02\x13;\x00\x00\x00\x00'
p3358
tp3359
Rp3360
sg16
S'MagDown'
p3361
ssI71170
(dp3362
g6
g7
(S'\x07\xda\x05\x02\x13;\x00\x00\x00\x00'
p3363
tp3364
Rp3365
sg11
I1068
sg12
g7
(S'\x07\xda\x05\x02\x16\x0f\x00\x00\x00\x00'
p3366
tp3367
Rp3368
sg16
S'MagDown'
p3369
ssI71183
(dp3370
g6
g7
(S'\x07\xda\x05\x03\x02\t\x00\x00\x00\x00'
p3371
tp3372
Rp3373
sg11
I1069
sg12
g7
(S'\x07\xda\x05\x03\x02\x19\x00\x00\x00\x00'
p3374
tp3375
Rp3376
sg16
S'MagUp'
p3377
ssI71185
(dp3378
g6
g7
(S'\x07\xda\x05\x03\x02\x1a\x00\x00\x00\x00'
p3379
tp3380
Rp3381
sg11
I1069
sg12
g7
(S'\x07\xda\x05\x03\x04\x07\x00\x00\x00\x00'
p3382
tp3383
Rp3384
sg16
S'MagUp'
p3385
ssI71186
(dp3386
g6
g7
(S'\x07\xda\x05\x03\x04\r\x00\x00\x00\x00'
p3387
tp3388
Rp3389
sg11
I1069
sg12
g7
(S'\x07\xda\x05\x03\x05\x17\x00\x00\x00\x00'
p3390
tp3391
Rp3392
sg16
S'MagUp'
p3393
ssI71187
(dp3394
g6
g7
(S'\x07\xda\x05\x03\x05\x17\x00\x00\x00\x00'
p3395
tp3396
Rp3397
sg11
I1069
sg12
g7
(S'\x07\xda\x05\x03\x06\x1f\x00\x00\x00\x00'
p3398
tp3399
Rp3400
sg16
S'MagUp'
p3401
ssI71188
(dp3402
g6
g7
(S'\x07\xda\x05\x03\x06\x1f\x00\x00\x00\x00'
p3403
tp3404
Rp3405
sg11
I1069
sg12
g7
(S'\x07\xda\x05\x03\x076\x00\x00\x00\x00'
p3406
tp3407
Rp3408
sg16
S'MagUp'
p3409
ssI71189
(dp3410
g6
g7
(S'\x07\xda\x05\x03\x076\x00\x00\x00\x00'
p3411
tp3412
Rp3413
sg11
I1069
sg12
g7
(S'\x07\xda\x05\x03\t\x08\x00\x00\x00\x00'
p3414
tp3415
Rp3416
sg16
S'MagUp'
p3417
ssI77864
(dp3418
g6
g7
(S'\x07\xda\x08\x13\x17+#\x00\x00\x00'
p3419
tp3420
Rp3421
sg11
I1295
sg12
g7
(S'\x07\xda\x08\x14\x01+7\x00\x00\x00'
p3422
tp3423
Rp3424
sg16
S'MagUp'
p3425
ssI75335
(dp3426
g6
g7
(S'\x07\xda\x07\x0c\x03\x0b\x15\x00\x00\x00'
p3427
tp3428
Rp3429
sg11
I1222
sg12
g7
(S'\x07\xda\x07\x0c\x04\x0f%\x00\x00\x00'
p3430
tp3431
Rp3432
sg16
S'MagDown'
p3433
ssI75336
(dp3434
g6
g7
(S'\x07\xda\x07\x0c\x04\x0f&\x00\x00\x00'
p3435
tp3436
Rp3437
sg11
I1222
sg12
g7
(S'\x07\xda\x07\x0c\x04\x14\x05\x00\x00\x00'
p3438
tp3439
Rp3440
sg16
S'MagDown'
p3441
ssI75337
(dp3442
g6
g7
(S'\x07\xda\x07\x0c\x04\x14\x06\x00\x00\x00'
p3443
tp3444
Rp3445
sg11
I1222
sg12
g7
(S'\x07\xda\x07\x0c\x05\x11\x07\x00\x00\x00'
p3446
tp3447
Rp3448
sg16
S'MagDown'
p3449
ssI75338
(dp3450
g6
g7
(S'\x07\xda\x07\x0c\x05\x11\x07\x00\x00\x00'
p3451
tp3452
Rp3453
sg11
I1222
sg12
g7
(S'\x07\xda\x07\x0c\x06\r5\x00\x00\x00'
p3454
tp3455
Rp3456
sg16
S'MagDown'
p3457
ssI75339
(dp3458
g6
g7
(S'\x07\xda\x07\x0c\x06\r6\x00\x00\x00'
p3459
tp3460
Rp3461
sg11
I1222
sg12
g7
(S'\x07\xda\x07\x0c\x08\x0e\x10\x00\x00\x00'
p3462
tp3463
Rp3464
sg16
S'MagDown'
p3465
ssI75340
(dp3466
g6
g7
(S'\x07\xda\x07\x0c\x08\x0e\x11\x00\x00\x00'
p3467
tp3468
Rp3469
sg11
I1222
sg12
g7
(S'\x07\xda\x07\x0c\x08\x1b\x14\x00\x00\x00'
p3470
tp3471
Rp3472
sg16
S'MagDown'
p3473
ssI75341
(dp3474
g6
g7
(S'\x07\xda\x07\x0c\x08\x1b\x15\x00\x00\x00'
p3475
tp3476
Rp3477
sg11
I1222
sg12
g7
(S'\x07\xda\x07\x0c\n\x055\x00\x00\x00'
p3478
tp3479
Rp3480
sg16
S'MagDown'
p3481
ssI75344
(dp3482
g6
g7
(S'\x07\xda\x07\x0c\n&\x0b\x00\x00\x00'
p3483
tp3484
Rp3485
sg11
I1222
sg12
g7
(S'\x07\xda\x07\x0c\x0b\x10\x15\x00\x00\x00'
p3486
tp3487
Rp3488
sg16
S'MagDown'
p3489
ssI75345
(dp3490
g6
g7
(S'\x07\xda\x07\x0c\x0b\x10\x16\x00\x00\x00'
p3491
tp3492
Rp3493
sg11
I1222
sg12
g7
(S'\x07\xda\x07\x0c\x0b\x11\x1b\x00\x00\x00'
p3494
tp3495
Rp3496
sg16
S'MagDown'
p3497
ssI75346
(dp3498
g6
g7
(S'\x07\xda\x07\x0c\x0b\x11#\x00\x00\x00'
p3499
tp3500
Rp3501
sg11
I1222
sg12
g7
(S'\x07\xda\x07\x0c\x0b\x16\x1a\x00\x00\x00'
p3502
tp3503
Rp3504
sg16
S'MagDown'
p3505
ssI75347
(dp3506
g6
g7
(S'\x07\xda\x07\x0c\x0b\x16\x1b\x00\x00\x00'
p3507
tp3508
Rp3509
sg11
I1222
sg12
g7
(S'\x07\xda\x07\x0c\x0b\x19\x14\x00\x00\x00'
p3510
tp3511
Rp3512
sg16
S'MagDown'
p3513
ssI75348
(dp3514
g6
g7
(S'\x07\xda\x07\x0c\x0b\x19\x15\x00\x00\x00'
p3515
tp3516
Rp3517
sg11
I1222
sg12
g7
(S'\x07\xda\x07\x0c\x0b\x1c)\x00\x00\x00'
p3518
tp3519
Rp3520
sg16
S'MagDown'
p3521
ssI75349
(dp3522
g6
g7
(S'\x07\xda\x07\x0c\x0b\x1c*\x00\x00\x00'
p3523
tp3524
Rp3525
sg11
I1222
sg12
g7
(S'\x07\xda\x07\x0c\x0b*\x16\x00\x00\x00'
p3526
tp3527
Rp3528
sg16
S'MagDown'
p3529
ssI75350
(dp3530
g6
g7
(S'\x07\xda\x07\x0c\x0b*\x17\x00\x00\x00'
p3531
tp3532
Rp3533
sg11
I1222
sg12
g7
(S'\x07\xda\x07\x0c\x0b;#\x00\x00\x00'
p3534
tp3535
Rp3536
sg16
S'MagDown'
p3537
ssI75409
(dp3538
g6
g7
(S'\x07\xda\x07\r\x05\x121\x00\x00\x00'
p3539
tp3540
Rp3541
sg11
I1224
sg12
g7
(S'\x07\xda\x07\r\x06\x03\r\x00\x00\x00'
p3542
tp3543
Rp3544
sg16
S'MagUp'
p3545
ssI75410
(dp3546
g6
g7
(S'\x07\xda\x07\r\x06\x03\x0e\x00\x00\x00'
p3547
tp3548
Rp3549
sg11
I1224
sg12
g7
(S'\x07\xda\x07\r\x062\x08\x00\x00\x00'
p3550
tp3551
Rp3552
sg16
S'MagUp'
p3553
ssI75411
(dp3554
g6
g7
(S'\x07\xda\x07\r\x062\t\x00\x00\x00'
p3555
tp3556
Rp3557
sg11
I1224
sg12
g7
(S'\x07\xda\x07\r\x082!\x00\x00\x00'
p3558
tp3559
Rp3560
sg16
S'MagUp'
p3561
ssI75412
(dp3562
g6
g7
(S'\x07\xda\x07\r\x082"\x00\x00\x00'
p3563
tp3564
Rp3565
sg11
I1224
sg12
g7
(S'\x07\xda\x07\r\t%\x14\x00\x00\x00'
p3566
tp3567
Rp3568
sg16
S'MagUp'
p3569
ssI75414
(dp3570
g6
g7
(S'\x07\xda\x07\r\t0.\x00\x00\x00'
p3571
tp3572
Rp3573
sg11
I1224
sg12
g7
(S'\x07\xda\x07\r\n4\x16\x00\x00\x00'
p3574
tp3575
Rp3576
sg16
S'MagUp'
p3577
ssI75415
(dp3578
g6
g7
(S'\x07\xda\x07\r\n:\x02\x00\x00\x00'
p3579
tp3580
Rp3581
sg11
I1224
sg12
g7
(S'\x07\xda\x07\r\x0b!,\x00\x00\x00'
p3582
tp3583
Rp3584
sg16
S'MagUp'
p3585
ssI75416
(dp3586
g6
g7
(S'\x07\xda\x07\r\x0b)\x04\x00\x00\x00'
p3587
tp3588
Rp3589
sg11
I1224
sg12
g7
(S'\x07\xda\x07\r\x0c*\x14\x00\x00\x00'
p3590
tp3591
Rp3592
sg16
S'MagUp'
p3593
ssI75417
(dp3594
g6
g7
(S'\x07\xda\x07\r\x0c*\x14\x00\x00\x00'
p3595
tp3596
Rp3597
sg11
I1224
sg12
g7
(S'\x07\xda\x07\r\x0e*4\x00\x00\x00'
p3598
tp3599
Rp3600
sg16
S'MagUp'
p3601
ssI75418
(dp3602
g6
g7
(S'\x07\xda\x07\r\x0e*5\x00\x00\x00'
p3603
tp3604
Rp3605
sg11
I1224
sg12
g7
(S'\x07\xda\x07\r\x0e6#\x00\x00\x00'
p3606
tp3607
Rp3608
sg16
S'MagUp'
p3609
ssI78272
(dp3610
g6
g7
(S'\x07\xda\x08\x1d\x01 \x00\x00\x00\x00'
p3611
tp3612
Rp3613
sg11
I1308
sg12
g7
(S'\x07\xda\x08\x1d\x02 \x14\x00\x00\x00'
p3614
tp3615
Rp3616
sg16
S'MagUp'
p3617
ssI75443
(dp3618
g6
g7
(S'\x07\xda\x07\x0e\x02\x1b\x04\x00\x00\x00'
p3619
tp3620
Rp3621
sg11
I1225
sg12
g7
(S'\x07\xda\x07\x0e\x02%5\x00\x00\x00'
p3622
tp3623
Rp3624
sg16
S'MagUp'
p3625
ssI75444
(dp3626
g6
g7
(S'\x07\xda\x07\x0e\x02%5\x00\x00\x00'
p3627
tp3628
Rp3629
sg11
I1225
sg12
g7
(S'\x07\xda\x07\x0e\x04&\x0e\x00\x00\x00'
p3630
tp3631
Rp3632
sg16
S'MagUp'
p3633
ssI75445
(dp3634
g6
g7
(S'\x07\xda\x07\x0e\x04&\x0f\x00\x00\x00'
p3635
tp3636
Rp3637
sg11
I1225
sg12
g7
(S'\x07\xda\x07\x0e\x06&,\x00\x00\x00'
p3638
tp3639
Rp3640
sg16
S'MagUp'
p3641
ssI75446
(dp3642
g6
g7
(S'\x07\xda\x07\x0e\x06&-\x00\x00\x00'
p3643
tp3644
Rp3645
sg11
I1225
sg12
g7
(S"\x07\xda\x07\x0e\x08'\x15\x00\x00\x00"
p3646
tp3647
Rp3648
sg16
S'MagUp'
p3649
ssI75447
(dp3650
g6
g7
(S"\x07\xda\x07\x0e\x08'\x16\x00\x00\x00"
p3651
tp3652
Rp3653
sg11
I1225
sg12
g7
(S'\x07\xda\x07\x0e\t\x17\x19\x00\x00\x00'
p3654
tp3655
Rp3656
sg16
S'MagUp'
p3657
ssI75448
(dp3658
g6
g7
(S'\x07\xda\x07\x0e\t\x17\x19\x00\x00\x00'
p3659
tp3660
Rp3661
sg11
I1225
sg12
g7
(S'\x07\xda\x07\x0e\t\x19\x16\x00\x00\x00'
p3662
tp3663
Rp3664
sg16
S'MagUp'
p3665
ssI75449
(dp3666
g6
g7
(S'\x07\xda\x07\x0e\t\x19\x17\x00\x00\x00'
p3667
tp3668
Rp3669
sg11
I1225
sg12
g7
(S'\x07\xda\x07\x0e\x0b\x193\x00\x00\x00'
p3670
tp3671
Rp3672
sg16
S'MagUp'
p3673
ssI75450
(dp3674
g6
g7
(S'\x07\xda\x07\x0e\x0b\x193\x00\x00\x00'
p3675
tp3676
Rp3677
sg11
I1225
sg12
g7
(S'\x07\xda\x07\x0e\r\x1a\x0c\x00\x00\x00'
p3678
tp3679
Rp3680
sg16
S'MagUp'
p3681
ssI75451
(dp3682
g6
g7
(S'\x07\xda\x07\x0e\r\x1a\r\x00\x00\x00'
p3683
tp3684
Rp3685
sg11
I1225
sg12
g7
(S'\x07\xda\x07\x0e\x0e "\x00\x00\x00'
p3686
tp3687
Rp3688
sg16
S'MagUp'
p3689
ssI75452
(dp3690
g6
g7
(S'\x07\xda\x07\x0e\x0e "\x00\x00\x00'
p3691
tp3692
Rp3693
sg11
I1225
sg12
g7
(S'\x07\xda\x07\x0e\x10 8\x00\x00\x00'
p3694
tp3695
Rp3696
sg16
S'MagUp'
p3697
ssI75453
(dp3698
g6
g7
(S'\x07\xda\x07\x0e\x10 9\x00\x00\x00'
p3699
tp3700
Rp3701
sg11
I1225
sg12
g7
(S'\x07\xda\x07\x0e\x11\x04(\x00\x00\x00'
p3702
tp3703
Rp3704
sg16
S'MagUp'
p3705
ssI75454
(dp3706
g6
g7
(S'\x07\xda\x07\x0e\x11\x04)\x00\x00\x00'
p3707
tp3708
Rp3709
sg11
I1225
sg12
g7
(S'\x07\xda\x07\x0e\x11\x16+\x00\x00\x00'
p3710
tp3711
Rp3712
sg16
S'MagUp'
p3713
ssI75484
(dp3714
g6
g7
(S'\x07\xda\x07\x0f\x04\x1b*\x00\x00\x00'
p3715
tp3716
Rp3717
sg11
I1226
sg12
g7
(S'\x07\xda\x07\x0f\x04\x1b7\x00\x00\x00'
p3718
tp3719
Rp3720
sg16
S'MagUp'
p3721
ssI75485
(dp3722
g6
g7
(S'\x07\xda\x07\x0f\x04\x1b7\x00\x00\x00'
p3723
tp3724
Rp3725
sg11
I1226
sg12
g7
(S'\x07\xda\x07\x0f\x05\x08\x1d\x00\x00\x00'
p3726
tp3727
Rp3728
sg16
S'MagUp'
p3729
ssI77535
(dp3730
g6
g7
(S'\x07\xda\x08\r\x17\x0e4\x00\x00\x00'
p3731
tp3732
Rp3733
sg11
I1283
sg12
g7
(S'\x07\xda\x08\x0e\x01\x0f\t\x00\x00\x00'
p3734
tp3735
Rp3736
sg16
S'MagDown'
p3737
ssI77536
(dp3738
g6
g7
(S'\x07\xda\x08\x0e\x01\x0f\t\x00\x00\x00'
p3739
tp3740
Rp3741
sg11
I1283
sg12
g7
(S'\x07\xda\x08\x0e\x020\x06\x00\x00\x00'
p3742
tp3743
Rp3744
sg16
S'MagDown'
p3745
ssI77537
(dp3746
g6
g7
(S'\x07\xda\x08\x0e\x020\x07\x00\x00\x00'
p3747
tp3748
Rp3749
sg11
I1283
sg12
g7
(S'\x07\xda\x08\x0e\x028&\x00\x00\x00'
p3750
tp3751
Rp3752
sg16
S'MagDown'
p3753
ssI77538
(dp3754
g6
g7
(S'\x07\xda\x08\x0e\x028&\x00\x00\x00'
p3755
tp3756
Rp3757
sg11
I1283
sg12
g7
(S'\x07\xda\x08\x0e\x03\x129\x00\x00\x00'
p3758
tp3759
Rp3760
sg16
S'MagDown'
p3761
ssI77539
(dp3762
g6
g7
(S'\x07\xda\x08\x0e\x03\x12:\x00\x00\x00'
p3763
tp3764
Rp3765
sg11
I1283
sg12
g7
(S'\x07\xda\x08\x0e\x03 *\x00\x00\x00'
p3766
tp3767
Rp3768
sg16
S'MagDown'
p3769
ssI77540
(dp3770
g6
g7
(S'\x07\xda\x08\x0e\x03 +\x00\x00\x00'
p3771
tp3772
Rp3773
sg11
I1283
sg12
g7
(S'\x07\xda\x08\x0e\x04\r9\x00\x00\x00'
p3774
tp3775
Rp3776
sg16
S'MagDown'
p3777
ssI77541
(dp3778
g6
g7
(S'\x07\xda\x08\x0e\x04\r9\x00\x00\x00'
p3779
tp3780
Rp3781
sg11
I1283
sg12
g7
(S'\x07\xda\x08\x0e\x04\x0f.\x00\x00\x00'
p3782
tp3783
Rp3784
sg16
S'MagDown'
p3785
ssI77542
(dp3786
g6
g7
(S'\x07\xda\x08\x0e\x04\x0f/\x00\x00\x00'
p3787
tp3788
Rp3789
sg11
I1283
sg12
g7
(S'\x07\xda\x08\x0e\x04\x154\x00\x00\x00'
p3790
tp3791
Rp3792
sg16
S'MagDown'
p3793
ssI77543
(dp3794
g6
g7
(S'\x07\xda\x08\x0e\x04\x155\x00\x00\x00'
p3795
tp3796
Rp3797
sg11
I1283
sg12
g7
(S'\x07\xda\x08\x0e\x04\x19\x01\x00\x00\x00'
p3798
tp3799
Rp3800
sg16
S'MagDown'
p3801
ssI77544
(dp3802
g6
g7
(S'\x07\xda\x08\x0e\x04\x19\x02\x00\x00\x00'
p3803
tp3804
Rp3805
sg11
I1283
sg12
g7
(S'\x07\xda\x08\x0e\x04\x1e#\x00\x00\x00'
p3806
tp3807
Rp3808
sg16
S'MagDown'
p3809
ssI77545
(dp3810
g6
g7
(S'\x07\xda\x08\x0e\x04\x1e$\x00\x00\x00'
p3811
tp3812
Rp3813
sg11
I1283
sg12
g7
(S'\x07\xda\x08\x0e\x04&\x1f\x00\x00\x00'
p3814
tp3815
Rp3816
sg16
S'MagDown'
p3817
ssI75498
(dp3818
g6
g7
(S'\x07\xda\x07\x0f\x07\x0e9\x00\x00\x00'
p3819
tp3820
Rp3821
sg11
I1226
sg12
g7
(S'\x07\xda\x07\x0f\x08\x01\x0f\x00\x00\x00'
p3822
tp3823
Rp3824
sg16
S'MagUp'
p3825
ssI69355
(dp3826
g6
g7
(S'\x07\xda\x04\x01\x014\x00\x00\x00\x00'
p3827
tp3828
Rp3829
sg11
I1013
sg12
g7
(S'\x07\xda\x04\x01\x05\x08\x00\x00\x00\x00'
p3830
tp3831
Rp3832
sg16
S'MagDown'
p3833
ssI77548
(dp3834
g6
g7
(S'\x07\xda\x08\x0e\x04;!\x00\x00\x00'
p3835
tp3836
Rp3837
sg11
I1283
sg12
g7
(S'\x07\xda\x08\x0e\x05\x0c\x02\x00\x00\x00'
p3838
tp3839
Rp3840
sg16
S'MagDown'
p3841
ssI77549
(dp3842
g6
g7
(S'\x07\xda\x08\x0e\x05\x0c\x02\x00\x00\x00'
p3843
tp3844
Rp3845
sg11
I1283
sg12
g7
(S'\x07\xda\x08\x0e\x05-1\x00\x00\x00'
p3846
tp3847
Rp3848
sg16
S'MagDown'
p3849
ssI77550
(dp3850
g6
g7
(S'\x07\xda\x08\x0e\x05-2\x00\x00\x00'
p3851
tp3852
Rp3853
sg11
I1283
sg12
g7
(S'\x07\xda\x08\x0e\x07\x1c8\x00\x00\x00'
p3854
tp3855
Rp3856
sg16
S'MagDown'
p3857
ssI77004
(dp3858
g6
g7
(S'\x07\xda\x08\x02\x0b/\x04\x00\x00\x00'
p3859
tp3860
Rp3861
sg11
I1257
sg12
g7
(S'\x07\xda\x08\x02\x0c%(\x00\x00\x00'
p3862
tp3863
Rp3864
sg16
S'MagDown'
p3865
ssI77560
(dp3866
g6
g7
(S'\x07\xda\x08\x0e\n9(\x00\x00\x00'
p3867
tp3868
Rp3869
sg11
I1283
sg12
g7
(S'\x07\xda\x08\x0e\x0c\x058\x00\x00\x00'
p3870
tp3871
Rp3872
sg16
S'MagDown'
p3873
ssI75513
(dp3874
g6
g7
(S'\x07\xda\x07\x0f\x08#\x0e\x00\x00\x00'
p3875
tp3876
Rp3877
sg11
I1226
sg12
g7
(S'\x07\xda\x07\x0f\n#(\x00\x00\x00'
p3878
tp3879
Rp3880
sg16
S'MagUp'
p3881
ssI75514
(dp3882
g6
g7
(S'\x07\xda\x07\x0f\n#)\x00\x00\x00'
p3883
tp3884
Rp3885
sg11
I1226
sg12
g7
(S'\x07\xda\x07\x0f\x0b\t\x1c\x00\x00\x00'
p3886
tp3887
Rp3888
sg16
S'MagUp'
p3889
ssI75515
(dp3890
g6
g7
(S'\x07\xda\x07\x0f\x0b\t\x1d\x00\x00\x00'
p3891
tp3892
Rp3893
sg11
I1226
sg12
g7
(S'\x07\xda\x07\x0f\x0b\x1e\t\x00\x00\x00'
p3894
tp3895
Rp3896
sg16
S'MagUp'
p3897
ssI75516
(dp3898
g6
g7
(S'\x07\xda\x07\x0f\x0b\x1e\n\x00\x00\x00'
p3899
tp3900
Rp3901
sg11
I1226
sg12
g7
(S'\x07\xda\x07\x0f\r\x07-\x00\x00\x00'
p3902
tp3903
Rp3904
sg16
S'MagUp'
p3905
ssI77567
(dp3906
g6
g7
(S'\x07\xda\x08\x0e\x0f35\x00\x00\x00'
p3907
tp3908
Rp3909
sg11
I1284
sg12
g7
(S'\x07\xda\x08\x0e\x114\r\x00\x00\x00'
p3910
tp3911
Rp3912
sg16
S'MagDown'
p3913
ssI77568
(dp3914
g6
g7
(S'\x07\xda\x08\x0e\x114\r\x00\x00\x00'
p3915
tp3916
Rp3917
sg11
I1284
sg12
g7
(S'\x07\xda\x08\x0e\x13\x15 \x00\x00\x00'
p3918
tp3919
Rp3920
sg16
S'MagDown'
p3921
ssI77587
(dp3922
g6
g7
(S'\x07\xda\x08\x0f\x00.\x16\x00\x00\x00'
p3923
tp3924
Rp3925
sg11
I1285
sg12
g7
(S'\x07\xda\x08\x0f\x01)1\x00\x00\x00'
p3926
tp3927
Rp3928
sg16
S'MagDown'
p3929
ssI77588
(dp3930
g6
g7
(S'\x07\xda\x08\x0f\x01)2\x00\x00\x00'
p3931
tp3932
Rp3933
sg11
I1285
sg12
g7
(S'\x07\xda\x08\x0f\x02\x04!\x00\x00\x00'
p3934
tp3935
Rp3936
sg16
S'MagDown'
p3937
ssI77589
(dp3938
g6
g7
(S'\x07\xda\x08\x0f\x02\x04"\x00\x00\x00'
p3939
tp3940
Rp3941
sg11
I1285
sg12
g7
(S'\x07\xda\x08\x0f\x03\x0c\x10\x00\x00\x00'
p3942
tp3943
Rp3944
sg16
S'MagDown'
p3945
ssI77590
(dp3946
g6
g7
(S'\x07\xda\x08\x0f\x03\x0c\x11\x00\x00\x00'
p3947
tp3948
Rp3949
sg11
I1285
sg12
g7
(S'\x07\xda\x08\x0f\x05\x01\x10\x00\x00\x00'
p3950
tp3951
Rp3952
sg16
S'MagDown'
p3953
ssI77591
(dp3954
g6
g7
(S'\x07\xda\x08\x0f\x05\x01\x11\x00\x00\x00'
p3955
tp3956
Rp3957
sg11
I1285
sg12
g7
(S'\x07\xda\x08\x0f\x061$\x00\x00\x00'
p3958
tp3959
Rp3960
sg16
S'MagDown'
p3961
ssI77592
(dp3962
g6
g7
(S'\x07\xda\x08\x0f\x061%\x00\x00\x00'
p3963
tp3964
Rp3965
sg11
I1285
sg12
g7
(S'\x07\xda\x08\x0f\x0810\x00\x00\x00'
p3966
tp3967
Rp3968
sg16
S'MagDown'
p3969
ssI77593
(dp3970
g6
g7
(S'\x07\xda\x08\x0f\x0811\x00\x00\x00'
p3971
tp3972
Rp3973
sg11
I1285
sg12
g7
(S'\x07\xda\x08\x0f\n+\x01\x00\x00\x00'
p3974
tp3975
Rp3976
sg16
S'MagDown'
p3977
ssI77594
(dp3978
g6
g7
(S'\x07\xda\x08\x0f\n+\x01\x00\x00\x00'
p3979
tp3980
Rp3981
sg11
I1285
sg12
g7
(S'\x07\xda\x08\x0f\x0b:\x06\x00\x00\x00'
p3982
tp3983
Rp3984
sg16
S'MagDown'
p3985
ssI77595
(dp3986
g6
g7
(S'\x07\xda\x08\x0f\x0b:\x07\x00\x00\x00'
p3987
tp3988
Rp3989
sg11
I1285
sg12
g7
(S'\x07\xda\x08\x0f\x0c;\x11\x00\x00\x00'
p3990
tp3991
Rp3992
sg16
S'MagDown'
p3993
ssI72326
(dp3994
g6
g7
(S'\x07\xda\x05\x19\x04\x0b\x00\x00\x00\x00'
p3995
tp3996
Rp3997
sg11
I1122
sg12
g7
(S'\x07\xda\x05\x19\x05\t\x00\x00\x00\x00'
p3998
tp3999
Rp4000
sg16
S'MagDown'
p4001
ssI72327
(dp4002
g6
g7
(S'\x07\xda\x05\x19\x05\t\x00\x00\x00\x00'
p4003
tp4004
Rp4005
sg11
I1122
sg12
g7
(S'\x07\xda\x05\x19\x05\x1d\x00\x00\x00\x00'
p4006
tp4007
Rp4008
sg16
S'MagDown'
p4009
ssI74376
(dp4010
g6
g7
(S"\x07\xda\x06\x1b\x00\x19'\x00\x00\x00"
p4011
tp4012
Rp4013
sg11
I1182
sg12
g7
(S'\x07\xda\x06\x1b\x02\x1a\x0c\x00\x00\x00'
p4014
tp4015
Rp4016
sg16
S'MagDown'
p4017
ssI77618
(dp4018
g6
g7
(S'\x07\xda\x08\x0f\x17\t\r\x00\x00\x00'
p4019
tp4020
Rp4021
sg11
I1287
sg12
g7
(S'\x07\xda\x08\x10\x00\x1d:\x00\x00\x00'
p4022
tp4023
Rp4024
sg16
S'MagDown'
p4025
ssI77619
(dp4026
g6
g7
(S'\x07\xda\x08\x10\x00\x1d:\x00\x00\x00'
p4027
tp4028
Rp4029
sg11
I1287
sg12
g7
(S'\x07\xda\x08\x10\x02\x1e\x12\x00\x00\x00'
p4030
tp4031
Rp4032
sg16
S'MagDown'
p4033
ssI77620
(dp4034
g6
g7
(S'\x07\xda\x08\x10\x02\x1e\x12\x00\x00\x00'
p4035
tp4036
Rp4037
sg11
I1287
sg12
g7
(S'\x07\xda\x08\x10\x04\x1e"\x00\x00\x00'
p4038
tp4039
Rp4040
sg16
S'MagDown'
p4041
ssI77621
(dp4042
g6
g7
(S'\x07\xda\x08\x10\x04\x1e"\x00\x00\x00'
p4043
tp4044
Rp4045
sg11
I1287
sg12
g7
(S'\x07\xda\x08\x10\x05(#\x00\x00\x00'
p4046
tp4047
Rp4048
sg16
S'MagDown'
p4049
ssI77622
(dp4050
g6
g7
(S'\x07\xda\x08\x10\x05(#\x00\x00\x00'
p4051
tp4052
Rp4053
sg11
I1287
sg12
g7
(S'\x07\xda\x08\x10\x07(7\x00\x00\x00'
p4054
tp4055
Rp4056
sg16
S'MagDown'
p4057
ssI71479
(dp4058
g6
g7
(S'\x07\xda\x05\t\x04\t\x00\x00\x00\x00'
p4059
tp4060
Rp4061
sg11
I1089
sg12
g7
(S'\x07\xda\x05\t\x04\n\x00\x00\x00\x00'
p4062
tp4063
Rp4064
sg16
S'MagUp'
p4065
ssI71481
(dp4066
g6
g7
(S'\x07\xda\x05\t\x04\x1e\x00\x00\x00\x00'
p4067
tp4068
Rp4069
sg11
I1089
sg12
g7
(S'\x07\xda\x05\t\x04!\x00\x00\x00\x00'
p4070
tp4071
Rp4072
sg16
S'MagUp'
p4073
ssI71485
(dp4074
g6
g7
(S'\x07\xda\x05\t\x04*\x00\x00\x00\x00'
p4075
tp4076
Rp4077
sg11
I1089
sg12
g7
(S'\x07\xda\x05\t\x05\x0c\x00\x00\x00\x00'
p4078
tp4079
Rp4080
sg16
S'MagUp'
p4081
ssI71486
(dp4082
g6
g7
(S'\x07\xda\x05\t\x051\x00\x00\x00\x00'
p4083
tp4084
Rp4085
sg11
I1089
sg12
g7
(S'\x07\xda\x05\t\x07\x10\x00\x00\x00\x00'
p4086
tp4087
Rp4088
sg16
S'MagUp'
p4089
ssI71487
(dp4090
g6
g7
(S'\x07\xda\x05\t\x07.\x00\x00\x00\x00'
p4091
tp4092
Rp4093
sg11
I1089
sg12
g7
(S'\x07\xda\x05\t\t.\x00\x00\x00\x00'
p4094
tp4095
Rp4096
sg16
S'MagUp'
p4097
ssI71488
(dp4098
g6
g7
(S'\x07\xda\x05\t\t.\x00\x00\x00\x00'
p4099
tp4100
Rp4101
sg11
I1089
sg12
g7
(S'\x07\xda\x05\t\n!\x00\x00\x00\x00'
p4102
tp4103
Rp4104
sg16
S'MagUp'
p4105
ssI71489
(dp4106
g6
g7
(S'\x07\xda\x05\t\n!\x00\x00\x00\x00'
p4107
tp4108
Rp4109
sg11
I1089
sg12
g7
(S'\x07\xda\x05\t\x0b1\x00\x00\x00\x00'
p4110
tp4111
Rp4112
sg16
S'MagUp'
p4113
ssI71490
(dp4114
g6
g7
(S'\x07\xda\x05\t\x0b1\x00\x00\x00\x00'
p4115
tp4116
Rp4117
sg11
I1089
sg12
g7
(S'\x07\xda\x05\t\x0b5\x00\x00\x00\x00'
p4118
tp4119
Rp4120
sg16
S'MagUp'
p4121
ssI74379
(dp4122
g6
g7
(S'\x07\xda\x06\x1b\x054\x1c\x00\x00\x00'
p4123
tp4124
Rp4125
sg11
I1182
sg12
g7
(S'\x07\xda\x06\x1b\x07\x15\x15\x00\x00\x00'
p4126
tp4127
Rp4128
sg16
S'MagDown'
p4129
ssI71492
(dp4130
g6
g7
(S'\x07\xda\x05\t\r5\x00\x00\x00\x00'
p4131
tp4132
Rp4133
sg11
I1089
sg12
g7
(S'\x07\xda\x05\t\x0f5\x00\x00\x00\x00'
p4134
tp4135
Rp4136
sg16
S'MagUp'
p4137
ssI71493
(dp4138
g6
g7
(S'\x07\xda\x05\t\x0f5\x00\x00\x00\x00'
p4139
tp4140
Rp4141
sg11
I1089
sg12
g7
(S'\x07\xda\x05\t\x116\x00\x00\x00\x00'
p4142
tp4143
Rp4144
sg16
S'MagUp'
p4145
ssI71494
(dp4146
g6
g7
(S'\x07\xda\x05\t\x116\x00\x00\x00\x00'
p4147
tp4148
Rp4149
sg11
I1089
sg12
g7
(S'\x07\xda\x05\t\x12\x10\x00\x00\x00\x00'
p4150
tp4151
Rp4152
sg16
S'MagUp'
p4153
ssI71525
(dp4154
g6
g7
(S'\x07\xda\x05\n\x04+\x00\x00\x00\x00'
p4155
tp4156
Rp4157
sg11
I1090
sg12
g7
(S'\x07\xda\x05\n\x06+\x00\x00\x00\x00'
p4158
tp4159
Rp4160
sg16
S'MagUp'
p4161
ssI71526
(dp4162
g6
g7
(S'\x07\xda\x05\n\x06+\x00\x00\x00\x00'
p4163
tp4164
Rp4165
sg11
I1090
sg12
g7
(S'\x07\xda\x05\n\x08+\x00\x00\x00\x00'
p4166
tp4167
Rp4168
sg16
S'MagUp'
p4169
ssI71527
(dp4170
g6
g7
(S'\x07\xda\x05\n\x08+\x00\x00\x00\x00'
p4171
tp4172
Rp4173
sg11
I1090
sg12
g7
(S'\x07\xda\x05\n\n/\x00\x00\x00\x00'
p4174
tp4175
Rp4176
sg16
S'MagUp'
p4177
ssI71530
(dp4178
g6
g7
(S'\x07\xda\x05\n\n/\x00\x00\x00\x00'
p4179
tp4180
Rp4181
sg11
I1090
sg12
g7
(S'\x07\xda\x05\n\n;\x00\x00\x00\x00'
p4182
tp4183
Rp4184
sg16
S'MagUp'
p4185
ssI75639
(dp4186
g6
g7
(S'\x07\xda\x07\x11\x002"\x00\x00\x00'
p4187
tp4188
Rp4189
sg11
I1229
sg12
g7
(S'\x07\xda\x07\x11\x01\x03\x15\x00\x00\x00'
p4190
tp4191
Rp4192
sg16
S'MagUp'
p4193
ssI75640
(dp4194
g6
g7
(S'\x07\xda\x07\x11\x01\x03\x15\x00\x00\x00'
p4195
tp4196
Rp4197
sg11
I1229
sg12
g7
(S'\x07\xda\x07\x11\x02\x103\x00\x00\x00'
p4198
tp4199
Rp4200
sg16
S'MagUp'
p4201
ssI75642
(dp4202
g6
g7
(S'\x07\xda\x07\x11\x02!\x03\x00\x00\x00'
p4203
tp4204
Rp4205
sg11
I1229
sg12
g7
(S'\x07\xda\x07\x11\x03\x17\x14\x00\x00\x00'
p4206
tp4207
Rp4208
sg16
S'MagUp'
p4209
ssI75644
(dp4210
g6
g7
(S'\x07\xda\x07\x11\x03\x18:\x00\x00\x00'
p4211
tp4212
Rp4213
sg11
I1229
sg12
g7
(S'\x07\xda\x07\x11\x03\x1f\x1e\x00\x00\x00'
p4214
tp4215
Rp4216
sg16
S'MagUp'
p4217
ssI75645
(dp4218
g6
g7
(S'\x07\xda\x07\x11\x03\x1f\x1e\x00\x00\x00'
p4219
tp4220
Rp4221
sg11
I1229
sg12
g7
(S'\x07\xda\x07\x11\x04%1\x00\x00\x00'
p4222
tp4223
Rp4224
sg16
S'MagUp'
p4225
ssI75646
(dp4226
g6
g7
(S'\x07\xda\x07\x11\x04%2\x00\x00\x00'
p4227
tp4228
Rp4229
sg11
I1229
sg12
g7
(S'\x07\xda\x07\x11\x04-4\x00\x00\x00'
p4230
tp4231
Rp4232
sg16
S'MagUp'
p4233
ssI78145
(dp4234
g6
g7
(S'\x07\xda\x08\x1a\x04\x1f7\x00\x00\x00'
p4235
tp4236
Rp4237
sg11
I1303
sg12
g7
(S'\x07\xda\x08\x1a\x04"/\x00\x00\x00'
p4238
tp4239
Rp4240
sg16
S'MagUp'
p4241
ssI75686
(dp4242
g6
g7
(S'\x07\xda\x07\x11\x13\x1e,\x00\x00\x00'
p4243
tp4244
Rp4245
sg11
I1232
sg12
g7
(S"\x07\xda\x07\x11\x138'\x00\x00\x00"
p4246
tp4247
Rp4248
sg16
S'MagUp'
p4249
ssI75687
(dp4250
g6
g7
(S'\x07\xda\x07\x11\x138(\x00\x00\x00'
p4251
tp4252
Rp4253
sg11
I1232
sg12
g7
(S'\x07\xda\x07\x11\x15\x1a-\x00\x00\x00'
p4254
tp4255
Rp4256
sg16
S'MagUp'
p4257
ssI75691
(dp4258
g6
g7
(S'\x07\xda\x07\x11\x16#8\x00\x00\x00'
p4259
tp4260
Rp4261
sg11
I1232
sg12
g7
(S'\x07\xda\x07\x12\x00$\x18\x00\x00\x00'
p4262
tp4263
Rp4264
sg16
S'MagUp'
p4265
ssI75692
(dp4266
g6
g7
(S'\x07\xda\x07\x12\x00$\x18\x00\x00\x00'
p4267
tp4268
Rp4269
sg11
I1232
sg12
g7
(S'\x07\xda\x07\x12\x009-\x00\x00\x00'
p4270
tp4271
Rp4272
sg16
S'MagUp'
p4273
ssI75694
(dp4274
g6
g7
(S'\x07\xda\x07\x12\x00;-\x00\x00\x00'
p4275
tp4276
Rp4277
sg11
I1232
sg12
g7
(S'\x07\xda\x07\x12\x01\x11\n\x00\x00\x00'
p4278
tp4279
Rp4280
sg16
S'MagUp'
p4281
ssI78013
(dp4282
g6
g7
(S'\x07\xda\x08\x18\x01;\x0e\x00\x00\x00'
p4283
tp4284
Rp4285
sg11
I1299
sg12
g7
(S"\x07\xda\x08\x18\x02;'\x00\x00\x00"
p4286
tp4287
Rp4288
sg16
S'MagUp'
p4289
ssI75710
(dp4290
g6
g7
(S'\x07\xda\x07\x12\x0b\x066\x00\x00\x00'
p4291
tp4292
Rp4293
sg11
I1233
sg12
g7
(S'\x07\xda\x07\x12\x0b\x1b,\x00\x00\x00'
p4294
tp4295
Rp4296
sg16
S'MagUp'
p4297
ssI75711
(dp4298
g6
g7
(S'\x07\xda\x07\x12\x0b\x1b-\x00\x00\x00'
p4299
tp4300
Rp4301
sg11
I1233
sg12
g7
(S'\x07\xda\x07\x12\x0b#7\x00\x00\x00'
p4302
tp4303
Rp4304
sg16
S'MagUp'
p4305
ssI75712
(dp4306
g6
g7
(S'\x07\xda\x07\x12\x0b#8\x00\x00\x00'
p4307
tp4308
Rp4309
sg11
I1233
sg12
g7
(S"\x07\xda\x07\x12\x0b6'\x00\x00\x00"
p4310
tp4311
Rp4312
sg16
S'MagUp'
p4313
ssI75713
(dp4314
g6
g7
(S'\x07\xda\x07\x12\x0b6(\x00\x00\x00'
p4315
tp4316
Rp4317
sg11
I1233
sg12
g7
(S'\x07\xda\x07\x12\r7\x00\x00\x00\x00'
p4318
tp4319
Rp4320
sg16
S'MagUp'
p4321
ssI75714
(dp4322
g6
g7
(S'\x07\xda\x07\x12\r7\x00\x00\x00\x00'
p4323
tp4324
Rp4325
sg11
I1233
sg12
g7
(S'\x07\xda\x07\x12\x0e\x1e0\x00\x00\x00'
p4326
tp4327
Rp4328
sg16
S'MagUp'
p4329
ssI75715
(dp4330
g6
g7
(S'\x07\xda\x07\x12\x0e\x1e0\x00\x00\x00'
p4331
tp4332
Rp4333
sg11
I1233
sg12
g7
(S'\x07\xda\x07\x12\x10\x1f\x0c\x00\x00\x00'
p4334
tp4335
Rp4336
sg16
S'MagUp'
p4337
ssI75716
(dp4338
g6
g7
(S'\x07\xda\x07\x12\x10\x1f\r\x00\x00\x00'
p4339
tp4340
Rp4341
sg11
I1233
sg12
g7
(S'\x07\xda\x07\x12\x10*1\x00\x00\x00'
p4342
tp4343
Rp4344
sg16
S'MagUp'
p4345
ssI75717
(dp4346
g6
g7
(S'\x07\xda\x07\x12\x10*2\x00\x00\x00'
p4347
tp4348
Rp4349
sg11
I1233
sg12
g7
(S'\x07\xda\x07\x12\x11\x02\x06\x00\x00\x00'
p4350
tp4351
Rp4352
sg16
S'MagUp'
p4353
ssI75718
(dp4354
g6
g7
(S'\x07\xda\x07\x12\x11\x02\x06\x00\x00\x00'
p4355
tp4356
Rp4357
sg11
I1233
sg12
g7
(S'\x07\xda\x07\x12\x1272\x00\x00\x00'
p4358
tp4359
Rp4360
sg16
S'MagUp'
p4361
ssI75719
(dp4362
g6
g7
(S'\x07\xda\x07\x12\x1273\x00\x00\x00'
p4363
tp4364
Rp4365
sg11
I1233
sg12
g7
(S'\x07\xda\x07\x12\x13\x03\x0f\x00\x00\x00'
p4366
tp4367
Rp4368
sg16
S'MagUp'
p4369
ssI75720
(dp4370
g6
g7
(S'\x07\xda\x07\x12\x13\x03\x0f\x00\x00\x00'
p4371
tp4372
Rp4373
sg11
I1233
sg12
g7
(S'\x07\xda\x07\x12\x15\x03,\x00\x00\x00'
p4374
tp4375
Rp4376
sg16
S'MagUp'
p4377
ssI75721
(dp4378
g6
g7
(S'\x07\xda\x07\x12\x15\x03-\x00\x00\x00'
p4379
tp4380
Rp4381
sg11
I1233
sg12
g7
(S'\x07\xda\x07\x12\x166;\x00\x00\x00'
p4382
tp4383
Rp4384
sg16
S'MagUp'
p4385
ssI75722
(dp4386
g6
g7
(S'\x07\xda\x07\x12\x167\x00\x00\x00\x00'
p4387
tp4388
Rp4389
sg11
I1233
sg12
g7
(S'\x07\xda\x07\x13\x007\x16\x00\x00\x00'
p4390
tp4391
Rp4392
sg16
S'MagUp'
p4393
ssI75723
(dp4394
g6
g7
(S'\x07\xda\x07\x13\x007\x16\x00\x00\x00'
p4395
tp4396
Rp4397
sg11
I1233
sg12
g7
(S'\x07\xda\x07\x13\x027)\x00\x00\x00'
p4398
tp4399
Rp4400
sg16
S'MagUp'
p4401
ssI75724
(dp4402
g6
g7
(S'\x07\xda\x07\x13\x027)\x00\x00\x00'
p4403
tp4404
Rp4405
sg11
I1233
sg12
g7
(S'\x07\xda\x07\x13\x048\x03\x00\x00\x00'
p4406
tp4407
Rp4408
sg16
S'MagUp'
p4409
ssI75725
(dp4410
g6
g7
(S'\x07\xda\x07\x13\x048\x03\x00\x00\x00'
p4411
tp4412
Rp4413
sg11
I1233
sg12
g7
(S'\x07\xda\x07\x13\x05:)\x00\x00\x00'
p4414
tp4415
Rp4416
sg16
S'MagUp'
p4417
ssI77782
(dp4418
g6
g7
(S'\x07\xda\x08\x12\t\x15 \x00\x00\x00'
p4419
tp4420
Rp4421
sg11
I1293
sg12
g7
(S'\x07\xda\x08\x12\n!\r\x00\x00\x00'
p4422
tp4423
Rp4424
sg16
S'MagUp'
p4425
ssI77784
(dp4426
g6
g7
(S'\x07\xda\x08\x12\n"\x10\x00\x00\x00'
p4427
tp4428
Rp4429
sg11
I1293
sg12
g7
(S'\x07\xda\x08\x12\n$\x16\x00\x00\x00'
p4430
tp4431
Rp4432
sg16
S'MagUp'
p4433
ssI77785
(dp4434
g6
g7
(S'\x07\xda\x08\x12\n$\x17\x00\x00\x00'
p4435
tp4436
Rp4437
sg11
I1293
sg12
g7
(S'\x07\xda\x08\x12\x0b\x00&\x00\x00\x00'
p4438
tp4439
Rp4440
sg16
S'MagUp'
p4441
ssI77786
(dp4442
g6
g7
(S"\x07\xda\x08\x12\x0b\x00'\x00\x00\x00"
p4443
tp4444
Rp4445
sg11
I1293
sg12
g7
(S'\x07\xda\x08\x12\r\x007\x00\x00\x00'
p4446
tp4447
Rp4448
sg16
S'MagUp'
p4449
ssI77787
(dp4450
g6
g7
(S'\x07\xda\x08\x12\r\x007\x00\x00\x00'
p4451
tp4452
Rp4453
sg11
I1293
sg12
g7
(S'\x07\xda\x08\x12\r(\x1d\x00\x00\x00'
p4454
tp4455
Rp4456
sg16
S'MagUp'
p4457
ssI77788
(dp4458
g6
g7
(S'\x07\xda\x08\x12\r(\x1d\x00\x00\x00'
p4459
tp4460
Rp4461
sg11
I1293
sg12
g7
(S'\x07\xda\x08\x12\x0f(.\x00\x00\x00'
p4462
tp4463
Rp4464
sg16
S'MagUp'
p4465
ssI77794
(dp4466
g6
g7
(S'\x07\xda\x08\x12\x0f(/\x00\x00\x00'
p4467
tp4468
Rp4469
sg11
I1293
sg12
g7
(S'\x07\xda\x08\x12\x11)\x03\x00\x00\x00'
p4470
tp4471
Rp4472
sg16
S'MagUp'
p4473
ssI77795
(dp4474
g6
g7
(S'\x07\xda\x08\x12\x11)\x04\x00\x00\x00'
p4475
tp4476
Rp4477
sg11
I1293
sg12
g7
(S'\x07\xda\x08\x12\x12,\x1d\x00\x00\x00'
p4478
tp4479
Rp4480
sg16
S'MagUp'
p4481
ssI77796
(dp4482
g6
g7
(S'\x07\xda\x08\x12\x12,\x1e\x00\x00\x00'
p4483
tp4484
Rp4485
sg11
I1293
sg12
g7
(S'\x07\xda\x08\x12\x1370\x00\x00\x00'
p4486
tp4487
Rp4488
sg16
S'MagUp'
p4489
ssI77797
(dp4490
g6
g7
(S'\x07\xda\x08\x12\x1371\x00\x00\x00'
p4491
tp4492
Rp4493
sg11
I1293
sg12
g7
(S'\x07\xda\x08\x12\x15\x11)\x00\x00\x00'
p4494
tp4495
Rp4496
sg16
S'MagUp'
p4497
ssI69354
(dp4498
g6
g7
(S'\x07\xda\x04\x01\x01\x0f\x00\x00\x00\x00'
p4499
tp4500
Rp4501
sg11
I1013
sg12
g7
(S'\x07\xda\x04\x01\x014\x00\x00\x00\x00'
p4502
tp4503
Rp4504
sg16
S'MagDown'
p4505
ssI69614
(dp4506
g6
g7
(S'\x07\xda\x04\x04\x16.\x00\x00\x00\x00'
p4507
tp4508
Rp4509
sg11
I1022
sg12
g7
(S'\x07\xda\x04\x04\x167\x00\x00\x00\x00'
p4510
tp4511
Rp4512
sg16
S'MagUp'
p4513
ssI69615
(dp4514
g6
g7
(S'\x07\xda\x04\x04\x17\x07\x00\x00\x00\x00'
p4515
tp4516
Rp4517
sg11
I1022
sg12
g7
(S'\x07\xda\x04\x05\x01\x16\x00\x00\x00\x00'
p4518
tp4519
Rp4520
sg16
S'MagUp'
p4521
ssI69620
(dp4522
g6
g7
(S'\x07\xda\x04\x05\x01)\x00\x00\x00\x00'
p4523
tp4524
Rp4525
sg11
I1022
sg12
g7
(S'\x07\xda\x04\x05\x01,\x00\x00\x00\x00'
p4526
tp4527
Rp4528
sg16
S'MagUp'
p4529
ssI69623
(dp4530
g6
g7
(S'\x07\xda\x04\x05\x019\x00\x00\x00\x00'
p4531
tp4532
Rp4533
sg11
I1022
sg12
g7
(S'\x07\xda\x04\x05\x02\x03\x00\x00\x00\x00'
p4534
tp4535
Rp4536
sg16
S'MagUp'
p4537
ssI69624
(dp4538
g6
g7
(S'\x07\xda\x04\x05\x02\n\x00\x00\x00\x00'
p4539
tp4540
Rp4541
sg11
I1022
sg12
g7
(S'\x07\xda\x04\x05\x07:\x00\x00\x00\x00'
p4542
tp4543
Rp4544
sg16
S'MagUp'
p4545
ssI69625
(dp4546
g6
g7
(S'\x07\xda\x04\x05\x07:\x00\x00\x00\x00'
p4547
tp4548
Rp4549
sg11
I1022
sg12
g7
(S'\x07\xda\x04\x05\t7\x00\x00\x00\x00'
p4550
tp4551
Rp4552
sg16
S'MagUp'
p4553
ssI69626
(dp4554
g6
g7
(S'\x07\xda\x04\x05\t7\x00\x00\x00\x00'
p4555
tp4556
Rp4557
sg11
I1022
sg12
g7
(S'\x07\xda\x04\x05\n\x14\x00\x00\x00\x00'
p4558
tp4559
Rp4560
sg16
S'MagUp'
p4561
ssI69627
(dp4562
g6
g7
(S'\x07\xda\x04\x05\n\x14\x00\x00\x00\x00'
p4563
tp4564
Rp4565
sg11
I1022
sg12
g7
(S'\x07\xda\x04\x05\r!\x00\x00\x00\x00'
p4566
tp4567
Rp4568
sg16
S'MagUp'
p4569
sssS'FillData'
p4570
(dp4571
I1026
(dp4572
S'Files'
p4573
(lp4574
S'/usera/jonesc/gangadir/workspace/jonesc/LocalXML/8962/output/RefInVerify-V2_BR-v37r7_Run-69666.root'
p4575
aS'/usera/jonesc/gangadir/workspace/jonesc/LocalXML/8963/output/RefInVerify-V2_BR-v37r7_Run-69667.root'
p4576
aS'/usera/jonesc/gangadir/workspace/jonesc/LocalXML/8964/output/RefInVerify-V2_BR-v37r7_Run-69669.root'
p4577
aS'/usera/jonesc/gangadir/workspace/jonesc/LocalXML/8965/output/RefInVerify-V2_BR-v37r7_Run-69672.root'
p4578
asg6
g45
sg12
g72
sg16
g49
sS'DataTakingDescription'
p4579
S'Beam3500GeV-VeloClosed-MagDown'
p4580
ssI1283
(dp4581
g4573
(lp4582
S'/usera/jonesc/gangadir/workspace/jonesc/LocalXML/9361/output/RefInVerify-V2_BR-v37r7_Run-77535.root'
p4583
aS'/usera/jonesc/gangadir/workspace/jonesc/LocalXML/9362/output/RefInVerify-V2_BR-v37r7_Run-77536.root'
p4584
aS'/usera/jonesc/gangadir/workspace/jonesc/LocalXML/9363/output/RefInVerify-V2_BR-v37r7_Run-77537.root'
p4585
aS'/usera/jonesc/gangadir/workspace/jonesc/LocalXML/9364/output/RefInVerify-V2_BR-v37r7_Run-77538.root'
p4586
aS'/usera/jonesc/gangadir/workspace/jonesc/LocalXML/9365/output/RefInVerify-V2_BR-v37r7_Run-77539.root'
p4587
aS'/usera/jonesc/gangadir/workspace/jonesc/LocalXML/9366/output/RefInVerify-V2_BR-v37r7_Run-77540.root'
p4588
aS'/usera/jonesc/gangadir/workspace/jonesc/LocalXML/9367/output/RefInVerify-V2_BR-v37r7_Run-77541.root'
p4589
aS'/usera/jonesc/gangadir/workspace/jonesc/LocalXML/9368/output/RefInVerify-V2_BR-v37r7_Run-77542.root'
p4590
aS'/usera/jonesc/gangadir/workspace/jonesc/LocalXML/9369/output/RefInVerify-V2_BR-v37r7_Run-77543.root'
p4591
aS'/usera/jonesc/gangadir/workspace/jonesc/LocalXML/9370/output/RefInVerify-V2_BR-v37r7_Run-77544.root'
p4592
aS'/usera/jonesc/gangadir/workspace/jonesc/LocalXML/9371/output/RefInVerify-V2_BR-v37r7_Run-77545.root'
p4593
aS'/usera/jonesc/gangadir/workspace/jonesc/LocalXML/9372/output/RefInVerify-V2_BR-v37r7_Run-77546.root'
p4594
aS'/usera/jonesc/gangadir/workspace/jonesc/LocalXML/9373/output/RefInVerify-V2_BR-v37r7_Run-77547.root'
p4595
aS'/usera/jonesc/gangadir/workspace/jonesc/LocalXML/9374/output/RefInVerify-V2_BR-v37r7_Run-77548.root'
p4596
aS'/usera/jonesc/gangadir/workspace/jonesc/LocalXML/9375/output/RefInVerify-V2_BR-v37r7_Run-77549.root'
p4597
aS'/usera/jonesc/gangadir/workspace/jonesc/LocalXML/9376/output/RefInVerify-V2_BR-v37r7_Run-77550.root'
p4598
aS'/usera/jonesc/gangadir/workspace/jonesc/LocalXML/9377/output/RefInVerify-V2_BR-v37r7_Run-77560.root'
p4599
asg6
g3733
sg12
g3872
sg16
g3737
sg4579
S'Beam3500GeV-VeloClosed-MagDown'
p4600
ssI1284
(dp4601
g4573
(lp4602
S'/usera/jonesc/gangadir/workspace/jonesc/LocalXML/9378/output/RefInVerify-V2_BR-v37r7_Run-77567.root'
p4603
aS'/usera/jonesc/gangadir/workspace/jonesc/LocalXML/9379/output/RefInVerify-V2_BR-v37r7_Run-77568.root'
p4604
asg6
g3909
sg12
g3920
sg16
g3913
sg4579
S'Beam3500GeV-VeloClosed-MagDown'
p4605
ssI1285
(dp4606
g4573
(lp4607
S'/usera/jonesc/gangadir/workspace/jonesc/LocalXML/9380/output/RefInVerify-V2_BR-v37r7_Run-77587.root'
p4608
aS'/usera/jonesc/gangadir/workspace/jonesc/LocalXML/9381/output/RefInVerify-V2_BR-v37r7_Run-77588.root'
p4609
aS'/usera/jonesc/gangadir/workspace/jonesc/LocalXML/9382/output/RefInVerify-V2_BR-v37r7_Run-77589.root'
p4610
aS'/usera/jonesc/gangadir/workspace/jonesc/LocalXML/9383/output/RefInVerify-V2_BR-v37r7_Run-77590.root'
p4611
aS'/usera/jonesc/gangadir/workspace/jonesc/LocalXML/9384/output/RefInVerify-V2_BR-v37r7_Run-77591.root'
p4612
aS'/usera/jonesc/gangadir/workspace/jonesc/LocalXML/9385/output/RefInVerify-V2_BR-v37r7_Run-77592.root'
p4613
aS'/usera/jonesc/gangadir/workspace/jonesc/LocalXML/9386/output/RefInVerify-V2_BR-v37r7_Run-77593.root'
p4614
aS'/usera/jonesc/gangadir/workspace/jonesc/LocalXML/9387/output/RefInVerify-V2_BR-v37r7_Run-77594.root'
p4615
aS'/usera/jonesc/gangadir/workspace/jonesc/LocalXML/9388/output/RefInVerify-V2_BR-v37r7_Run-77595.root'
p4616
asg6
g3925
sg12
g3992
sg16
g3929
sg4579
S'Beam3500GeV-VeloClosed-MagDown'
p4617
ssI1031
(dp4618
g4573
(lp4619
S'/usera/jonesc/gangadir/workspace/jonesc/LocalXML/8966/output/RefInVerify-V2_BR-v37r7_Run-69856.root'
p4620
aS'/usera/jonesc/gangadir/workspace/jonesc/LocalXML/8967/output/RefInVerify-V2_BR-v37r7_Run-69857.root'
p4621
aS'/usera/jonesc/gangadir/workspace/jonesc/LocalXML/8968/output/RefInVerify-V2_BR-v37r7_Run-69858.root'
p4622
aS'/usera/jonesc/gangadir/workspace/jonesc/LocalXML/8969/output/RefInVerify-V2_BR-v37r7_Run-69860.root'
p4623
aS'/usera/jonesc/gangadir/workspace/jonesc/LocalXML/8970/output/RefInVerify-V2_BR-v37r7_Run-69862.root'
p4624
aS'/usera/jonesc/gangadir/workspace/jonesc/LocalXML/8971/output/RefInVerify-V2_BR-v37r7_Run-69866.root'
p4625
asg6
g597
sg12
g680
sg16
g601
sg4579
S'Beam3500GeV-VeloClosed-MagDown'
p4626
ssI1104
(dp4627
g4573
(lp4628
S'/usera/jonesc/gangadir/workspace/jonesc/LocalXML/9073/output/RefInVerify-V2_BR-v37r7_Run-71857.root'
p4629
aS'/usera/jonesc/gangadir/workspace/jonesc/LocalXML/9074/output/RefInVerify-V2_BR-v37r7_Run-71859.root'
p4630
aS'/usera/jonesc/gangadir/workspace/jonesc/LocalXML/9075/output/RefInVerify-V2_BR-v37r7_Run-71860.root'
p4631
aS'/usera/jonesc/gangadir/workspace/jonesc/LocalXML/9076/output/RefInVerify-V2_BR-v37r7_Run-71861.root'
p4632
aS'/usera/jonesc/gangadir/workspace/jonesc/LocalXML/9077/output/RefInVerify-V2_BR-v37r7_Run-71862.root'
p4633
aS'/usera/jonesc/gangadir/workspace/jonesc/LocalXML/9078/output/RefInVerify-V2_BR-v37r7_Run-71863.root'
p4634
aS'/usera/jonesc/gangadir/workspace/jonesc/LocalXML/9079/output/RefInVerify-V2_BR-v37r7_Run-71864.root'
p4635
aS'/usera/jonesc/gangadir/workspace/jonesc/LocalXML/9080/output/RefInVerify-V2_BR-v37r7_Run-71865.root'
p4636
aS'/usera/jonesc/gangadir/workspace/jonesc/LocalXML/9081/output/RefInVerify-V2_BR-v37r7_Run-71867.root'
p4637
aS'/usera/jonesc/gangadir/workspace/jonesc/LocalXML/9082/output/RefInVerify-V2_BR-v37r7_Run-71869.root'
p4638
aS'/usera/jonesc/gangadir/workspace/jonesc/LocalXML/9083/output/RefInVerify-V2_BR-v37r7_Run-71871.root'
p4639
aS'/usera/jonesc/gangadir/workspace/jonesc/LocalXML/9084/output/RefInVerify-V2_BR-v37r7_Run-71872.root'
p4640
aS'/usera/jonesc/gangadir/workspace/jonesc/LocalXML/9085/output/RefInVerify-V2_BR-v37r7_Run-71873.root'
p4641
aS'/usera/jonesc/gangadir/workspace/jonesc/LocalXML/9086/output/RefInVerify-V2_BR-v37r7_Run-71876.root'
p4642
aS'/usera/jonesc/gangadir/workspace/jonesc/LocalXML/9087/output/RefInVerify-V2_BR-v37r7_Run-71877.root'
p4643
aS'/usera/jonesc/gangadir/workspace/jonesc/LocalXML/9088/output/RefInVerify-V2_BR-v37r7_Run-71878.root'
p4644
aS'/usera/jonesc/gangadir/workspace/jonesc/LocalXML/9089/output/RefInVerify-V2_BR-v37r7_Run-71879.root'
p4645
aS'/usera/jonesc/gangadir/workspace/jonesc/LocalXML/9090/output/RefInVerify-V2_BR-v37r7_Run-71880.root'
p4646
aS'/usera/jonesc/gangadir/workspace/jonesc/LocalXML/9091/output/RefInVerify-V2_BR-v37r7_Run-71881.root'
p4647
aS'/usera/jonesc/gangadir/workspace/jonesc/LocalXML/9092/output/RefInVerify-V2_BR-v37r7_Run-71882.root'
p4648
aS'/usera/jonesc/gangadir/workspace/jonesc/LocalXML/9093/output/RefInVerify-V2_BR-v37r7_Run-71883.root'
p4649
aS'/usera/jonesc/gangadir/workspace/jonesc/LocalXML/9094/output/RefInVerify-V2_BR-v37r7_Run-71885.root'
p4650
aS'/usera/jonesc/gangadir/workspace/jonesc/LocalXML/9095/output/RefInVerify-V2_BR-v37r7_Run-71886.root'
p4651
aS'/usera/jonesc/gangadir/workspace/jonesc/LocalXML/9096/output/RefInVerify-V2_BR-v37r7_Run-71887.root'
p4652
asg6
g381
sg12
g592
sg16
g385
sg4579
S'Beam3500GeV-VeloClosed-MagUp'
p4653
ssI1033
(dp4654
g4573
(lp4655
S'/usera/jonesc/gangadir/workspace/jonesc/LocalXML/8972/output/RefInVerify-V2_BR-v37r7_Run-69921.root'
p4656
aS'/usera/jonesc/gangadir/workspace/jonesc/LocalXML/8973/output/RefInVerify-V2_BR-v37r7_Run-69922.root'
p4657
aS'/usera/jonesc/gangadir/workspace/jonesc/LocalXML/8974/output/RefInVerify-V2_BR-v37r7_Run-69923.root'
p4658
aS'/usera/jonesc/gangadir/workspace/jonesc/LocalXML/8975/output/RefInVerify-V2_BR-v37r7_Run-69924.root'
p4659
asg6
g837
sg12
g864
sg16
g841
sg4579
S'Beam3500GeV-VeloClosed-MagOff'
p4660
ssI1034
(dp4661
g4573
(lp4662
S'/usera/jonesc/gangadir/workspace/jonesc/LocalXML/8977/output/RefInVerify-V2_BR-v37r7_Run-69947.root'
p4663
aS'/usera/jonesc/gangadir/workspace/jonesc/LocalXML/8978/output/RefInVerify-V2_BR-v37r7_Run-69948.root'
p4664
asg6
g885
sg12
g896
sg16
g889
sg4579
S'Beam3500GeV-VeloClosed-MagOff'
p4665
ssI1035
(dp4666
g4573
(lp4667
S'/usera/jonesc/gangadir/workspace/jonesc/LocalXML/8979/output/RefInVerify-V2_BR-v37r7_Run-69984.root'
p4668
aS'/usera/jonesc/gangadir/workspace/jonesc/LocalXML/8980/output/RefInVerify-V2_BR-v37r7_Run-69985.root'
p4669
aS'/usera/jonesc/gangadir/workspace/jonesc/LocalXML/8981/output/RefInVerify-V2_BR-v37r7_Run-69986.root'
p4670
asg6
g1037
sg12
g1056
sg16
g1041
sg4579
S'Beam3500GeV-VeloClosed-MagDown'
p4671
ssI1293
(dp4672
g4573
(lp4673
S'/usera/jonesc/gangadir/workspace/jonesc/LocalXML/9395/output/RefInVerify-V2_BR-v37r7_Run-77782.root'
p4674
aS'/usera/jonesc/gangadir/workspace/jonesc/LocalXML/9396/output/RefInVerify-V2_BR-v37r7_Run-77784.root'
p4675
aS'/usera/jonesc/gangadir/workspace/jonesc/LocalXML/9397/output/RefInVerify-V2_BR-v37r7_Run-77785.root'
p4676
aS'/usera/jonesc/gangadir/workspace/jonesc/LocalXML/9398/output/RefInVerify-V2_BR-v37r7_Run-77786.root'
p4677
aS'/usera/jonesc/gangadir/workspace/jonesc/LocalXML/9399/output/RefInVerify-V2_BR-v37r7_Run-77787.root'
p4678
aS'/usera/jonesc/gangadir/workspace/jonesc/LocalXML/9400/output/RefInVerify-V2_BR-v37r7_Run-77788.root'
p4679
aS'/usera/jonesc/gangadir/workspace/jonesc/LocalXML/9401/output/RefInVerify-V2_BR-v37r7_Run-77794.root'
p4680
aS'/usera/jonesc/gangadir/workspace/jonesc/LocalXML/9402/output/RefInVerify-V2_BR-v37r7_Run-77795.root'
p4681
aS'/usera/jonesc/gangadir/workspace/jonesc/LocalXML/9403/output/RefInVerify-V2_BR-v37r7_Run-77796.root'
p4682
aS'/usera/jonesc/gangadir/workspace/jonesc/LocalXML/9404/output/RefInVerify-V2_BR-v37r7_Run-77797.root'
p4683
asg6
g4421
sg12
g4496
sg16
g4425
sg4579
S'Beam3500GeV-VeloClosed-MagUp'
p4684
ssI1038
(dp4685
g4573
(lp4686
S'/usera/jonesc/gangadir/workspace/jonesc/LocalXML/8982/output/RefInVerify-V2_BR-v37r7_Run-70075.root'
p4687
aS'/usera/jonesc/gangadir/workspace/jonesc/LocalXML/8983/output/RefInVerify-V2_BR-v37r7_Run-70076.root'
p4688
aS'/usera/jonesc/gangadir/workspace/jonesc/LocalXML/8984/output/RefInVerify-V2_BR-v37r7_Run-70078.root'
p4689
aS'/usera/jonesc/gangadir/workspace/jonesc/LocalXML/8985/output/RefInVerify-V2_BR-v37r7_Run-70079.root'
p4690
aS'/usera/jonesc/gangadir/workspace/jonesc/LocalXML/8986/output/RefInVerify-V2_BR-v37r7_Run-70080.root'
p4691
asg6
g1205
sg12
g1248
sg16
g1209
sg4579
S'Beam3500GeV-VeloClosed-MagDown'
p4692
ssI1069
(dp4693
g4573
(lp4694
S'/usera/jonesc/gangadir/workspace/jonesc/LocalXML/9034/output/RefInVerify-V2_BR-v37r7_Run-71183.root'
p4695
aS'/usera/jonesc/gangadir/workspace/jonesc/LocalXML/9035/output/RefInVerify-V2_BR-v37r7_Run-71185.root'
p4696
aS'/usera/jonesc/gangadir/workspace/jonesc/LocalXML/9036/output/RefInVerify-V2_BR-v37r7_Run-71186.root'
p4697
aS'/usera/jonesc/gangadir/workspace/jonesc/LocalXML/9037/output/RefInVerify-V2_BR-v37r7_Run-71187.root'
p4698
aS'/usera/jonesc/gangadir/workspace/jonesc/LocalXML/9038/output/RefInVerify-V2_BR-v37r7_Run-71188.root'
p4699
aS'/usera/jonesc/gangadir/workspace/jonesc/LocalXML/9039/output/RefInVerify-V2_BR-v37r7_Run-71189.root'
p4700
asg6
g3373
sg12
g3416
sg16
g3377
sg4579
S'Beam450GeV-VeloOpen-MagUp'
p4701
ssI1042
(dp4702
g4573
(lp4703
S'/usera/jonesc/gangadir/workspace/jonesc/LocalXML/8987/output/RefInVerify-V2_BR-v37r7_Run-70121.root'
p4704
aS'/usera/jonesc/gangadir/workspace/jonesc/LocalXML/8988/output/RefInVerify-V2_BR-v37r7_Run-70122.root'
p4705
asg6
g1365
sg12
g1376
sg16
g1369
sg4579
S'Beam3500GeV-VeloClosed-MagDown'
p4706
ssI1299
(dp4707
g4573
(lp4708
S'/usera/jonesc/gangadir/workspace/jonesc/LocalXML/9431/output/RefInVerify-V2_BR-v37r7_Run-78009.root'
p4709
aS'/usera/jonesc/gangadir/workspace/jonesc/LocalXML/9432/output/RefInVerify-V2_BR-v37r7_Run-78010.root'
p4710
aS'/usera/jonesc/gangadir/workspace/jonesc/LocalXML/9433/output/RefInVerify-V2_BR-v37r7_Run-78011.root'
p4711
aS'/usera/jonesc/gangadir/workspace/jonesc/LocalXML/9434/output/RefInVerify-V2_BR-v37r7_Run-78012.root'
p4712
aS'/usera/jonesc/gangadir/workspace/jonesc/LocalXML/9435/output/RefInVerify-V2_BR-v37r7_Run-78013.root'
p4713
aS'/usera/jonesc/gangadir/workspace/jonesc/LocalXML/9436/output/RefInVerify-V2_BR-v37r7_Run-78014.root'
p4714
asg6
g2525
sg12
g480
sg16
g2529
sg4579
S'Beam3500GeV-VeloClosed-MagUp'
p4715
ssI1044
(dp4716
g4573
(lp4717
S'/usera/jonesc/gangadir/workspace/jonesc/LocalXML/8989/output/RefInVerify-V2_BR-v37r7_Run-70192.root'
p4718
aS'/usera/jonesc/gangadir/workspace/jonesc/LocalXML/8990/output/RefInVerify-V2_BR-v37r7_Run-70193.root'
p4719
aS'/usera/jonesc/gangadir/workspace/jonesc/LocalXML/8991/output/RefInVerify-V2_BR-v37r7_Run-70195.root'
p4720
asg6
g1557
sg12
g1576
sg16
g1561
sg4579
S'Beam3500GeV-VeloClosed-MagDown'
p4721
ssI1045
(dp4722
g4573
(lp4723
S'/usera/jonesc/gangadir/workspace/jonesc/LocalXML/8992/output/RefInVerify-V2_BR-v37r7_Run-70273.root'
p4724
aS'/usera/jonesc/gangadir/workspace/jonesc/LocalXML/8993/output/RefInVerify-V2_BR-v37r7_Run-70274.root'
p4725
aS'/usera/jonesc/gangadir/workspace/jonesc/LocalXML/8994/output/RefInVerify-V2_BR-v37r7_Run-70276.root'
p4726
aS'/usera/jonesc/gangadir/workspace/jonesc/LocalXML/8995/output/RefInVerify-V2_BR-v37r7_Run-70278.root'
p4727
aS'/usera/jonesc/gangadir/workspace/jonesc/LocalXML/8996/output/RefInVerify-V2_BR-v37r7_Run-70280.root'
p4728
aS'/usera/jonesc/gangadir/workspace/jonesc/LocalXML/8997/output/RefInVerify-V2_BR-v37r7_Run-70288.root'
p4729
asg6
g1709
sg12
g1808
sg16
g1713
sg4579
S'Beam3500GeV-VeloClosed-MagDown'
p4730
ssI1047
(dp4731
g4573
(lp4732
S'/usera/jonesc/gangadir/workspace/jonesc/LocalXML/8998/output/RefInVerify-V2_BR-v37r7_Run-70331.root'
p4733
aS'/usera/jonesc/gangadir/workspace/jonesc/LocalXML/8999/output/RefInVerify-V2_BR-v37r7_Run-70347.root'
p4734
asg6
g1829
sg12
g1840
sg16
g1833
sg4579
S'Beam3500GeV-VeloClosed-MagDown'
p4735
ssI1049
(dp4736
g4573
(lp4737
S'/usera/jonesc/gangadir/workspace/jonesc/LocalXML/9000/output/RefInVerify-V2_BR-v37r7_Run-70366.root'
p4738
aS'/usera/jonesc/gangadir/workspace/jonesc/LocalXML/9001/output/RefInVerify-V2_BR-v37r7_Run-70367.root'
p4739
aS'/usera/jonesc/gangadir/workspace/jonesc/LocalXML/9002/output/RefInVerify-V2_BR-v37r7_Run-70368.root'
p4740
asg6
g1869
sg12
g1888
sg16
g1873
sg4579
S'Beam3500GeV-VeloClosed-MagDown'
p4741
ssI1179
(dp4742
g4573
(lp4743
S'/usera/jonesc/gangadir/workspace/jonesc/LocalXML/9133/output/RefInVerify-V2_BR-v37r7_Run-74286.root'
p4744
asg6
g1549
sg12
g1552
sg16
g1553
sg4579
S'Beam3500GeV-VeloClosed-MagDown'
p4745
ssI1305
(dp4746
g4573
(lp4747
S'/usera/jonesc/gangadir/workspace/jonesc/LocalXML/9477/output/RefInVerify-V2_BR-v37r7_Run-78186.root'
p4748
aS'/usera/jonesc/gangadir/workspace/jonesc/LocalXML/9478/output/RefInVerify-V2_BR-v37r7_Run-78187.root'
p4749
aS'/usera/jonesc/gangadir/workspace/jonesc/LocalXML/9479/output/RefInVerify-V2_BR-v37r7_Run-78189.root'
p4750
aS'/usera/jonesc/gangadir/workspace/jonesc/LocalXML/9480/output/RefInVerify-V2_BR-v37r7_Run-78190.root'
p4751
aS'/usera/jonesc/gangadir/workspace/jonesc/LocalXML/9481/output/RefInVerify-V2_BR-v37r7_Run-78191.root'
p4752
aS'/usera/jonesc/gangadir/workspace/jonesc/LocalXML/9482/output/RefInVerify-V2_BR-v37r7_Run-78192.root'
p4753
aS'/usera/jonesc/gangadir/workspace/jonesc/LocalXML/9483/output/RefInVerify-V2_BR-v37r7_Run-78193.root'
p4754
asg6
g1061
sg12
g1112
sg16
g1065
sg4579
S'Beam3500GeV-VeloClosed-MagUp'
p4755
ssI1309
(dp4756
g4573
(lp4757
S'/usera/jonesc/gangadir/workspace/jonesc/LocalXML/9500/output/RefInVerify-V2_BR-v37r7_Run-78315.root'
p4758
aS'/usera/jonesc/gangadir/workspace/jonesc/LocalXML/9501/output/RefInVerify-V2_BR-v37r7_Run-78316.root'
p4759
aS'/usera/jonesc/gangadir/workspace/jonesc/LocalXML/9502/output/RefInVerify-V2_BR-v37r7_Run-78318.root'
p4760
aS'/usera/jonesc/gangadir/workspace/jonesc/LocalXML/9503/output/RefInVerify-V2_BR-v37r7_Run-78319.root'
p4761
aS'/usera/jonesc/gangadir/workspace/jonesc/LocalXML/9504/output/RefInVerify-V2_BR-v37r7_Run-78320.root'
p4762
aS'/usera/jonesc/gangadir/workspace/jonesc/LocalXML/9505/output/RefInVerify-V2_BR-v37r7_Run-78321.root'
p4763
aS'/usera/jonesc/gangadir/workspace/jonesc/LocalXML/9506/output/RefInVerify-V2_BR-v37r7_Run-78322.root'
p4764
aS'/usera/jonesc/gangadir/workspace/jonesc/LocalXML/9507/output/RefInVerify-V2_BR-v37r7_Run-78323.root'
p4765
aS'/usera/jonesc/gangadir/workspace/jonesc/LocalXML/9508/output/RefInVerify-V2_BR-v37r7_Run-78324.root'
p4766
aS'/usera/jonesc/gangadir/workspace/jonesc/LocalXML/9509/output/RefInVerify-V2_BR-v37r7_Run-78325.root'
p4767
aS'/usera/jonesc/gangadir/workspace/jonesc/LocalXML/9510/output/RefInVerify-V2_BR-v37r7_Run-78327.root'
p4768
aS'/usera/jonesc/gangadir/workspace/jonesc/LocalXML/9511/output/RefInVerify-V2_BR-v37r7_Run-78328.root'
p4769
aS'/usera/jonesc/gangadir/workspace/jonesc/LocalXML/9512/output/RefInVerify-V2_BR-v37r7_Run-78329.root'
p4770
aS'/usera/jonesc/gangadir/workspace/jonesc/LocalXML/9513/output/RefInVerify-V2_BR-v37r7_Run-78330.root'
p4771
asg6
g1381
sg12
g1488
sg16
g1385
sg4579
S'Beam3500GeV-VeloClosed-MagDown'
p4772
ssI1182
(dp4773
g4573
(lp4774
S'/usera/jonesc/gangadir/workspace/jonesc/LocalXML/9134/output/RefInVerify-V2_BR-v37r7_Run-74364.root'
p4775
aS'/usera/jonesc/gangadir/workspace/jonesc/LocalXML/9135/output/RefInVerify-V2_BR-v37r7_Run-74367.root'
p4776
aS'/usera/jonesc/gangadir/workspace/jonesc/LocalXML/9136/output/RefInVerify-V2_BR-v37r7_Run-74368.root'
p4777
aS'/usera/jonesc/gangadir/workspace/jonesc/LocalXML/9137/output/RefInVerify-V2_BR-v37r7_Run-74375.root'
p4778
aS'/usera/jonesc/gangadir/workspace/jonesc/LocalXML/9138/output/RefInVerify-V2_BR-v37r7_Run-74376.root'
p4779
aS'/usera/jonesc/gangadir/workspace/jonesc/LocalXML/9139/output/RefInVerify-V2_BR-v37r7_Run-74377.root'
p4780
aS'/usera/jonesc/gangadir/workspace/jonesc/LocalXML/9140/output/RefInVerify-V2_BR-v37r7_Run-74378.root'
p4781
aS'/usera/jonesc/gangadir/workspace/jonesc/LocalXML/9141/output/RefInVerify-V2_BR-v37r7_Run-74379.root'
p4782
aS'/usera/jonesc/gangadir/workspace/jonesc/LocalXML/9142/output/RefInVerify-V2_BR-v37r7_Run-74380.root'
p4783
aS'/usera/jonesc/gangadir/workspace/jonesc/LocalXML/9143/output/RefInVerify-V2_BR-v37r7_Run-74381.root'
p4784
asg6
g1685
sg12
g1800
sg16
g1689
sg4579
S'Beam3500GeV-VeloClosed-MagDown'
p4785
ssI1185
(dp4786
g4573
(lp4787
S'/usera/jonesc/gangadir/workspace/jonesc/LocalXML/9144/output/RefInVerify-V2_BR-v37r7_Run-74465.root'
p4788
aS'/usera/jonesc/gangadir/workspace/jonesc/LocalXML/9145/output/RefInVerify-V2_BR-v37r7_Run-74466.root'
p4789
aS'/usera/jonesc/gangadir/workspace/jonesc/LocalXML/9146/output/RefInVerify-V2_BR-v37r7_Run-74467.root'
p4790
asg6
g1893
sg12
g1912
sg16
g1897
sg4579
S'Beam3500GeV-VeloClosed-MagDown'
p4791
ssI1058
(dp4792
g4573
(lp4793
S'/usera/jonesc/gangadir/workspace/jonesc/LocalXML/9003/output/RefInVerify-V2_BR-v37r7_Run-70666.root'
p4794
aS'/usera/jonesc/gangadir/workspace/jonesc/LocalXML/9004/output/RefInVerify-V2_BR-v37r7_Run-70667.root'
p4795
aS'/usera/jonesc/gangadir/workspace/jonesc/LocalXML/9005/output/RefInVerify-V2_BR-v37r7_Run-70679.root'
p4796
aS'/usera/jonesc/gangadir/workspace/jonesc/LocalXML/9006/output/RefInVerify-V2_BR-v37r7_Run-70680.root'
p4797
aS'/usera/jonesc/gangadir/workspace/jonesc/LocalXML/9007/output/RefInVerify-V2_BR-v37r7_Run-70681.root'
p4798
aS'/usera/jonesc/gangadir/workspace/jonesc/LocalXML/9008/output/RefInVerify-V2_BR-v37r7_Run-70682.root'
p4799
aS'/usera/jonesc/gangadir/workspace/jonesc/LocalXML/9009/output/RefInVerify-V2_BR-v37r7_Run-70683.root'
p4800
aS'/usera/jonesc/gangadir/workspace/jonesc/LocalXML/9010/output/RefInVerify-V2_BR-v37r7_Run-70684.root'
p4801
aS'/usera/jonesc/gangadir/workspace/jonesc/LocalXML/9011/output/RefInVerify-V2_BR-v37r7_Run-70685.root'
p4802
aS'/usera/jonesc/gangadir/workspace/jonesc/LocalXML/9012/output/RefInVerify-V2_BR-v37r7_Run-70686.root'
p4803
aS'/usera/jonesc/gangadir/workspace/jonesc/LocalXML/9013/output/RefInVerify-V2_BR-v37r7_Run-70687.root'
p4804
aS'/usera/jonesc/gangadir/workspace/jonesc/LocalXML/9014/output/RefInVerify-V2_BR-v37r7_Run-70688.root'
p4805
aS'/usera/jonesc/gangadir/workspace/jonesc/LocalXML/9015/output/RefInVerify-V2_BR-v37r7_Run-70689.root'
p4806
aS'/usera/jonesc/gangadir/workspace/jonesc/LocalXML/9016/output/RefInVerify-V2_BR-v37r7_Run-70690.root'
p4807
aS'/usera/jonesc/gangadir/workspace/jonesc/LocalXML/9017/output/RefInVerify-V2_BR-v37r7_Run-70691.root'
p4808
asg6
g2117
sg12
g2232
sg16
g2121
sg4579
S'Beam3500GeV-VeloClosed-MagDown'
p4809
ssI1059
(dp4810
g4573
(lp4811
S'/usera/jonesc/gangadir/workspace/jonesc/LocalXML/9018/output/RefInVerify-V2_BR-v37r7_Run-70721.root'
p4812
aS'/usera/jonesc/gangadir/workspace/jonesc/LocalXML/9019/output/RefInVerify-V2_BR-v37r7_Run-70722.root'
p4813
aS'/usera/jonesc/gangadir/workspace/jonesc/LocalXML/9020/output/RefInVerify-V2_BR-v37r7_Run-70723.root'
p4814
aS'/usera/jonesc/gangadir/workspace/jonesc/LocalXML/9021/output/RefInVerify-V2_BR-v37r7_Run-70724.root'
p4815
aS'/usera/jonesc/gangadir/workspace/jonesc/LocalXML/9022/output/RefInVerify-V2_BR-v37r7_Run-70725.root'
p4816
aS'/usera/jonesc/gangadir/workspace/jonesc/LocalXML/9023/output/RefInVerify-V2_BR-v37r7_Run-70730.root'
p4817
aS'/usera/jonesc/gangadir/workspace/jonesc/LocalXML/9024/output/RefInVerify-V2_BR-v37r7_Run-70731.root'
p4818
aS'/usera/jonesc/gangadir/workspace/jonesc/LocalXML/9025/output/RefInVerify-V2_BR-v37r7_Run-70732.root'
p4819
aS'/usera/jonesc/gangadir/workspace/jonesc/LocalXML/9026/output/RefInVerify-V2_BR-v37r7_Run-70733.root'
p4820
aS'/usera/jonesc/gangadir/workspace/jonesc/LocalXML/9027/output/RefInVerify-V2_BR-v37r7_Run-70734.root'
p4821
asg6
g1149
sg12
g2512
sg16
g1153
sg4579
S'Beam3500GeV-VeloClosed-MagDown'
p4822
ssI1188
(dp4823
g4573
(lp4824
S'/usera/jonesc/gangadir/workspace/jonesc/LocalXML/9147/output/RefInVerify-V2_BR-v37r7_Run-74621.root'
p4825
aS'/usera/jonesc/gangadir/workspace/jonesc/LocalXML/9148/output/RefInVerify-V2_BR-v37r7_Run-74624.root'
p4826
aS'/usera/jonesc/gangadir/workspace/jonesc/LocalXML/9149/output/RefInVerify-V2_BR-v37r7_Run-74631.root'
p4827
aS'/usera/jonesc/gangadir/workspace/jonesc/LocalXML/9150/output/RefInVerify-V2_BR-v37r7_Run-74632.root'
p4828
aS'/usera/jonesc/gangadir/workspace/jonesc/LocalXML/9151/output/RefInVerify-V2_BR-v37r7_Run-74637.root'
p4829
aS'/usera/jonesc/gangadir/workspace/jonesc/LocalXML/9152/output/RefInVerify-V2_BR-v37r7_Run-74638.root'
p4830
asg6
g1957
sg12
g2000
sg16
g1961
sg4579
S'Beam3500GeV-VeloClosed-MagDown'
p4831
ssI1122
(dp4832
g4573
(lp4833
S'/usera/jonesc/gangadir/workspace/jonesc/LocalXML/9122/output/RefInVerify-V2_BR-v37r7_Run-72325.root'
p4834
aS'/usera/jonesc/gangadir/workspace/jonesc/LocalXML/9123/output/RefInVerify-V2_BR-v37r7_Run-72326.root'
p4835
aS'/usera/jonesc/gangadir/workspace/jonesc/LocalXML/9124/output/RefInVerify-V2_BR-v37r7_Run-72327.root'
p4836
aS'/usera/jonesc/gangadir/workspace/jonesc/LocalXML/9125/output/RefInVerify-V2_BR-v37r7_Run-72328.root'
p4837
aS'/usera/jonesc/gangadir/workspace/jonesc/LocalXML/9126/output/RefInVerify-V2_BR-v37r7_Run-72329.root'
p4838
aS'/usera/jonesc/gangadir/workspace/jonesc/LocalXML/9127/output/RefInVerify-V2_BR-v37r7_Run-72330.root'
p4839
aS'/usera/jonesc/gangadir/workspace/jonesc/LocalXML/9128/output/RefInVerify-V2_BR-v37r7_Run-72331.root'
p4840
asg6
g1733
sg12
g1784
sg16
g1737
sg4579
S'Beam3500GeV-VeloClosed-MagDown'
p4841
ssI1190
(dp4842
g4573
(lp4843
S'/usera/jonesc/gangadir/workspace/jonesc/LocalXML/9153/output/RefInVerify-V2_BR-v37r7_Run-74695.root'
p4844
asg6
g2013
sg12
g2016
sg16
g2017
sg4579
S'Beam3500GeV-VeloClosed-MagDown'
p4845
ssI1192
(dp4846
g4573
(lp4847
S'/usera/jonesc/gangadir/workspace/jonesc/LocalXML/9154/output/RefInVerify-V2_BR-v37r7_Run-74733.root'
p4848
aS'/usera/jonesc/gangadir/workspace/jonesc/LocalXML/9155/output/RefInVerify-V2_BR-v37r7_Run-74734.root'
p4849
asg6
g2021
sg12
g2032
sg16
g2025
sg4579
S'Beam3500GeV-VeloClosed-MagDown'
p4850
ssI1308
(dp4851
g4573
(lp4852
S'/usera/jonesc/gangadir/workspace/jonesc/LocalXML/9484/output/RefInVerify-V2_BR-v37r7_Run-78270.root'
p4853
aS'/usera/jonesc/gangadir/workspace/jonesc/LocalXML/9485/output/RefInVerify-V2_BR-v37r7_Run-78271.root'
p4854
aS'/usera/jonesc/gangadir/workspace/jonesc/LocalXML/9486/output/RefInVerify-V2_BR-v37r7_Run-78272.root'
p4855
aS'/usera/jonesc/gangadir/workspace/jonesc/LocalXML/9487/output/RefInVerify-V2_BR-v37r7_Run-78273.root'
p4856
aS'/usera/jonesc/gangadir/workspace/jonesc/LocalXML/9488/output/RefInVerify-V2_BR-v37r7_Run-78274.root'
p4857
aS'/usera/jonesc/gangadir/workspace/jonesc/LocalXML/9489/output/RefInVerify-V2_BR-v37r7_Run-78275.root'
p4858
aS'/usera/jonesc/gangadir/workspace/jonesc/LocalXML/9490/output/RefInVerify-V2_BR-v37r7_Run-78276.root'
p4859
aS'/usera/jonesc/gangadir/workspace/jonesc/LocalXML/9491/output/RefInVerify-V2_BR-v37r7_Run-78277.root'
p4860
aS'/usera/jonesc/gangadir/workspace/jonesc/LocalXML/9492/output/RefInVerify-V2_BR-v37r7_Run-78278.root'
p4861
aS'/usera/jonesc/gangadir/workspace/jonesc/LocalXML/9493/output/RefInVerify-V2_BR-v37r7_Run-78279.root'
p4862
aS'/usera/jonesc/gangadir/workspace/jonesc/LocalXML/9494/output/RefInVerify-V2_BR-v37r7_Run-78280.root'
p4863
aS'/usera/jonesc/gangadir/workspace/jonesc/LocalXML/9495/output/RefInVerify-V2_BR-v37r7_Run-78281.root'
p4864
aS'/usera/jonesc/gangadir/workspace/jonesc/LocalXML/9496/output/RefInVerify-V2_BR-v37r7_Run-78282.root'
p4865
aS'/usera/jonesc/gangadir/workspace/jonesc/LocalXML/9497/output/RefInVerify-V2_BR-v37r7_Run-78283.root'
p4866
aS'/usera/jonesc/gangadir/workspace/jonesc/LocalXML/9498/output/RefInVerify-V2_BR-v37r7_Run-78284.root'
p4867
aS'/usera/jonesc/gangadir/workspace/jonesc/LocalXML/9499/output/RefInVerify-V2_BR-v37r7_Run-78287.root'
p4868
asg6
g3309
sg12
g1864
sg16
g3313
sg4579
S'Beam3500GeV-VeloClosed-MagUp'
p4869
ssI1287
(dp4870
g4573
(lp4871
S'/usera/jonesc/gangadir/workspace/jonesc/LocalXML/9389/output/RefInVerify-V2_BR-v37r7_Run-77618.root'
p4872
aS'/usera/jonesc/gangadir/workspace/jonesc/LocalXML/9390/output/RefInVerify-V2_BR-v37r7_Run-77619.root'
p4873
aS'/usera/jonesc/gangadir/workspace/jonesc/LocalXML/9391/output/RefInVerify-V2_BR-v37r7_Run-77620.root'
p4874
aS'/usera/jonesc/gangadir/workspace/jonesc/LocalXML/9392/output/RefInVerify-V2_BR-v37r7_Run-77621.root'
p4875
aS'/usera/jonesc/gangadir/workspace/jonesc/LocalXML/9393/output/RefInVerify-V2_BR-v37r7_Run-77622.root'
p4876
aS'/usera/jonesc/gangadir/workspace/jonesc/LocalXML/9394/output/RefInVerify-V2_BR-v37r7_Run-77623.root'
p4877
asg6
g4021
sg12
g1952
sg16
g4025
sg4579
S'Beam3500GeV-VeloClosed-MagDown'
p4878
ssI1068
(dp4879
g4573
(lp4880
S'/usera/jonesc/gangadir/workspace/jonesc/LocalXML/9028/output/RefInVerify-V2_BR-v37r7_Run-71165.root'
p4881
aS'/usera/jonesc/gangadir/workspace/jonesc/LocalXML/9029/output/RefInVerify-V2_BR-v37r7_Run-71166.root'
p4882
aS'/usera/jonesc/gangadir/workspace/jonesc/LocalXML/9030/output/RefInVerify-V2_BR-v37r7_Run-71167.root'
p4883
aS'/usera/jonesc/gangadir/workspace/jonesc/LocalXML/9031/output/RefInVerify-V2_BR-v37r7_Run-71168.root'
p4884
aS'/usera/jonesc/gangadir/workspace/jonesc/LocalXML/9032/output/RefInVerify-V2_BR-v37r7_Run-71169.root'
p4885
aS'/usera/jonesc/gangadir/workspace/jonesc/LocalXML/9033/output/RefInVerify-V2_BR-v37r7_Run-71170.root'
p4886
asg6
g3325
sg12
g3368
sg16
g3329
sg4579
S'Beam450GeV-VeloOpen-MagDown'
p4887
ssI1197
(dp4888
g4573
(lp4889
S'/usera/jonesc/gangadir/workspace/jonesc/LocalXML/9159/output/RefInVerify-V2_BR-v37r7_Run-74802.root'
p4890
aS'/usera/jonesc/gangadir/workspace/jonesc/LocalXML/9160/output/RefInVerify-V2_BR-v37r7_Run-74803.root'
p4891
aS'/usera/jonesc/gangadir/workspace/jonesc/LocalXML/9161/output/RefInVerify-V2_BR-v37r7_Run-74804.root'
p4892
aS'/usera/jonesc/gangadir/workspace/jonesc/LocalXML/9162/output/RefInVerify-V2_BR-v37r7_Run-74805.root'
p4893
aS'/usera/jonesc/gangadir/workspace/jonesc/LocalXML/9163/output/RefInVerify-V2_BR-v37r7_Run-74806.root'
p4894
aS'/usera/jonesc/gangadir/workspace/jonesc/LocalXML/9164/output/RefInVerify-V2_BR-v37r7_Run-74807.root'
p4895
aS'/usera/jonesc/gangadir/workspace/jonesc/LocalXML/9165/output/RefInVerify-V2_BR-v37r7_Run-74808.root'
p4896
aS'/usera/jonesc/gangadir/workspace/jonesc/LocalXML/9166/output/RefInVerify-V2_BR-v37r7_Run-74809.root'
p4897
aS'/usera/jonesc/gangadir/workspace/jonesc/LocalXML/9167/output/RefInVerify-V2_BR-v37r7_Run-74810.root'
p4898
aS'/usera/jonesc/gangadir/workspace/jonesc/LocalXML/9168/output/RefInVerify-V2_BR-v37r7_Run-74811.root'
p4899
aS'/usera/jonesc/gangadir/workspace/jonesc/LocalXML/9169/output/RefInVerify-V2_BR-v37r7_Run-74812.root'
p4900
aS'/usera/jonesc/gangadir/workspace/jonesc/LocalXML/9170/output/RefInVerify-V2_BR-v37r7_Run-74813.root'
p4901
aS'/usera/jonesc/gangadir/workspace/jonesc/LocalXML/9171/output/RefInVerify-V2_BR-v37r7_Run-74814.root'
p4902
aS'/usera/jonesc/gangadir/workspace/jonesc/LocalXML/9172/output/RefInVerify-V2_BR-v37r7_Run-74815.root'
p4903
aS'/usera/jonesc/gangadir/workspace/jonesc/LocalXML/9173/output/RefInVerify-V2_BR-v37r7_Run-74816.root'
p4904
aS'/usera/jonesc/gangadir/workspace/jonesc/LocalXML/9174/output/RefInVerify-V2_BR-v37r7_Run-74817.root'
p4905
aS'/usera/jonesc/gangadir/workspace/jonesc/LocalXML/9175/output/RefInVerify-V2_BR-v37r7_Run-74818.root'
p4906
aS'/usera/jonesc/gangadir/workspace/jonesc/LocalXML/9176/output/RefInVerify-V2_BR-v37r7_Run-74819.root'
p4907
aS'/usera/jonesc/gangadir/workspace/jonesc/LocalXML/9177/output/RefInVerify-V2_BR-v37r7_Run-74820.root'
p4908
aS'/usera/jonesc/gangadir/workspace/jonesc/LocalXML/9178/output/RefInVerify-V2_BR-v37r7_Run-74821.root'
p4909
aS'/usera/jonesc/gangadir/workspace/jonesc/LocalXML/9179/output/RefInVerify-V2_BR-v37r7_Run-74822.root'
p4910
aS'/usera/jonesc/gangadir/workspace/jonesc/LocalXML/9180/output/RefInVerify-V2_BR-v37r7_Run-74823.root'
p4911
aS'/usera/jonesc/gangadir/workspace/jonesc/LocalXML/9181/output/RefInVerify-V2_BR-v37r7_Run-74825.root'
p4912
aS'/usera/jonesc/gangadir/workspace/jonesc/LocalXML/9182/output/RefInVerify-V2_BR-v37r7_Run-74826.root'
p4913
aS'/usera/jonesc/gangadir/workspace/jonesc/LocalXML/9183/output/RefInVerify-V2_BR-v37r7_Run-74827.root'
p4914
aS'/usera/jonesc/gangadir/workspace/jonesc/LocalXML/9184/output/RefInVerify-V2_BR-v37r7_Run-74828.root'
p4915
aS'/usera/jonesc/gangadir/workspace/jonesc/LocalXML/9185/output/RefInVerify-V2_BR-v37r7_Run-74829.root'
p4916
aS'/usera/jonesc/gangadir/workspace/jonesc/LocalXML/9186/output/RefInVerify-V2_BR-v37r7_Run-74836.root'
p4917
asg6
g2293
sg12
g2520
sg16
g2297
sg4579
S'Beam3500GeV-VeloClosed-MagDown'
p4918
ssI1198
(dp4919
g4573
(lp4920
S'/usera/jonesc/gangadir/workspace/jonesc/LocalXML/9187/output/RefInVerify-V2_BR-v37r7_Run-74853.root'
p4921
aS'/usera/jonesc/gangadir/workspace/jonesc/LocalXML/9188/output/RefInVerify-V2_BR-v37r7_Run-74854.root'
p4922
aS'/usera/jonesc/gangadir/workspace/jonesc/LocalXML/9189/output/RefInVerify-V2_BR-v37r7_Run-74855.root'
p4923
aS'/usera/jonesc/gangadir/workspace/jonesc/LocalXML/9190/output/RefInVerify-V2_BR-v37r7_Run-74857.root'
p4924
aS'/usera/jonesc/gangadir/workspace/jonesc/LocalXML/9191/output/RefInVerify-V2_BR-v37r7_Run-74858.root'
p4925
aS'/usera/jonesc/gangadir/workspace/jonesc/LocalXML/9192/output/RefInVerify-V2_BR-v37r7_Run-74861.root'
p4926
aS'/usera/jonesc/gangadir/workspace/jonesc/LocalXML/9193/output/RefInVerify-V2_BR-v37r7_Run-74862.root'
p4927
aS'/usera/jonesc/gangadir/workspace/jonesc/LocalXML/9194/output/RefInVerify-V2_BR-v37r7_Run-74863.root'
p4928
aS'/usera/jonesc/gangadir/workspace/jonesc/LocalXML/9195/output/RefInVerify-V2_BR-v37r7_Run-74865.root'
p4929
aS'/usera/jonesc/gangadir/workspace/jonesc/LocalXML/9196/output/RefInVerify-V2_BR-v37r7_Run-74866.root'
p4930
aS'/usera/jonesc/gangadir/workspace/jonesc/LocalXML/9197/output/RefInVerify-V2_BR-v37r7_Run-74867.root'
p4931
asg6
g2541
sg12
g2624
sg16
g2545
sg4579
S'Beam3500GeV-VeloClosed-MagDown'
p4932
ssI1199
(dp4933
g4573
(lp4934
S'/usera/jonesc/gangadir/workspace/jonesc/LocalXML/9198/output/RefInVerify-V2_BR-v37r7_Run-74905.root'
p4935
aS'/usera/jonesc/gangadir/workspace/jonesc/LocalXML/9199/output/RefInVerify-V2_BR-v37r7_Run-74906.root'
p4936
aS'/usera/jonesc/gangadir/workspace/jonesc/LocalXML/9200/output/RefInVerify-V2_BR-v37r7_Run-74907.root'
p4937
aS'/usera/jonesc/gangadir/workspace/jonesc/LocalXML/9201/output/RefInVerify-V2_BR-v37r7_Run-74908.root'
p4938
asg6
g2653
sg12
g2680
sg16
g2657
sg4579
S'Beam3500GeV-VeloClosed-MagDown'
p4939
ssI1267
(dp4940
g4573
(lp4941
S'/usera/jonesc/gangadir/workspace/jonesc/LocalXML/9347/output/RefInVerify-V2_BR-v37r7_Run-77230.root'
p4942
aS'/usera/jonesc/gangadir/workspace/jonesc/LocalXML/9348/output/RefInVerify-V2_BR-v37r7_Run-77231.root'
p4943
aS'/usera/jonesc/gangadir/workspace/jonesc/LocalXML/9349/output/RefInVerify-V2_BR-v37r7_Run-77232.root'
p4944
aS'/usera/jonesc/gangadir/workspace/jonesc/LocalXML/9350/output/RefInVerify-V2_BR-v37r7_Run-77233.root'
p4945
aS'/usera/jonesc/gangadir/workspace/jonesc/LocalXML/9351/output/RefInVerify-V2_BR-v37r7_Run-77234.root'
p4946
aS'/usera/jonesc/gangadir/workspace/jonesc/LocalXML/9352/output/RefInVerify-V2_BR-v37r7_Run-77236.root'
p4947
aS'/usera/jonesc/gangadir/workspace/jonesc/LocalXML/9353/output/RefInVerify-V2_BR-v37r7_Run-77237.root'
p4948
aS'/usera/jonesc/gangadir/workspace/jonesc/LocalXML/9354/output/RefInVerify-V2_BR-v37r7_Run-77238.root'
p4949
aS'/usera/jonesc/gangadir/workspace/jonesc/LocalXML/9355/output/RefInVerify-V2_BR-v37r7_Run-77239.root'
p4950
aS'/usera/jonesc/gangadir/workspace/jonesc/LocalXML/9356/output/RefInVerify-V2_BR-v37r7_Run-77240.root'
p4951
asg6
g3189
sg12
g3264
sg16
g3193
sg4579
S'Beam3500GeV-VeloClosed-MagDown'
p4952
ssI1207
(dp4953
g4573
(lp4954
S'/usera/jonesc/gangadir/workspace/jonesc/LocalXML/9202/output/RefInVerify-V2_BR-v37r7_Run-75160.root'
p4955
aS'/usera/jonesc/gangadir/workspace/jonesc/LocalXML/9203/output/RefInVerify-V2_BR-v37r7_Run-75161.root'
p4956
aS'/usera/jonesc/gangadir/workspace/jonesc/LocalXML/9204/output/RefInVerify-V2_BR-v37r7_Run-75166.root'
p4957
aS'/usera/jonesc/gangadir/workspace/jonesc/LocalXML/9205/output/RefInVerify-V2_BR-v37r7_Run-75174.root'
p4958
aS'/usera/jonesc/gangadir/workspace/jonesc/LocalXML/9206/output/RefInVerify-V2_BR-v37r7_Run-75176.root'
p4959
asg6
g3125
sg12
g3184
sg16
g3129
sg4579
S'Beam3500GeV-VeloClosed-MagDown'
p4960
ssI952
(dp4961
g4573
(lp4962
S'/usera/jonesc/gangadir/workspace/jonesc/LocalXML/8943/output/RefInVerify-V2_BR-v37r7_Run-68179.root'
p4963
aS'/usera/jonesc/gangadir/workspace/jonesc/LocalXML/8944/output/RefInVerify-V2_BR-v37r7_Run-68181.root'
p4964
aS'/usera/jonesc/gangadir/workspace/jonesc/LocalXML/8945/output/RefInVerify-V2_BR-v37r7_Run-68254.root'
p4965
asg6
g1645
sg12
g1816
sg16
g1649
sg4579
S'BeamOff-VeloOpen-MagOff-Excl-EC-HC-MU-OT-R1-R2-SP-TT-VE'
p4966
ssI1089
(dp4967
g4573
(lp4968
S'/usera/jonesc/gangadir/workspace/jonesc/LocalXML/9040/output/RefInVerify-V2_BR-v37r7_Run-71474.root'
p4969
aS'/usera/jonesc/gangadir/workspace/jonesc/LocalXML/9041/output/RefInVerify-V2_BR-v37r7_Run-71476.root'
p4970
aS'/usera/jonesc/gangadir/workspace/jonesc/LocalXML/9042/output/RefInVerify-V2_BR-v37r7_Run-71477.root'
p4971
aS'/usera/jonesc/gangadir/workspace/jonesc/LocalXML/9043/output/RefInVerify-V2_BR-v37r7_Run-71478.root'
p4972
aS'/usera/jonesc/gangadir/workspace/jonesc/LocalXML/9044/output/RefInVerify-V2_BR-v37r7_Run-71479.root'
p4973
aS'/usera/jonesc/gangadir/workspace/jonesc/LocalXML/9045/output/RefInVerify-V2_BR-v37r7_Run-71481.root'
p4974
aS'/usera/jonesc/gangadir/workspace/jonesc/LocalXML/9046/output/RefInVerify-V2_BR-v37r7_Run-71485.root'
p4975
aS'/usera/jonesc/gangadir/workspace/jonesc/LocalXML/9047/output/RefInVerify-V2_BR-v37r7_Run-71486.root'
p4976
aS'/usera/jonesc/gangadir/workspace/jonesc/LocalXML/9048/output/RefInVerify-V2_BR-v37r7_Run-71487.root'
p4977
aS'/usera/jonesc/gangadir/workspace/jonesc/LocalXML/9049/output/RefInVerify-V2_BR-v37r7_Run-71488.root'
p4978
aS'/usera/jonesc/gangadir/workspace/jonesc/LocalXML/9050/output/RefInVerify-V2_BR-v37r7_Run-71489.root'
p4979
aS'/usera/jonesc/gangadir/workspace/jonesc/LocalXML/9051/output/RefInVerify-V2_BR-v37r7_Run-71490.root'
p4980
aS'/usera/jonesc/gangadir/workspace/jonesc/LocalXML/9052/output/RefInVerify-V2_BR-v37r7_Run-71491.root'
p4981
aS'/usera/jonesc/gangadir/workspace/jonesc/LocalXML/9053/output/RefInVerify-V2_BR-v37r7_Run-71492.root'
p4982
aS'/usera/jonesc/gangadir/workspace/jonesc/LocalXML/9054/output/RefInVerify-V2_BR-v37r7_Run-71493.root'
p4983
aS'/usera/jonesc/gangadir/workspace/jonesc/LocalXML/9055/output/RefInVerify-V2_BR-v37r7_Run-71494.root'
p4984
asg6
g1917
sg12
g4152
sg16
g1921
sg4579
S'Beam3500GeV-VeloClosed-MagUp'
p4985
ssI1090
(dp4986
g4573
(lp4987
S'/usera/jonesc/gangadir/workspace/jonesc/LocalXML/9056/output/RefInVerify-V2_BR-v37r7_Run-71525.root'
p4988
aS'/usera/jonesc/gangadir/workspace/jonesc/LocalXML/9057/output/RefInVerify-V2_BR-v37r7_Run-71526.root'
p4989
aS'/usera/jonesc/gangadir/workspace/jonesc/LocalXML/9058/output/RefInVerify-V2_BR-v37r7_Run-71527.root'
p4990
aS'/usera/jonesc/gangadir/workspace/jonesc/LocalXML/9059/output/RefInVerify-V2_BR-v37r7_Run-71530.root'
p4991
asg6
g4157
sg12
g4184
sg16
g4161
sg4579
S'Beam3500GeV-VeloClosed-MagUp'
p4992
ssI1134
(dp4993
g4573
(lp4994
S'/usera/jonesc/gangadir/workspace/jonesc/LocalXML/9131/output/RefInVerify-V2_BR-v37r7_Run-72908.root'
p4995
aS'/usera/jonesc/gangadir/workspace/jonesc/LocalXML/9132/output/RefInVerify-V2_BR-v37r7_Run-72909.root'
p4996
asg6
g2789
sg12
g2800
sg16
g2793
sg4579
S'Beam3500GeV-VeloClosed-MagDown'
p4997
ssI1222
(dp4998
g4573
(lp4999
S'/usera/jonesc/gangadir/workspace/jonesc/LocalXML/9207/output/RefInVerify-V2_BR-v37r7_Run-75335.root'
p5000
aS'/usera/jonesc/gangadir/workspace/jonesc/LocalXML/9208/output/RefInVerify-V2_BR-v37r7_Run-75336.root'
p5001
aS'/usera/jonesc/gangadir/workspace/jonesc/LocalXML/9209/output/RefInVerify-V2_BR-v37r7_Run-75337.root'
p5002
aS'/usera/jonesc/gangadir/workspace/jonesc/LocalXML/9210/output/RefInVerify-V2_BR-v37r7_Run-75338.root'
p5003
aS'/usera/jonesc/gangadir/workspace/jonesc/LocalXML/9211/output/RefInVerify-V2_BR-v37r7_Run-75339.root'
p5004
aS'/usera/jonesc/gangadir/workspace/jonesc/LocalXML/9212/output/RefInVerify-V2_BR-v37r7_Run-75340.root'
p5005
aS'/usera/jonesc/gangadir/workspace/jonesc/LocalXML/9213/output/RefInVerify-V2_BR-v37r7_Run-75341.root'
p5006
aS'/usera/jonesc/gangadir/workspace/jonesc/LocalXML/9214/output/RefInVerify-V2_BR-v37r7_Run-75344.root'
p5007
aS'/usera/jonesc/gangadir/workspace/jonesc/LocalXML/9215/output/RefInVerify-V2_BR-v37r7_Run-75345.root'
p5008
aS'/usera/jonesc/gangadir/workspace/jonesc/LocalXML/9216/output/RefInVerify-V2_BR-v37r7_Run-75346.root'
p5009
aS'/usera/jonesc/gangadir/workspace/jonesc/LocalXML/9217/output/RefInVerify-V2_BR-v37r7_Run-75347.root'
p5010
aS'/usera/jonesc/gangadir/workspace/jonesc/LocalXML/9218/output/RefInVerify-V2_BR-v37r7_Run-75348.root'
p5011
aS'/usera/jonesc/gangadir/workspace/jonesc/LocalXML/9219/output/RefInVerify-V2_BR-v37r7_Run-75349.root'
p5012
aS'/usera/jonesc/gangadir/workspace/jonesc/LocalXML/9220/output/RefInVerify-V2_BR-v37r7_Run-75350.root'
p5013
asg6
g3429
sg12
g3536
sg16
g3433
sg4579
S'Beam3500GeV-VeloClosed-MagDown'
p5014
ssI993
(dp5015
g4573
(lp5016
S'/usera/jonesc/gangadir/workspace/jonesc/LocalXML/8946/output/RefInVerify-V2_BR-v37r7_Run-68909.root'
p5017
asg6
g2885
sg12
g2888
sg16
g2889
sg4579
S'Beam3500GeV-VeloOpen-MagDown-Excl-IT-R1-R2-TT-VE'
p5018
ssI1224
(dp5019
g4573
(lp5020
S'/usera/jonesc/gangadir/workspace/jonesc/LocalXML/9221/output/RefInVerify-V2_BR-v37r7_Run-75409.root'
p5021
aS'/usera/jonesc/gangadir/workspace/jonesc/LocalXML/9222/output/RefInVerify-V2_BR-v37r7_Run-75410.root'
p5022
aS'/usera/jonesc/gangadir/workspace/jonesc/LocalXML/9223/output/RefInVerify-V2_BR-v37r7_Run-75411.root'
p5023
aS'/usera/jonesc/gangadir/workspace/jonesc/LocalXML/9224/output/RefInVerify-V2_BR-v37r7_Run-75412.root'
p5024
aS'/usera/jonesc/gangadir/workspace/jonesc/LocalXML/9225/output/RefInVerify-V2_BR-v37r7_Run-75414.root'
p5025
aS'/usera/jonesc/gangadir/workspace/jonesc/LocalXML/9226/output/RefInVerify-V2_BR-v37r7_Run-75415.root'
p5026
aS'/usera/jonesc/gangadir/workspace/jonesc/LocalXML/9227/output/RefInVerify-V2_BR-v37r7_Run-75416.root'
p5027
aS'/usera/jonesc/gangadir/workspace/jonesc/LocalXML/9228/output/RefInVerify-V2_BR-v37r7_Run-75417.root'
p5028
aS'/usera/jonesc/gangadir/workspace/jonesc/LocalXML/9229/output/RefInVerify-V2_BR-v37r7_Run-75418.root'
p5029
asg6
g3541
sg12
g3608
sg16
g3545
sg4579
S'Beam3500GeV-VeloClosed-MagUp'
p5030
ssI1225
(dp5031
g4573
(lp5032
S'/usera/jonesc/gangadir/workspace/jonesc/LocalXML/9230/output/RefInVerify-V2_BR-v37r7_Run-75443.root'
p5033
aS'/usera/jonesc/gangadir/workspace/jonesc/LocalXML/9231/output/RefInVerify-V2_BR-v37r7_Run-75444.root'
p5034
aS'/usera/jonesc/gangadir/workspace/jonesc/LocalXML/9232/output/RefInVerify-V2_BR-v37r7_Run-75445.root'
p5035
aS'/usera/jonesc/gangadir/workspace/jonesc/LocalXML/9233/output/RefInVerify-V2_BR-v37r7_Run-75446.root'
p5036
aS'/usera/jonesc/gangadir/workspace/jonesc/LocalXML/9234/output/RefInVerify-V2_BR-v37r7_Run-75447.root'
p5037
aS'/usera/jonesc/gangadir/workspace/jonesc/LocalXML/9235/output/RefInVerify-V2_BR-v37r7_Run-75448.root'
p5038
aS'/usera/jonesc/gangadir/workspace/jonesc/LocalXML/9236/output/RefInVerify-V2_BR-v37r7_Run-75449.root'
p5039
aS'/usera/jonesc/gangadir/workspace/jonesc/LocalXML/9237/output/RefInVerify-V2_BR-v37r7_Run-75450.root'
p5040
aS'/usera/jonesc/gangadir/workspace/jonesc/LocalXML/9238/output/RefInVerify-V2_BR-v37r7_Run-75451.root'
p5041
aS'/usera/jonesc/gangadir/workspace/jonesc/LocalXML/9239/output/RefInVerify-V2_BR-v37r7_Run-75452.root'
p5042
aS'/usera/jonesc/gangadir/workspace/jonesc/LocalXML/9240/output/RefInVerify-V2_BR-v37r7_Run-75453.root'
p5043
aS'/usera/jonesc/gangadir/workspace/jonesc/LocalXML/9241/output/RefInVerify-V2_BR-v37r7_Run-75454.root'
p5044
asg6
g3621
sg12
g3712
sg16
g3625
sg4579
S'Beam3500GeV-VeloClosed-MagUp'
p5045
ssI1226
(dp5046
g4573
(lp5047
S'/usera/jonesc/gangadir/workspace/jonesc/LocalXML/9242/output/RefInVerify-V2_BR-v37r7_Run-75484.root'
p5048
aS'/usera/jonesc/gangadir/workspace/jonesc/LocalXML/9243/output/RefInVerify-V2_BR-v37r7_Run-75485.root'
p5049
aS'/usera/jonesc/gangadir/workspace/jonesc/LocalXML/9244/output/RefInVerify-V2_BR-v37r7_Run-75488.root'
p5050
aS'/usera/jonesc/gangadir/workspace/jonesc/LocalXML/9245/output/RefInVerify-V2_BR-v37r7_Run-75498.root'
p5051
aS'/usera/jonesc/gangadir/workspace/jonesc/LocalXML/9246/output/RefInVerify-V2_BR-v37r7_Run-75499.root'
p5052
aS'/usera/jonesc/gangadir/workspace/jonesc/LocalXML/9247/output/RefInVerify-V2_BR-v37r7_Run-75500.root'
p5053
aS'/usera/jonesc/gangadir/workspace/jonesc/LocalXML/9248/output/RefInVerify-V2_BR-v37r7_Run-75501.root'
p5054
aS'/usera/jonesc/gangadir/workspace/jonesc/LocalXML/9249/output/RefInVerify-V2_BR-v37r7_Run-75513.root'
p5055
aS'/usera/jonesc/gangadir/workspace/jonesc/LocalXML/9250/output/RefInVerify-V2_BR-v37r7_Run-75514.root'
p5056
aS'/usera/jonesc/gangadir/workspace/jonesc/LocalXML/9251/output/RefInVerify-V2_BR-v37r7_Run-75515.root'
p5057
aS'/usera/jonesc/gangadir/workspace/jonesc/LocalXML/9252/output/RefInVerify-V2_BR-v37r7_Run-75516.root'
p5058
asg6
g3717
sg12
g3904
sg16
g3721
sg4579
S'Beam3500GeV-VeloClosed-MagUp'
p5059
ssI1101
(dp5060
g4573
(lp5061
S'/usera/jonesc/gangadir/workspace/jonesc/LocalXML/9060/output/RefInVerify-V2_BR-v37r7_Run-71803.root'
p5062
aS'/usera/jonesc/gangadir/workspace/jonesc/LocalXML/9061/output/RefInVerify-V2_BR-v37r7_Run-71804.root'
p5063
aS'/usera/jonesc/gangadir/workspace/jonesc/LocalXML/9062/output/RefInVerify-V2_BR-v37r7_Run-71805.root'
p5064
aS'/usera/jonesc/gangadir/workspace/jonesc/LocalXML/9063/output/RefInVerify-V2_BR-v37r7_Run-71806.root'
p5065
aS'/usera/jonesc/gangadir/workspace/jonesc/LocalXML/9064/output/RefInVerify-V2_BR-v37r7_Run-71807.root'
p5066
aS'/usera/jonesc/gangadir/workspace/jonesc/LocalXML/9065/output/RefInVerify-V2_BR-v37r7_Run-71808.root'
p5067
aS'/usera/jonesc/gangadir/workspace/jonesc/LocalXML/9066/output/RefInVerify-V2_BR-v37r7_Run-71809.root'
p5068
aS'/usera/jonesc/gangadir/workspace/jonesc/LocalXML/9067/output/RefInVerify-V2_BR-v37r7_Run-71810.root'
p5069
aS'/usera/jonesc/gangadir/workspace/jonesc/LocalXML/9068/output/RefInVerify-V2_BR-v37r7_Run-71811.root'
p5070
aS'/usera/jonesc/gangadir/workspace/jonesc/LocalXML/9069/output/RefInVerify-V2_BR-v37r7_Run-71812.root'
p5071
aS'/usera/jonesc/gangadir/workspace/jonesc/LocalXML/9070/output/RefInVerify-V2_BR-v37r7_Run-71813.root'
p5072
aS'/usera/jonesc/gangadir/workspace/jonesc/LocalXML/9071/output/RefInVerify-V2_BR-v37r7_Run-71815.root'
p5073
aS'/usera/jonesc/gangadir/workspace/jonesc/LocalXML/9072/output/RefInVerify-V2_BR-v37r7_Run-71816.root'
p5074
asg6
g173
sg12
g272
sg16
g177
sg4579
S'Beam3500GeV-VeloClosed-MagDown'
p5075
ssI1229
(dp5076
g4573
(lp5077
S'/usera/jonesc/gangadir/workspace/jonesc/LocalXML/9253/output/RefInVerify-V2_BR-v37r7_Run-75639.root'
p5078
aS'/usera/jonesc/gangadir/workspace/jonesc/LocalXML/9254/output/RefInVerify-V2_BR-v37r7_Run-75640.root'
p5079
aS'/usera/jonesc/gangadir/workspace/jonesc/LocalXML/9255/output/RefInVerify-V2_BR-v37r7_Run-75642.root'
p5080
aS'/usera/jonesc/gangadir/workspace/jonesc/LocalXML/9256/output/RefInVerify-V2_BR-v37r7_Run-75644.root'
p5081
aS'/usera/jonesc/gangadir/workspace/jonesc/LocalXML/9257/output/RefInVerify-V2_BR-v37r7_Run-75645.root'
p5082
aS'/usera/jonesc/gangadir/workspace/jonesc/LocalXML/9258/output/RefInVerify-V2_BR-v37r7_Run-75646.root'
p5083
asg6
g4189
sg12
g4232
sg16
g4193
sg4579
S'Beam3500GeV-VeloClosed-MagUp'
p5084
ssI1232
(dp5085
g4573
(lp5086
S'/usera/jonesc/gangadir/workspace/jonesc/LocalXML/9259/output/RefInVerify-V2_BR-v37r7_Run-75686.root'
p5087
aS'/usera/jonesc/gangadir/workspace/jonesc/LocalXML/9260/output/RefInVerify-V2_BR-v37r7_Run-75687.root'
p5088
aS'/usera/jonesc/gangadir/workspace/jonesc/LocalXML/9261/output/RefInVerify-V2_BR-v37r7_Run-75691.root'
p5089
aS'/usera/jonesc/gangadir/workspace/jonesc/LocalXML/9262/output/RefInVerify-V2_BR-v37r7_Run-75692.root'
p5090
aS'/usera/jonesc/gangadir/workspace/jonesc/LocalXML/9263/output/RefInVerify-V2_BR-v37r7_Run-75694.root'
p5091
asg6
g4245
sg12
g4280
sg16
g4249
sg4579
S'Beam3500GeV-VeloClosed-MagUp'
p5092
ssI1233
(dp5093
g4573
(lp5094
S'/usera/jonesc/gangadir/workspace/jonesc/LocalXML/9264/output/RefInVerify-V2_BR-v37r7_Run-75710.root'
p5095
aS'/usera/jonesc/gangadir/workspace/jonesc/LocalXML/9265/output/RefInVerify-V2_BR-v37r7_Run-75711.root'
p5096
aS'/usera/jonesc/gangadir/workspace/jonesc/LocalXML/9266/output/RefInVerify-V2_BR-v37r7_Run-75712.root'
p5097
aS'/usera/jonesc/gangadir/workspace/jonesc/LocalXML/9267/output/RefInVerify-V2_BR-v37r7_Run-75713.root'
p5098
aS'/usera/jonesc/gangadir/workspace/jonesc/LocalXML/9268/output/RefInVerify-V2_BR-v37r7_Run-75714.root'
p5099
aS'/usera/jonesc/gangadir/workspace/jonesc/LocalXML/9269/output/RefInVerify-V2_BR-v37r7_Run-75715.root'
p5100
aS'/usera/jonesc/gangadir/workspace/jonesc/LocalXML/9270/output/RefInVerify-V2_BR-v37r7_Run-75716.root'
p5101
aS'/usera/jonesc/gangadir/workspace/jonesc/LocalXML/9271/output/RefInVerify-V2_BR-v37r7_Run-75717.root'
p5102
aS'/usera/jonesc/gangadir/workspace/jonesc/LocalXML/9272/output/RefInVerify-V2_BR-v37r7_Run-75718.root'
p5103
aS'/usera/jonesc/gangadir/workspace/jonesc/LocalXML/9273/output/RefInVerify-V2_BR-v37r7_Run-75719.root'
p5104
aS'/usera/jonesc/gangadir/workspace/jonesc/LocalXML/9274/output/RefInVerify-V2_BR-v37r7_Run-75720.root'
p5105
aS'/usera/jonesc/gangadir/workspace/jonesc/LocalXML/9275/output/RefInVerify-V2_BR-v37r7_Run-75721.root'
p5106
aS'/usera/jonesc/gangadir/workspace/jonesc/LocalXML/9276/output/RefInVerify-V2_BR-v37r7_Run-75722.root'
p5107
aS'/usera/jonesc/gangadir/workspace/jonesc/LocalXML/9277/output/RefInVerify-V2_BR-v37r7_Run-75723.root'
p5108
aS'/usera/jonesc/gangadir/workspace/jonesc/LocalXML/9278/output/RefInVerify-V2_BR-v37r7_Run-75724.root'
p5109
aS'/usera/jonesc/gangadir/workspace/jonesc/LocalXML/9279/output/RefInVerify-V2_BR-v37r7_Run-75725.root'
p5110
asg6
g4293
sg12
g4416
sg16
g4297
sg4579
S'Beam3500GeV-VeloClosed-MagUp'
p5111
ssI1196
(dp5112
g4573
(lp5113
S'/usera/jonesc/gangadir/workspace/jonesc/LocalXML/9156/output/RefInVerify-V2_BR-v37r7_Run-74788.root'
p5114
aS'/usera/jonesc/gangadir/workspace/jonesc/LocalXML/9157/output/RefInVerify-V2_BR-v37r7_Run-74789.root'
p5115
aS'/usera/jonesc/gangadir/workspace/jonesc/LocalXML/9158/output/RefInVerify-V2_BR-v37r7_Run-74790.root'
p5116
asg6
g2237
sg12
g2256
sg16
g2241
sg4579
S'Beam3500GeV-VeloClosed-MagDown'
p5117
ssI1109
(dp5118
g4573
(lp5119
S'/usera/jonesc/gangadir/workspace/jonesc/LocalXML/9102/output/RefInVerify-V2_BR-v37r7_Run-71958.root'
p5120
asg6
g829
sg12
g832
sg16
g833
sg4579
S'Beam3500GeV-VeloClosed-MagUp'
p5121
ssI1112
(dp5122
g4573
(lp5123
S'/usera/jonesc/gangadir/workspace/jonesc/LocalXML/9103/output/RefInVerify-V2_BR-v37r7_Run-72020.root'
p5124
aS'/usera/jonesc/gangadir/workspace/jonesc/LocalXML/9104/output/RefInVerify-V2_BR-v37r7_Run-72021.root'
p5125
asg6
g1021
sg12
g1032
sg16
g1025
sg4579
S'Beam3500GeV-VeloClosed-MagDown'
p5126
ssI1295
(dp5127
g4573
(lp5128
S'/usera/jonesc/gangadir/workspace/jonesc/LocalXML/9405/output/RefInVerify-V2_BR-v37r7_Run-77864.root'
p5129
aS'/usera/jonesc/gangadir/workspace/jonesc/LocalXML/9406/output/RefInVerify-V2_BR-v37r7_Run-77865.root'
p5130
aS'/usera/jonesc/gangadir/workspace/jonesc/LocalXML/9407/output/RefInVerify-V2_BR-v37r7_Run-77866.root'
p5131
aS'/usera/jonesc/gangadir/workspace/jonesc/LocalXML/9408/output/RefInVerify-V2_BR-v37r7_Run-77867.root'
p5132
aS'/usera/jonesc/gangadir/workspace/jonesc/LocalXML/9409/output/RefInVerify-V2_BR-v37r7_Run-77868.root'
p5133
aS'/usera/jonesc/gangadir/workspace/jonesc/LocalXML/9410/output/RefInVerify-V2_BR-v37r7_Run-77869.root'
p5134
aS'/usera/jonesc/gangadir/workspace/jonesc/LocalXML/9411/output/RefInVerify-V2_BR-v37r7_Run-77870.root'
p5135
aS'/usera/jonesc/gangadir/workspace/jonesc/LocalXML/9412/output/RefInVerify-V2_BR-v37r7_Run-77871.root'
p5136
aS'/usera/jonesc/gangadir/workspace/jonesc/LocalXML/9413/output/RefInVerify-V2_BR-v37r7_Run-77872.root'
p5137
aS'/usera/jonesc/gangadir/workspace/jonesc/LocalXML/9414/output/RefInVerify-V2_BR-v37r7_Run-77873.root'
p5138
aS'/usera/jonesc/gangadir/workspace/jonesc/LocalXML/9415/output/RefInVerify-V2_BR-v37r7_Run-77874.root'
p5139
aS'/usera/jonesc/gangadir/workspace/jonesc/LocalXML/9416/output/RefInVerify-V2_BR-v37r7_Run-77875.root'
p5140
aS'/usera/jonesc/gangadir/workspace/jonesc/LocalXML/9417/output/RefInVerify-V2_BR-v37r7_Run-77881.root'
p5141
asg6
g3421
sg12
g168
sg16
g3425
sg4579
S'Beam3500GeV-VeloClosed-MagUp'
p5142
ssI1117
(dp5143
g4573
(lp5144
S'/usera/jonesc/gangadir/workspace/jonesc/LocalXML/9105/output/RefInVerify-V2_BR-v37r7_Run-72216.root'
p5145
aS'/usera/jonesc/gangadir/workspace/jonesc/LocalXML/9106/output/RefInVerify-V2_BR-v37r7_Run-72217.root'
p5146
aS'/usera/jonesc/gangadir/workspace/jonesc/LocalXML/9107/output/RefInVerify-V2_BR-v37r7_Run-72218.root'
p5147
aS'/usera/jonesc/gangadir/workspace/jonesc/LocalXML/9108/output/RefInVerify-V2_BR-v37r7_Run-72219.root'
p5148
aS'/usera/jonesc/gangadir/workspace/jonesc/LocalXML/9109/output/RefInVerify-V2_BR-v37r7_Run-72220.root'
p5149
aS'/usera/jonesc/gangadir/workspace/jonesc/LocalXML/9110/output/RefInVerify-V2_BR-v37r7_Run-72221.root'
p5150
aS'/usera/jonesc/gangadir/workspace/jonesc/LocalXML/9111/output/RefInVerify-V2_BR-v37r7_Run-72222.root'
p5151
asg6
g1493
sg12
g1544
sg16
g1497
sg4579
S'Beam3500GeV-VeloClosed-MagDown'
p5152
ssI1118
(dp5153
g4573
(lp5154
S'/usera/jonesc/gangadir/workspace/jonesc/LocalXML/9112/output/RefInVerify-V2_BR-v37r7_Run-72251.root'
p5155
aS'/usera/jonesc/gangadir/workspace/jonesc/LocalXML/9113/output/RefInVerify-V2_BR-v37r7_Run-72252.root'
p5156
aS'/usera/jonesc/gangadir/workspace/jonesc/LocalXML/9114/output/RefInVerify-V2_BR-v37r7_Run-72253.root'
p5157
aS'/usera/jonesc/gangadir/workspace/jonesc/LocalXML/9115/output/RefInVerify-V2_BR-v37r7_Run-72254.root'
p5158
asg6
g1581
sg12
g1608
sg16
g1585
sg4579
S'Beam3500GeV-VeloClosed-MagDown'
p5159
ssI1119
(dp5160
g4573
(lp5161
S'/usera/jonesc/gangadir/workspace/jonesc/LocalXML/9116/output/RefInVerify-V2_BR-v37r7_Run-72266.root'
p5162
aS'/usera/jonesc/gangadir/workspace/jonesc/LocalXML/9117/output/RefInVerify-V2_BR-v37r7_Run-72267.root'
p5163
aS'/usera/jonesc/gangadir/workspace/jonesc/LocalXML/9118/output/RefInVerify-V2_BR-v37r7_Run-72268.root'
p5164
aS'/usera/jonesc/gangadir/workspace/jonesc/LocalXML/9119/output/RefInVerify-V2_BR-v37r7_Run-72269.root'
p5165
asg6
g1613
sg12
g1640
sg16
g1617
sg4579
S'Beam3500GeV-VeloClosed-MagDown'
p5166
ssI1303
(dp5167
g4573
(lp5168
S'/usera/jonesc/gangadir/workspace/jonesc/LocalXML/9462/output/RefInVerify-V2_BR-v37r7_Run-78145.root'
p5169
aS'/usera/jonesc/gangadir/workspace/jonesc/LocalXML/9463/output/RefInVerify-V2_BR-v37r7_Run-78146.root'
p5170
aS'/usera/jonesc/gangadir/workspace/jonesc/LocalXML/9464/output/RefInVerify-V2_BR-v37r7_Run-78147.root'
p5171
aS'/usera/jonesc/gangadir/workspace/jonesc/LocalXML/9465/output/RefInVerify-V2_BR-v37r7_Run-78148.root'
p5172
aS'/usera/jonesc/gangadir/workspace/jonesc/LocalXML/9466/output/RefInVerify-V2_BR-v37r7_Run-78149.root'
p5173
aS'/usera/jonesc/gangadir/workspace/jonesc/LocalXML/9467/output/RefInVerify-V2_BR-v37r7_Run-78150.root'
p5174
aS'/usera/jonesc/gangadir/workspace/jonesc/LocalXML/9468/output/RefInVerify-V2_BR-v37r7_Run-78151.root'
p5175
aS'/usera/jonesc/gangadir/workspace/jonesc/LocalXML/9469/output/RefInVerify-V2_BR-v37r7_Run-78153.root'
p5176
aS'/usera/jonesc/gangadir/workspace/jonesc/LocalXML/9470/output/RefInVerify-V2_BR-v37r7_Run-78154.root'
p5177
aS'/usera/jonesc/gangadir/workspace/jonesc/LocalXML/9471/output/RefInVerify-V2_BR-v37r7_Run-78155.root'
p5178
aS'/usera/jonesc/gangadir/workspace/jonesc/LocalXML/9472/output/RefInVerify-V2_BR-v37r7_Run-78156.root'
p5179
aS'/usera/jonesc/gangadir/workspace/jonesc/LocalXML/9473/output/RefInVerify-V2_BR-v37r7_Run-78157.root'
p5180
aS'/usera/jonesc/gangadir/workspace/jonesc/LocalXML/9474/output/RefInVerify-V2_BR-v37r7_Run-78158.root'
p5181
aS'/usera/jonesc/gangadir/workspace/jonesc/LocalXML/9475/output/RefInVerify-V2_BR-v37r7_Run-78159.root'
p5182
aS'/usera/jonesc/gangadir/workspace/jonesc/LocalXML/9476/output/RefInVerify-V2_BR-v37r7_Run-78160.root'
p5183
asg6
g4237
sg12
g1016
sg16
g4241
sg4579
S'Beam3500GeV-VeloClosed-MagUp'
p5184
ssI1121
(dp5185
g4573
(lp5186
S'/usera/jonesc/gangadir/workspace/jonesc/LocalXML/9120/output/RefInVerify-V2_BR-v37r7_Run-72309.root'
p5187
aS'/usera/jonesc/gangadir/workspace/jonesc/LocalXML/9121/output/RefInVerify-V2_BR-v37r7_Run-72310.root'
p5188
asg6
g1661
sg12
g1672
sg16
g1665
sg4579
S'Beam3500GeV-VeloClosed-MagDown'
p5189
ssI1250
(dp5190
g4573
(lp5191
S'/usera/jonesc/gangadir/workspace/jonesc/LocalXML/9280/output/RefInVerify-V2_BR-v37r7_Run-76790.root'
p5192
aS'/usera/jonesc/gangadir/workspace/jonesc/LocalXML/9281/output/RefInVerify-V2_BR-v37r7_Run-76791.root'
p5193
aS'/usera/jonesc/gangadir/workspace/jonesc/LocalXML/9282/output/RefInVerify-V2_BR-v37r7_Run-76792.root'
p5194
aS'/usera/jonesc/gangadir/workspace/jonesc/LocalXML/9283/output/RefInVerify-V2_BR-v37r7_Run-76793.root'
p5195
aS'/usera/jonesc/gangadir/workspace/jonesc/LocalXML/9284/output/RefInVerify-V2_BR-v37r7_Run-76794.root'
p5196
aS'/usera/jonesc/gangadir/workspace/jonesc/LocalXML/9285/output/RefInVerify-V2_BR-v37r7_Run-76795.root'
p5197
aS'/usera/jonesc/gangadir/workspace/jonesc/LocalXML/9286/output/RefInVerify-V2_BR-v37r7_Run-76796.root'
p5198
aS'/usera/jonesc/gangadir/workspace/jonesc/LocalXML/9287/output/RefInVerify-V2_BR-v37r7_Run-76797.root'
p5199
aS'/usera/jonesc/gangadir/workspace/jonesc/LocalXML/9288/output/RefInVerify-V2_BR-v37r7_Run-76798.root'
p5200
aS'/usera/jonesc/gangadir/workspace/jonesc/LocalXML/9289/output/RefInVerify-V2_BR-v37r7_Run-76799.root'
p5201
asg6
g2037
sg12
g2112
sg16
g2041
sg4579
S'Beam3500GeV-VeloClosed-MagDown'
p5202
ssI1251
(dp5203
g4573
(lp5204
S'/usera/jonesc/gangadir/workspace/jonesc/LocalXML/9290/output/RefInVerify-V2_BR-v37r7_Run-76845.root'
p5205
aS'/usera/jonesc/gangadir/workspace/jonesc/LocalXML/9291/output/RefInVerify-V2_BR-v37r7_Run-76846.root'
p5206
aS'/usera/jonesc/gangadir/workspace/jonesc/LocalXML/9292/output/RefInVerify-V2_BR-v37r7_Run-76847.root'
p5207
aS'/usera/jonesc/gangadir/workspace/jonesc/LocalXML/9293/output/RefInVerify-V2_BR-v37r7_Run-76848.root'
p5208
aS'/usera/jonesc/gangadir/workspace/jonesc/LocalXML/9294/output/RefInVerify-V2_BR-v37r7_Run-76850.root'
p5209
aS'/usera/jonesc/gangadir/workspace/jonesc/LocalXML/9295/output/RefInVerify-V2_BR-v37r7_Run-76851.root'
p5210
asg6
g2261
sg12
g2304
sg16
g2265
sg4579
S'Beam3500GeV-VeloClosed-MagDown'
p5211
ssI1253
(dp5212
g4573
(lp5213
S'/usera/jonesc/gangadir/workspace/jonesc/LocalXML/9296/output/RefInVerify-V2_BR-v37r7_Run-76932.root'
p5214
aS'/usera/jonesc/gangadir/workspace/jonesc/LocalXML/9297/output/RefInVerify-V2_BR-v37r7_Run-76933.root'
p5215
asg6
g2629
sg12
g2640
sg16
g2633
sg4579
S'Beam3500GeV-VeloClosed-MagDown'
p5216
ssI1128
(dp5217
g4573
(lp5218
S'/usera/jonesc/gangadir/workspace/jonesc/LocalXML/9129/output/RefInVerify-V2_BR-v37r7_Run-72405.root'
p5219
aS'/usera/jonesc/gangadir/workspace/jonesc/LocalXML/9130/output/RefInVerify-V2_BR-v37r7_Run-72406.root'
p5220
asg6
g1845
sg12
g1856
sg16
g1849
sg4579
S'Beam450GeV-VeloOpen-MagDown'
p5221
ssI1257
(dp5222
g4573
(lp5223
S'/usera/jonesc/gangadir/workspace/jonesc/LocalXML/9302/output/RefInVerify-V2_BR-v37r7_Run-76994.root'
p5224
aS'/usera/jonesc/gangadir/workspace/jonesc/LocalXML/9303/output/RefInVerify-V2_BR-v37r7_Run-76996.root'
p5225
aS'/usera/jonesc/gangadir/workspace/jonesc/LocalXML/9304/output/RefInVerify-V2_BR-v37r7_Run-76997.root'
p5226
aS'/usera/jonesc/gangadir/workspace/jonesc/LocalXML/9305/output/RefInVerify-V2_BR-v37r7_Run-76998.root'
p5227
aS'/usera/jonesc/gangadir/workspace/jonesc/LocalXML/9306/output/RefInVerify-V2_BR-v37r7_Run-76999.root'
p5228
aS'/usera/jonesc/gangadir/workspace/jonesc/LocalXML/9307/output/RefInVerify-V2_BR-v37r7_Run-77000.root'
p5229
aS'/usera/jonesc/gangadir/workspace/jonesc/LocalXML/9308/output/RefInVerify-V2_BR-v37r7_Run-77001.root'
p5230
aS'/usera/jonesc/gangadir/workspace/jonesc/LocalXML/9309/output/RefInVerify-V2_BR-v37r7_Run-77002.root'
p5231
aS'/usera/jonesc/gangadir/workspace/jonesc/LocalXML/9310/output/RefInVerify-V2_BR-v37r7_Run-77003.root'
p5232
aS'/usera/jonesc/gangadir/workspace/jonesc/LocalXML/9311/output/RefInVerify-V2_BR-v37r7_Run-77004.root'
p5233
asg6
g2717
sg12
g3864
sg16
g2721
sg4579
S'Beam3500GeV-VeloClosed-MagDown'
p5234
ssI1258
(dp5235
g4573
(lp5236
S'/usera/jonesc/gangadir/workspace/jonesc/LocalXML/9312/output/RefInVerify-V2_BR-v37r7_Run-77059.root'
p5237
aS'/usera/jonesc/gangadir/workspace/jonesc/LocalXML/9313/output/RefInVerify-V2_BR-v37r7_Run-77060.root'
p5238
aS'/usera/jonesc/gangadir/workspace/jonesc/LocalXML/9314/output/RefInVerify-V2_BR-v37r7_Run-77062.root'
p5239
aS'/usera/jonesc/gangadir/workspace/jonesc/LocalXML/9315/output/RefInVerify-V2_BR-v37r7_Run-77063.root'
p5240
aS'/usera/jonesc/gangadir/workspace/jonesc/LocalXML/9316/output/RefInVerify-V2_BR-v37r7_Run-77064.root'
p5241
aS'/usera/jonesc/gangadir/workspace/jonesc/LocalXML/9317/output/RefInVerify-V2_BR-v37r7_Run-77065.root'
p5242
aS'/usera/jonesc/gangadir/workspace/jonesc/LocalXML/9318/output/RefInVerify-V2_BR-v37r7_Run-77066.root'
p5243
aS'/usera/jonesc/gangadir/workspace/jonesc/LocalXML/9319/output/RefInVerify-V2_BR-v37r7_Run-77067.root'
p5244
asg6
g2813
sg12
g2872
sg16
g2817
sg4579
S'Beam3500GeV-VeloClosed-MagDown'
p5245
ssI1260
(dp5246
g4573
(lp5247
S'/usera/jonesc/gangadir/workspace/jonesc/LocalXML/9320/output/RefInVerify-V2_BR-v37r7_Run-77102.root'
p5248
asg6
g2893
sg12
g2896
sg16
g2897
sg4579
S'Beam3500GeV-VeloClosed-MagDown'
p5249
ssI1298
(dp5250
g4573
(lp5251
S'/usera/jonesc/gangadir/workspace/jonesc/LocalXML/9418/output/RefInVerify-V2_BR-v37r7_Run-77968.root'
p5252
aS'/usera/jonesc/gangadir/workspace/jonesc/LocalXML/9419/output/RefInVerify-V2_BR-v37r7_Run-77969.root'
p5253
aS'/usera/jonesc/gangadir/workspace/jonesc/LocalXML/9420/output/RefInVerify-V2_BR-v37r7_Run-77971.root'
p5254
aS'/usera/jonesc/gangadir/workspace/jonesc/LocalXML/9421/output/RefInVerify-V2_BR-v37r7_Run-77972.root'
p5255
aS'/usera/jonesc/gangadir/workspace/jonesc/LocalXML/9422/output/RefInVerify-V2_BR-v37r7_Run-77973.root'
p5256
aS'/usera/jonesc/gangadir/workspace/jonesc/LocalXML/9423/output/RefInVerify-V2_BR-v37r7_Run-77974.root'
p5257
aS'/usera/jonesc/gangadir/workspace/jonesc/LocalXML/9424/output/RefInVerify-V2_BR-v37r7_Run-77975.root'
p5258
aS'/usera/jonesc/gangadir/workspace/jonesc/LocalXML/9425/output/RefInVerify-V2_BR-v37r7_Run-77976.root'
p5259
aS'/usera/jonesc/gangadir/workspace/jonesc/LocalXML/9426/output/RefInVerify-V2_BR-v37r7_Run-77977.root'
p5260
aS'/usera/jonesc/gangadir/workspace/jonesc/LocalXML/9427/output/RefInVerify-V2_BR-v37r7_Run-77979.root'
p5261
aS'/usera/jonesc/gangadir/workspace/jonesc/LocalXML/9428/output/RefInVerify-V2_BR-v37r7_Run-77980.root'
p5262
aS'/usera/jonesc/gangadir/workspace/jonesc/LocalXML/9429/output/RefInVerify-V2_BR-v37r7_Run-77981.root'
p5263
aS'/usera/jonesc/gangadir/workspace/jonesc/LocalXML/9430/output/RefInVerify-V2_BR-v37r7_Run-77982.root'
p5264
asg6
g277
sg12
g376
sg16
g281
sg4579
S'Beam3500GeV-VeloClosed-MagUp'
p5265
ssI1262
(dp5266
g4573
(lp5267
S'/usera/jonesc/gangadir/workspace/jonesc/LocalXML/9321/output/RefInVerify-V2_BR-v37r7_Run-77127.root'
p5268
aS'/usera/jonesc/gangadir/workspace/jonesc/LocalXML/9322/output/RefInVerify-V2_BR-v37r7_Run-77128.root'
p5269
aS'/usera/jonesc/gangadir/workspace/jonesc/LocalXML/9323/output/RefInVerify-V2_BR-v37r7_Run-77129.root'
p5270
aS'/usera/jonesc/gangadir/workspace/jonesc/LocalXML/9324/output/RefInVerify-V2_BR-v37r7_Run-77130.root'
p5271
aS'/usera/jonesc/gangadir/workspace/jonesc/LocalXML/9325/output/RefInVerify-V2_BR-v37r7_Run-77131.root'
p5272
aS'/usera/jonesc/gangadir/workspace/jonesc/LocalXML/9326/output/RefInVerify-V2_BR-v37r7_Run-77132.root'
p5273
aS'/usera/jonesc/gangadir/workspace/jonesc/LocalXML/9327/output/RefInVerify-V2_BR-v37r7_Run-77133.root'
p5274
aS'/usera/jonesc/gangadir/workspace/jonesc/LocalXML/9328/output/RefInVerify-V2_BR-v37r7_Run-77134.root'
p5275
aS'/usera/jonesc/gangadir/workspace/jonesc/LocalXML/9329/output/RefInVerify-V2_BR-v37r7_Run-77135.root'
p5276
aS'/usera/jonesc/gangadir/workspace/jonesc/LocalXML/9330/output/RefInVerify-V2_BR-v37r7_Run-77136.root'
p5277
aS'/usera/jonesc/gangadir/workspace/jonesc/LocalXML/9331/output/RefInVerify-V2_BR-v37r7_Run-77138.root'
p5278
aS'/usera/jonesc/gangadir/workspace/jonesc/LocalXML/9332/output/RefInVerify-V2_BR-v37r7_Run-77139.root'
p5279
asg6
g2909
sg12
g3000
sg16
g2913
sg4579
S'Beam3500GeV-VeloClosed-MagDown'
p5280
ssI1263
(dp5281
g4573
(lp5282
S'/usera/jonesc/gangadir/workspace/jonesc/LocalXML/9333/output/RefInVerify-V2_BR-v37r7_Run-77171.root'
p5283
aS'/usera/jonesc/gangadir/workspace/jonesc/LocalXML/9334/output/RefInVerify-V2_BR-v37r7_Run-77172.root'
p5284
aS'/usera/jonesc/gangadir/workspace/jonesc/LocalXML/9335/output/RefInVerify-V2_BR-v37r7_Run-77173.root'
p5285
aS'/usera/jonesc/gangadir/workspace/jonesc/LocalXML/9336/output/RefInVerify-V2_BR-v37r7_Run-77174.root'
p5286
aS'/usera/jonesc/gangadir/workspace/jonesc/LocalXML/9337/output/RefInVerify-V2_BR-v37r7_Run-77175.root'
p5287
aS'/usera/jonesc/gangadir/workspace/jonesc/LocalXML/9338/output/RefInVerify-V2_BR-v37r7_Run-77176.root'
p5288
aS'/usera/jonesc/gangadir/workspace/jonesc/LocalXML/9339/output/RefInVerify-V2_BR-v37r7_Run-77177.root'
p5289
aS'/usera/jonesc/gangadir/workspace/jonesc/LocalXML/9340/output/RefInVerify-V2_BR-v37r7_Run-77179.root'
p5290
aS'/usera/jonesc/gangadir/workspace/jonesc/LocalXML/9341/output/RefInVerify-V2_BR-v37r7_Run-77180.root'
p5291
aS'/usera/jonesc/gangadir/workspace/jonesc/LocalXML/9342/output/RefInVerify-V2_BR-v37r7_Run-77181.root'
p5292
aS'/usera/jonesc/gangadir/workspace/jonesc/LocalXML/9343/output/RefInVerify-V2_BR-v37r7_Run-77183.root'
p5293
asg6
g3021
sg12
g3104
sg16
g3025
sg4579
S'Beam3500GeV-VeloClosed-MagDown'
p5294
ssI1264
(dp5295
g4573
(lp5296
S'/usera/jonesc/gangadir/workspace/jonesc/LocalXML/9344/output/RefInVerify-V2_BR-v37r7_Run-77195.root'
p5297
aS'/usera/jonesc/gangadir/workspace/jonesc/LocalXML/9345/output/RefInVerify-V2_BR-v37r7_Run-77196.root'
p5298
asg6
g3109
sg12
g3120
sg16
g3113
sg4579
S'Beam3500GeV-VeloClosed-MagDown'
p5299
ssI1256
(dp5300
g4573
(lp5301
S'/usera/jonesc/gangadir/workspace/jonesc/LocalXML/9298/output/RefInVerify-V2_BR-v37r7_Run-76976.root'
p5302
aS'/usera/jonesc/gangadir/workspace/jonesc/LocalXML/9299/output/RefInVerify-V2_BR-v37r7_Run-76977.root'
p5303
aS'/usera/jonesc/gangadir/workspace/jonesc/LocalXML/9300/output/RefInVerify-V2_BR-v37r7_Run-76978.root'
p5304
aS'/usera/jonesc/gangadir/workspace/jonesc/LocalXML/9301/output/RefInVerify-V2_BR-v37r7_Run-76979.root'
p5305
asg6
g2685
sg12
g2712
sg16
g2689
sg4579
S'Beam3500GeV-VeloClosed-MagDown'
p5306
ssI1266
(dp5307
g4573
(lp5308
S'/usera/jonesc/gangadir/workspace/jonesc/LocalXML/9346/output/RefInVerify-V2_BR-v37r7_Run-77222.root'
p5309
asg6
g3165
sg12
g3168
sg16
g3169
sg4579
S'Beam3500GeV-VeloClosed-MagDown'
p5310
ssI1107
(dp5311
g4573
(lp5312
S'/usera/jonesc/gangadir/workspace/jonesc/LocalXML/9097/output/RefInVerify-V2_BR-v37r7_Run-71919.root'
p5313
aS'/usera/jonesc/gangadir/workspace/jonesc/LocalXML/9098/output/RefInVerify-V2_BR-v37r7_Run-71920.root'
p5314
aS'/usera/jonesc/gangadir/workspace/jonesc/LocalXML/9099/output/RefInVerify-V2_BR-v37r7_Run-71921.root'
p5315
aS'/usera/jonesc/gangadir/workspace/jonesc/LocalXML/9100/output/RefInVerify-V2_BR-v37r7_Run-71924.root'
p5316
aS'/usera/jonesc/gangadir/workspace/jonesc/LocalXML/9101/output/RefInVerify-V2_BR-v37r7_Run-71931.root'
p5317
asg6
g717
sg12
g816
sg16
g721
sg4579
S'Beam3500GeV-VeloClosed-MagUp'
p5318
ssI1268
(dp5319
g4573
(lp5320
S'/usera/jonesc/gangadir/workspace/jonesc/LocalXML/9357/output/RefInVerify-V2_BR-v37r7_Run-77263.root'
p5321
aS'/usera/jonesc/gangadir/workspace/jonesc/LocalXML/9358/output/RefInVerify-V2_BR-v37r7_Run-77264.root'
p5322
aS'/usera/jonesc/gangadir/workspace/jonesc/LocalXML/9359/output/RefInVerify-V2_BR-v37r7_Run-77265.root'
p5323
aS'/usera/jonesc/gangadir/workspace/jonesc/LocalXML/9360/output/RefInVerify-V2_BR-v37r7_Run-77266.root'
p5324
asg6
g3277
sg12
g3304
sg16
g3281
sg4579
S'Beam3500GeV-VeloClosed-MagDown'
p5325
ssI1013
(dp5326
g4573
(lp5327
S'/usera/jonesc/gangadir/workspace/jonesc/LocalXML/8947/output/RefInVerify-V2_BR-v37r7_Run-69353.root'
p5328
aS'/usera/jonesc/gangadir/workspace/jonesc/LocalXML/8948/output/RefInVerify-V2_BR-v37r7_Run-69354.root'
p5329
aS'/usera/jonesc/gangadir/workspace/jonesc/LocalXML/8949/output/RefInVerify-V2_BR-v37r7_Run-69355.root'
p5330
asg6
g1125
sg12
g3832
sg16
g1129
sg4579
S'Beam3500GeV-VeloClosed-MagDown'
p5331
ssI1023
(dp5332
g4573
(lp5333
S'/usera/jonesc/gangadir/workspace/jonesc/LocalXML/8958/output/RefInVerify-V2_BR-v37r7_Run-69645.root'
p5334
aS'/usera/jonesc/gangadir/workspace/jonesc/LocalXML/8959/output/RefInVerify-V2_BR-v37r7_Run-69647.root'
p5335
aS'/usera/jonesc/gangadir/workspace/jonesc/LocalXML/8960/output/RefInVerify-V2_BR-v37r7_Run-69648.root'
p5336
aS'/usera/jonesc/gangadir/workspace/jonesc/LocalXML/8961/output/RefInVerify-V2_BR-v37r7_Run-69649.root'
p5337
asg6
g10
sg12
g40
sg16
g17
sg4579
S'Beam3500GeV-VeloClosed-MagDown'
p5338
ssI1022
(dp5339
g4573
(lp5340
S'/usera/jonesc/gangadir/workspace/jonesc/LocalXML/8950/output/RefInVerify-V2_BR-v37r7_Run-69614.root'
p5341
aS'/usera/jonesc/gangadir/workspace/jonesc/LocalXML/8951/output/RefInVerify-V2_BR-v37r7_Run-69615.root'
p5342
aS'/usera/jonesc/gangadir/workspace/jonesc/LocalXML/8952/output/RefInVerify-V2_BR-v37r7_Run-69620.root'
p5343
aS'/usera/jonesc/gangadir/workspace/jonesc/LocalXML/8953/output/RefInVerify-V2_BR-v37r7_Run-69623.root'
p5344
aS'/usera/jonesc/gangadir/workspace/jonesc/LocalXML/8954/output/RefInVerify-V2_BR-v37r7_Run-69624.root'
p5345
aS'/usera/jonesc/gangadir/workspace/jonesc/LocalXML/8955/output/RefInVerify-V2_BR-v37r7_Run-69625.root'
p5346
aS'/usera/jonesc/gangadir/workspace/jonesc/LocalXML/8956/output/RefInVerify-V2_BR-v37r7_Run-69626.root'
p5347
aS'/usera/jonesc/gangadir/workspace/jonesc/LocalXML/8957/output/RefInVerify-V2_BR-v37r7_Run-69627.root'
p5348
asg6
g4509
sg12
g4568
sg16
g4513
sg4579
S'Beam3500GeV-VeloClosed-MagUp'
p5349
ssI1301
(dp5350
g4573
(lp5351
S'/usera/jonesc/gangadir/workspace/jonesc/LocalXML/9437/output/RefInVerify-V2_BR-v37r7_Run-78051.root'
p5352
aS'/usera/jonesc/gangadir/workspace/jonesc/LocalXML/9438/output/RefInVerify-V2_BR-v37r7_Run-78052.root'
p5353
aS'/usera/jonesc/gangadir/workspace/jonesc/LocalXML/9439/output/RefInVerify-V2_BR-v37r7_Run-78053.root'
p5354
aS'/usera/jonesc/gangadir/workspace/jonesc/LocalXML/9440/output/RefInVerify-V2_BR-v37r7_Run-78054.root'
p5355
aS'/usera/jonesc/gangadir/workspace/jonesc/LocalXML/9441/output/RefInVerify-V2_BR-v37r7_Run-78055.root'
p5356
aS'/usera/jonesc/gangadir/workspace/jonesc/LocalXML/9442/output/RefInVerify-V2_BR-v37r7_Run-78056.root'
p5357
aS'/usera/jonesc/gangadir/workspace/jonesc/LocalXML/9443/output/RefInVerify-V2_BR-v37r7_Run-78057.root'
p5358
aS'/usera/jonesc/gangadir/workspace/jonesc/LocalXML/9444/output/RefInVerify-V2_BR-v37r7_Run-78059.root'
p5359
aS'/usera/jonesc/gangadir/workspace/jonesc/LocalXML/9445/output/RefInVerify-V2_BR-v37r7_Run-78060.root'
p5360
aS'/usera/jonesc/gangadir/workspace/jonesc/LocalXML/9446/output/RefInVerify-V2_BR-v37r7_Run-78061.root'
p5361
aS'/usera/jonesc/gangadir/workspace/jonesc/LocalXML/9447/output/RefInVerify-V2_BR-v37r7_Run-78062.root'
p5362
aS'/usera/jonesc/gangadir/workspace/jonesc/LocalXML/9448/output/RefInVerify-V2_BR-v37r7_Run-78063.root'
p5363
aS'/usera/jonesc/gangadir/workspace/jonesc/LocalXML/9449/output/RefInVerify-V2_BR-v37r7_Run-78064.root'
p5364
aS'/usera/jonesc/gangadir/workspace/jonesc/LocalXML/9450/output/RefInVerify-V2_BR-v37r7_Run-78065.root'
p5365
aS'/usera/jonesc/gangadir/workspace/jonesc/LocalXML/9451/output/RefInVerify-V2_BR-v37r7_Run-78066.root'
p5366
aS'/usera/jonesc/gangadir/workspace/jonesc/LocalXML/9452/output/RefInVerify-V2_BR-v37r7_Run-78067.root'
p5367
aS'/usera/jonesc/gangadir/workspace/jonesc/LocalXML/9453/output/RefInVerify-V2_BR-v37r7_Run-78068.root'
p5368
aS'/usera/jonesc/gangadir/workspace/jonesc/LocalXML/9454/output/RefInVerify-V2_BR-v37r7_Run-78069.root'
p5369
aS'/usera/jonesc/gangadir/workspace/jonesc/LocalXML/9455/output/RefInVerify-V2_BR-v37r7_Run-78070.root'
p5370
aS'/usera/jonesc/gangadir/workspace/jonesc/LocalXML/9456/output/RefInVerify-V2_BR-v37r7_Run-78071.root'
p5371
aS'/usera/jonesc/gangadir/workspace/jonesc/LocalXML/9457/output/RefInVerify-V2_BR-v37r7_Run-78072.root'
p5372
aS'/usera/jonesc/gangadir/workspace/jonesc/LocalXML/9458/output/RefInVerify-V2_BR-v37r7_Run-78073.root'
p5373
aS'/usera/jonesc/gangadir/workspace/jonesc/LocalXML/9459/output/RefInVerify-V2_BR-v37r7_Run-78074.root'
p5374
aS'/usera/jonesc/gangadir/workspace/jonesc/LocalXML/9460/output/RefInVerify-V2_BR-v37r7_Run-78075.root'
p5375
aS'/usera/jonesc/gangadir/workspace/jonesc/LocalXML/9461/output/RefInVerify-V2_BR-v37r7_Run-78076.root'
p5376
asg6
g621
sg12
g824
sg16
g625
sg4579
S'Beam3500GeV-VeloClosed-MagUp'
p5377
sssS'GlobalStopTime'
p5378
g1488
ssS'25ba69c761ee6c70e09767a1f1298d60'
p5379
(dp5380
S'RunData'
p5381
(dp5382
I78320
(dp5383
S'Start'
p5384
g7
(S'\x07\xda\x08\x1d\x15"9\x00\x00\x00'
p5385
tp5386
Rp5387
sS'Stop'
p5388
g7
(S'\x07\xda\x08\x1d\x16#\r\x00\x00\x00'
p5389
tp5390
Rp5391
sS'FieldPolarity'
p5392
S'MagDown'
p5393
sS'Fill'
p5394
I1309
ssI78321
(dp5395
g5384
g7
(S'\x07\xda\x08\x1d\x16#\x0e\x00\x00\x00'
p5396
tp5397
Rp5398
sg5388
g7
(S'\x07\xda\x08\x1d\x17#\x1f\x00\x00\x00'
p5399
tp5400
Rp5401
sg5392
S'MagDown'
p5402
sg5394
I1309
ssI78322
(dp5403
g5384
g7
(S'\x07\xda\x08\x1d\x17# \x00\x00\x00'
p5404
tp5405
Rp5406
sg5388
g7
(S'\x07\xda\x08\x1e\x00#\x16\x00\x00\x00'
p5407
tp5408
Rp5409
sg5392
S'MagDown'
p5410
sg5394
I1309
ssI78323
(dp5411
g5384
g7
(S'\x07\xda\x08\x1e\x00#\x16\x00\x00\x00'
p5412
tp5413
Rp5414
sg5388
g7
(S"\x07\xda\x08\x1e\x00'*\x00\x00\x00"
p5415
tp5416
Rp5417
sg5392
S'MagDown'
p5418
sg5394
I1309
ssI78324
(dp5419
g5384
g7
(S"\x07\xda\x08\x1e\x00'*\x00\x00\x00"
p5420
tp5421
Rp5422
sg5388
g7
(S'\x07\xda\x08\x1e\x01(\x02\x00\x00\x00'
p5423
tp5424
Rp5425
sg5392
S'MagDown'
p5426
sg5394
I1309
ssI78325
(dp5427
g5384
g7
(S'\x07\xda\x08\x1e\x01(\x03\x00\x00\x00'
p5428
tp5429
Rp5430
sg5388
g7
(S'\x07\xda\x08\x1e\x018\t\x00\x00\x00'
p5431
tp5432
Rp5433
sg5392
S'MagDown'
p5434
sg5394
I1309
ssI78327
(dp5435
g5384
g7
(S"\x07\xda\x08\x1e\x019'\x00\x00\x00"
p5436
tp5437
Rp5438
sg5388
g7
(S'\x07\xda\x08\x1e\x0294\x00\x00\x00'
p5439
tp5440
Rp5441
sg5392
S'MagDown'
p5442
sg5394
I1309
ssI78328
(dp5443
g5384
g7
(S'\x07\xda\x08\x1e\x0295\x00\x00\x00'
p5444
tp5445
Rp5446
sg5388
g7
(S'\x07\xda\x08\x1e\x03:\x0b\x00\x00\x00'
p5447
tp5448
Rp5449
sg5392
S'MagDown'
p5450
sg5394
I1309
ssI78329
(dp5451
g5384
g7
(S'\x07\xda\x08\x1e\x03:\x0c\x00\x00\x00'
p5452
tp5453
Rp5454
sg5388
g7
(S'\x07\xda\x08\x1e\x04: \x00\x00\x00'
p5455
tp5456
Rp5457
sg5392
S'MagDown'
p5458
sg5394
I1309
ssI78330
(dp5459
g5384
g7
(S'\x07\xda\x08\x1e\x04: \x00\x00\x00'
p5460
tp5461
Rp5462
sg5388
g7
(S'\x07\xda\x08\x1e\x05.\x1d\x00\x00\x00'
p5463
tp5464
Rp5465
sg5392
S'MagDown'
p5466
sg5394
I1309
sssS'FillData'
p5467
(dp5468
I1309
(dp5469
S'Files'
p5470
(lp5471
S'/usera/jonesc/gangadir/workspace/jonesc/LocalXML/9504/output/RefInVerify-V2_BR-v37r7_Run-78320.root'
p5472
aS'/usera/jonesc/gangadir/workspace/jonesc/LocalXML/9505/output/RefInVerify-V2_BR-v37r7_Run-78321.root'
p5473
aS'/usera/jonesc/gangadir/workspace/jonesc/LocalXML/9506/output/RefInVerify-V2_BR-v37r7_Run-78322.root'
p5474
aS'/usera/jonesc/gangadir/workspace/jonesc/LocalXML/9507/output/RefInVerify-V2_BR-v37r7_Run-78323.root'
p5475
aS'/usera/jonesc/gangadir/workspace/jonesc/LocalXML/9508/output/RefInVerify-V2_BR-v37r7_Run-78324.root'
p5476
aS'/usera/jonesc/gangadir/workspace/jonesc/LocalXML/9509/output/RefInVerify-V2_BR-v37r7_Run-78325.root'
p5477
aS'/usera/jonesc/gangadir/workspace/jonesc/LocalXML/9510/output/RefInVerify-V2_BR-v37r7_Run-78327.root'
p5478
aS'/usera/jonesc/gangadir/workspace/jonesc/LocalXML/9511/output/RefInVerify-V2_BR-v37r7_Run-78328.root'
p5479
aS'/usera/jonesc/gangadir/workspace/jonesc/LocalXML/9512/output/RefInVerify-V2_BR-v37r7_Run-78329.root'
p5480
aS'/usera/jonesc/gangadir/workspace/jonesc/LocalXML/9513/output/RefInVerify-V2_BR-v37r7_Run-78330.root'
p5481
asg5384
g5387
sS'DataTakingDescription'
p5482
S'Beam3500GeV-VeloClosed-MagDown'
p5483
sg5388
g5465
sg5392
g5393
sssS'GlobalStopTime'
p5484
g5465
ss.