(i__main__
LogFile
p0
(dp1
S'_installed_files'
p2
(dp3
S'../../Phys/LoKiDAQ/v1r0/LoKi'
p4
(dp5
S'../../../Phys/LoKiDAQ/v1r0/LoKi/IDAQFactory.h'
p6
S'../../../../InstallArea/include/LoKi/IDAQFactory.h'
p7
sS'../../../Phys/LoKiDAQ/v1r0/LoKi/HDR.h'
p8
S'../../../../InstallArea/include/LoKi/HDR.h'
p9
sS'../../../Phys/LoKiDAQ/v1r0/LoKi/DAQEngine.h'
p10
S'../../../../InstallArea/include/LoKi/DAQEngine.h'
p11
sS'../../../Phys/LoKiDAQ/v1r0/LoKi/O1.h'
p12
S'../../../../InstallArea/include/LoKi/O1.h'
p13
sS'../../../Phys/LoKiDAQ/v1r0/LoKi/L0.h'
p14
S'../../../../InstallArea/include/LoKi/L0.h'
p15
sS'../../../Phys/LoKiDAQ/v1r0/LoKi/DAQLock.h'
p16
S'../../../../InstallArea/include/LoKi/DAQLock.h'
p17
sS'../../../Phys/LoKiDAQ/v1r0/LoKi/O1Cuts.h'
p18
S'../../../../InstallArea/include/LoKi/O1Cuts.h'
p19
sS'../../../Phys/LoKiDAQ/v1r0/LoKi/IDAQAntiFactory.h'
p20
S'../../../../InstallArea/include/LoKi/IDAQAntiFactory.h'
p21
sS'../../../Phys/LoKiDAQ/v1r0/LoKi/DAQEngineActor.h'
p22
S'../../../../InstallArea/include/LoKi/DAQEngineActor.h'
p23
sS'../../../Phys/LoKiDAQ/v1r0/LoKi/LoKiDAQ.h'
p24
S'../../../../InstallArea/include/LoKi/LoKiDAQ.h'
p25
sS'../../../Phys/LoKiDAQ/v1r0/LoKi/L0Cuts.h'
p26
S'../../../../InstallArea/include/LoKi/L0Cuts.h'
p27
sS'../../../Phys/LoKiDAQ/v1r0/LoKi/DAQTypes.h'
p28
S'../../../../InstallArea/include/LoKi/DAQTypes.h'
p29
ssS'../../Phys/LoKiHlt/v1r0/genConf/LoKiHlt'
p30
(dp31
S'../../../Phys/LoKiHlt/v1r0/genConf/LoKiHlt/LoKiHltConf.py'
p32
S'../../../../InstallArea/python/LoKiHlt/LoKiHltConf.py'
p33
sS'../../../Phys/LoKiHlt/v1r0/genConf/LoKiHlt/LoKiHlt_confDb.py'
p34
S'../../../../InstallArea/python/LoKiHlt/LoKiHlt_confDb.py'
p35
ssS'../../../Phys/LoKiHlt/v1r0/slc4_amd64_gcc34_dbg/libLoKiHltLib.so'
p36
S'../../../../InstallArea/slc4_amd64_gcc34_dbg/lib/libLoKiHltLib.so'
p37
sS'../../Phys/LoKiDAQ/v1r0/genConf/LoKiDAQ'
p38
(dp39
S'../../../Phys/LoKiDAQ/v1r0/genConf/LoKiDAQ/LoKiDAQ_confDb.py'
p40
S'../../../../InstallArea/python/LoKiDAQ/LoKiDAQ_confDb.py'
p41
sS'../../../Phys/LoKiDAQ/v1r0/genConf/LoKiDAQ/LoKiDAQConf.py'
p42
S'../../../../InstallArea/python/LoKiDAQ/LoKiDAQConf.py'
p43
ssS'../../../Phys/LoKiDAQ/v1r0/slc4_amd64_gcc34_dbg/libLoKiDAQDict.so'
p44
S'../../../../InstallArea/slc4_amd64_gcc34_dbg/lib/libLoKiDAQDict.so'
p45
sS'../../../Phys/LoKiDAQ/v1r0/slc4_amd64_gcc34_dbg/libLoKiDAQ.so'
p46
S'../../../../InstallArea/slc4_amd64_gcc34_dbg/lib/libLoKiDAQ.so'
p47
sS'../Phys/LoKiDAQ/v1r0/python'
p48
(dp49
S'../../../Phys/LoKiDAQ/v1r0/python/LoKiDAQ/decorators.py'
p50
S'../../../../InstallArea/python/LoKiDAQ/decorators.py'
p51
sS'../../../Phys/LoKiDAQ/v1r0/python/LoKiDAQ/__init__.py'
p52
S'../../../../InstallArea/python/LoKiDAQ/__init__.py'
p53
sS'../../../Phys/LoKiDAQ/v1r0/python/LoKiDAQ/functions.py'
p54
S'../../../../InstallArea/python/LoKiDAQ/functions.py'
p55
ssS'../../../Phys/LoKiHlt/v1r0/slc4_amd64_gcc34_dbg/libLoKiHltDict.so'
p56
S'../../../../InstallArea/slc4_amd64_gcc34_dbg/lib/libLoKiHltDict.so'
p57
sS'../Phys/LoKiHlt/v1r0/python'
p58
(dp59
S'../../../Phys/LoKiHlt/v1r0/python/LoKiHlt/functions.py'
p60
S'../../../../InstallArea/python/LoKiHlt/functions.py'
p61
sS'../../../Phys/LoKiHlt/v1r0/python/LoKiHlt/decorators.py'
p62
S'../../../../InstallArea/python/LoKiHlt/decorators.py'
p63
sS'../../../Phys/LoKiHlt/v1r0/python/LoKiHlt/__init__.py'
p64
S'../../../../InstallArea/python/LoKiHlt/__init__.py'
p65
ssS'../../Phys/LoKiHlt/v1r0/LoKi'
p66
(dp67
S'../../../Phys/LoKiHlt/v1r0/LoKi/L0Cuts.h'
p68
S'../../../../InstallArea/include/LoKi/L0Cuts.h'
p69
sS'../../../Phys/LoKiHlt/v1r0/LoKi/HLT.h'
p70
S'../../../../InstallArea/include/LoKi/HLT.h'
p71
sS'../../../Phys/LoKiHlt/v1r0/LoKi/IHltFactory.h'
p72
S'../../../../InstallArea/include/LoKi/IHltFactory.h'
p73
sS'../../../Phys/LoKiHlt/v1r0/LoKi/O1Cuts.h'
p74
S'../../../../InstallArea/include/LoKi/O1Cuts.h'
p75
sS'../../../Phys/LoKiHlt/v1r0/LoKi/LoKiHlt.h'
p76
S'../../../../InstallArea/include/LoKi/LoKiHlt.h'
p77
sS'../../../Phys/LoKiHlt/v1r0/LoKi/HLTCuts.h'
p78
S'../../../../InstallArea/include/LoKi/HLTCuts.h'
p79
sS'../../../Phys/LoKiHlt/v1r0/LoKi/DAQTypes.h'
p80
S'../../../../InstallArea/include/LoKi/DAQTypes.h'
p81
sS'../../../Phys/LoKiHlt/v1r0/LoKi/HltLock.h'
p82
S'../../../../InstallArea/include/LoKi/HltLock.h'
p83
sS'../../../Phys/LoKiHlt/v1r0/LoKi/HltEngineActor.h'
p84
S'../../../../InstallArea/include/LoKi/HltEngineActor.h'
p85
sS'../../../Phys/LoKiHlt/v1r0/LoKi/O1.h'
p86
S'../../../../InstallArea/include/LoKi/O1.h'
p87
sS'../../../Phys/LoKiHlt/v1r0/LoKi/L0Types.h'
p88
S'../../../../InstallArea/include/LoKi/L0Types.h'
p89
sS'../../../Phys/LoKiHlt/v1r0/LoKi/HLTTypes.h'
p90
S'../../../../InstallArea/include/LoKi/HLTTypes.h'
p91
sS'../../../Phys/LoKiHlt/v1r0/LoKi/L0.h'
p92
S'../../../../InstallArea/include/LoKi/L0.h'
p93
sS'../../../Phys/LoKiHlt/v1r0/LoKi/HltEngine.h'
p94
S'../../../../InstallArea/include/LoKi/HltEngine.h'
p95
sS'../../../Phys/LoKiHlt/v1r0/LoKi/IHltAntiFactory.h'
p96
S'../../../../InstallArea/include/LoKi/IHltAntiFactory.h'
p97
ssS'../../../Phys/LoKiHlt/v1r0/slc4_amd64_gcc34_dbg/libLoKiHlt.so'
p98
S'../../../../InstallArea/slc4_amd64_gcc34_dbg/lib/libLoKiHlt.so'
p99
sS'../../../../../../../../../sw/Gaudi/releases/GAUDI/GAUDI_v20r2/GaudiPolicy/v8r5/cmt/fragments/__init__.py'
p100
S'../../../../InstallArea/python/LoKiHlt/__init__.py'
p101
sS'../../../Phys/LoKiDAQ/v1r0/slc4_amd64_gcc34_dbg/libLoKiDAQLib.so'
p102
S'../../../../InstallArea/slc4_amd64_gcc34_dbg/lib/libLoKiDAQLib.so'
p103
ssb.