(lp1
F0
aF0.56094372606762677
aF0.7748555093433106
aF0.95310767752176617
aF1.1906079835411554
aF1.4135063615181933
aF1.5469706087575439
aF1.717637715444549
aF1.9078084450312611
aF2.078830865302939
aF2.3673694393209286
aF2.5652916154906422
aF2.719176314163422
aF2.9143350583182777
aF3.0556867288035465
aF3.3314071492430846
aF3.5309373944964433
aF3.7198259542235506
aF3.9746173222307726
aF4.1716075147757152
aF4.3331714146492013
aF4.5010791980770231
aF4.7010753304750965
aF4.8936058791922381
aF5.1037597147293932
aF5.2592473096915198
aF5.4933808099586612
aF5.6277238343814533
aF5.8620859412865522
aF6.1059450539869653
aF6.3120134479962893
aF6.5830830775944706
aF6.8200926493441481
aF7.0702834736372564
aF7.3483462204604635
aF7.6264067744909951
aF7.8372782469612465
aF8.0617780685477705
aF8.3995622657866384
aF8.7403882283600378
aF9.0992605207420993
aF9.3705162889778926
aF9.75889880418889
aF10.194686638374007
aF10.438514323942188
aF10.726873592781514
aF11.069318434988878
aF11.396569108340843
aF11.801419844938572
aF12.128206841266881
aF12.485948104637052
aF12.756299870388832
aF13.076944452763826
aF13.458692068837927
aF13.824717813822369
aF14.316393196413889
aF14.621905587891465
aF14.888480073624264
aF15.335930506891625
aF15.609627342322275
aF16.191900883034002
aF16.54381609680534
aF17.147813194052553
aF17.468929751742763
aF17.940480341162086
aF18.345046931400908
aF18.601290104964175
aF19.011371018239437
aF19.335036342308854
aF19.740516156682062
aF20.13447317647455
aF20.462447938558235
aF21.091090849462493
aF21.556877958704259
aF21.823267014913611
aF22.208749180717806
aF22.786099855049944
aF23.371401551338806
aF23.73315353587088
aF24.31738397233147
aF24.625223648727555
aF25.069412618036147
aF25.928099135972015
aF26.497110723217201
aF27.085968731165757
aF27.631123699960334
aF28.187584878982072
aF28.991619387322526
aF29.353231676085986
aF30.083376143103514
aF30.880607280324416
aF31.435216510900492
aF32.392330109783813
aF32.921554836523583
aF33.514110805447565
aF34.303809151243847
aF35.456294459561711
aF36.280791683627093
aF36.940252784295062
aF37.717899566227963
aF38.457688239199655
aF39.596732893642503
aF40.36400419560065
aF40.945135884536548
aF41.797758649637814
aF42.487275414278201
aF43.921777494122409
aF44.874273975496472
aF45.67446232320151
aF46.727212320012811
aF47.45119952715492
aF48.639858771576726
aF49.370473491276989
aF50.528638968567975
aF51.389834372987714
aF52.582079342007546
aF53.589199085657242
aF54.585243505081834
aF55.622223351244195
aF56.936556831025484
aF58.385520290381457
aF59.451232373507203
aF60.588566421499443
aF62.401492617291595
aF63.88804064081846
aF65.599157033995837
aF67.204436723739235
aF69.4912133287594
aF71.622345320740351
aF73.103725049112015
aF75.089813374922841
aF76.884823802108912
aF78.275061550352873
aF80.357326438684495
aF83.305006897820235
aF85.400732831032357
aF87.218868459052473
aF89.130072489534143
aF91.252783666141042
aF92.815637585979999
aF95.739391170148252
aF98.435092605981637
aF100.31960869294872
aF102.50286766025864
aF105.48705400852423
aF108.82295714914468
aF111.39204546177986
aF114.62248349802513
aF117.87687880992867
aF119.40484241859349
aF122.7734081083525
aF125.26971884287919
aF128.55177396728385
aF131.66269963489299
aF136.57359107720188
aF140.51816667169177
aF144.16804544736863
aF150.35987039520109
aF154.72466658210519
aF160.54109480247283
aF164.18861964598716
aF170.24309324015738
aF175.29889321042558
aF183.11630724838597
aF189.01683118972002
aF196.90975774880297
aF204.49263459337524
aF213.04893801936598
aF219.75869942751646
aF228.19907555440614
aF239.44926809073948
aF248.20168822805923
aF259.25320106736922
aF265.44318466962994
aF277.32312416782054
aF288.56952434288797
aF298.64263419554209
aF315.25981209742378
aF331.89024853535398
aF342.74298087821637
aF360.77964203727674
aF378.48547030119011
aF392.5550051422876
aF405.31614074355014
aF421.74150173342304
aF441.4412304371254
aF457.82211257306926
aF480.45566322885566
aF513.45774433642032
aF555.4000490334372
aF605.92811073979146
aF652.49495125201292
aF704.61385101258315
aF786.33845891481292
aF874.04643470496728
aF1012.3600088462719
aF1159.4774300577808
aF1379.2669821003758
aF1756.1106436012778
aF2357.4547208831491
aF217148.93534056327
aF0
aF0.46532971898727915
aF0.68496949409616426
aF0.94645340397600952
aF1.102736193185504
aF1.312453009792369
aF1.4867727436472011
aF1.6340240974064906
aF1.8260512349059785
aF1.9700706984768943
aF2.1040893787044128
aF2.2333135236192967
aF2.3880111121966587
aF2.5520785579949155
aF2.6739841145948597
aF2.8075636832160806
aF2.9039966303754365
aF3.0345967971695451
aF3.2102417439344437
aF3.3137856992787351
aF3.4376002808848787
aF3.5571277890563819
aF3.6898499180667237
aF3.799063723671626
aF3.94997555574531
aF4.0925736583580976
aF4.2086028832412561
aF4.3390635740171728
aF4.4761244808887941
aF4.6023420572801266
aF4.7263227277876512
aF4.8591547764014482
aF5.0957595508246589
aF5.30514679884981
aF5.4401600222425195
aF5.5717535777959721
aF5.7003644346866409
aF5.8768488839999593
aF5.991691304228997
aF6.1771150398732244
aF6.3465048845874961
aF6.4948860632013519
aF6.6772230060948159
aF6.8030943590107249
aF6.9813191429783039
aF7.165284199966873
aF7.3873559281058423
aF7.5948269266966975
aF7.801592658633016
aF7.9955249125214145
aF8.1905643672046686
aF8.3270830680818655
aF8.5054910750061179
aF8.7225666260180663
aF8.9368113184240965
aF9.1376808053645888
aF9.3633428615533649
aF9.5990825604962264
aF9.7364383724201087
aF9.9186955590691088
aF10.124746714296
aF10.40687565362729
aF10.737648017833138
aF11.012188237958963
aF11.214102933586581
aF11.45440355061357
aF11.736264046084917
aF12.026226014607102
aF12.245762888886343
aF12.541549269023777
aF12.756641375192153
aF12.98360561266394
aF13.288306417225625
aF13.526164571303489
aF13.75503655409527
aF14.117128492708087
aF14.374029807073448
aF14.712173108685258
aF14.981897180990096
aF15.344366904559326
aF15.600391910392348
aF16.020999494977502
aF16.300440442407332
aF16.606309936976054
aF16.902143272482817
aF17.159816580240875
aF17.461774805635738
aF17.781122815339479
aF18.119654210560597
aF18.48063214553467
aF18.820102897217541
aF19.161710076244763
aF19.479832189525602
aF19.848403979835609
aF20.122299299121863
aF20.43004460334555
aF20.753188532047265
aF21.116860477662346
aF21.534773567291243
aF22.137744141529421
aF22.45219966811996
aF22.843712755485114
aF23.327127510714419
aF23.801219885543535
aF24.400068243422009
aF24.859199781454677
aF25.249212813218318
aF25.681597611963909
aF26.218124149559316
aF26.865624109857663
aF27.476273115575268
aF28.003316090112232
aF28.465744086402083
aF29.114406317582951
aF29.863184721251695
aF30.645923853117178
aF31.411221663197541
aF32.083675244596449
aF32.623907125336849
aF33.542071438820663
aF34.423855107765
aF35.090015994189059
aF35.83529395578082
aF36.739635743840758
aF37.456669272617518
aF38.267335328548761
aF39.333029993613607
aF40.288484522728531
aF41.508400903755643
aF42.819861162087363
aF43.639905039190687
aF44.572666361081048
aF45.821482473822918
aF46.862153416881057
aF48.147392790601714
aF49.404082667631819
aF50.527705863342902
aF52.004399737632923
aF53.494784474459131
aF54.714589396642559
aF55.67232429415796
aF56.793224205114853
aF58.007050364060461
aF59.680200263089169
aF61.232876696778597
aF62.427428818562269
aF63.973042504689445
aF65.632536988952083
aF67.347413597855891
aF69.065640807296859
aF70.464693299553076
aF72.418849794356461
aF74.105138155507049
aF75.662376323980538
aF77.872835649845626
aF79.967351057764517
aF81.928379445805646
aF84.034972341121062
aF86.103344705230924
aF88.477411000229537
aF90.312287755291578
aF92.507210044700187
aF95.060608477240947
aF97.679889639836844
aF100.54820722011901
aF104.05860073649033
aF106.9975903165883
aF110.72495391129446
aF114.47278880860986
aF118.67332903577829
aF122.47362728985475
aF127.29751063199502
aF131.9947396665213
aF137.58105901899614
aF143.2436551636288
aF148.62549462778085
aF155.59863941964065
aF162.63324375828105
aF168.58328521973854
aF176.47623591935073
aF187.10110318413911
aF194.1945607895322
aF205.76585363429373
aF218.54795010442368
aF224.54362476449748
aF231.28500418937108
aF243.28574251055934
aF254.11346183370961
aF270.37086108698531
aF283.71979921314824
aF298.26484833307381
aF309.41788972573079
aF335.8183191815636
aF361.8565261478937
aF398.47210782079094
aF453.94084657359673
aF537.44153147414909
aF644.04067764548461
aF779.41712961885173
aF1047.3517440661496
aF32924.039482636828
aF0
aF0.44937757329633327
aF0.61250349172115959
aF0.7863111534649565
aF0.88962062078461757
aF1.0382238515645796
aF1.1737343879099387
aF1.3675367911897895
aF1.4812885968395111
aF1.6632187662691276
aF1.8341758133782387
aF1.9619748247014435
aF2.0552125983628433
aF2.1703209170187905
aF2.2961317300880717
aF2.3982858575534443
aF2.4969661855862513
aF2.6039206933082872
aF2.7154863269399461
aF2.7935806808717341
aF2.9157144052335742
aF3.0304254455360686
aF3.1804609723019346
aF3.2662231643163544
aF3.3535831040758928
aF3.4593860912217078
aF3.5730577882484265
aF3.6829046499090672
aF3.7926322745010292
aF3.918389650507887
aF4.0461615056476345
aF4.1688075178063455
aF4.261935760927039
aF4.3872821403468514
aF4.4849226816074195
aF4.5815647915521316
aF4.7329622842326859
aF4.8333438381787959
aF4.9751149870072844
aF5.1439939747359258
aF5.2679283122041474
aF5.3979939515818964
aF5.4986148492629514
aF5.5833034840702549
aF5.7762491544651375
aF5.8901795208691912
aF6.0406044947405793
aF6.1414968907338547
aF6.3109595855296661
aF6.4702277997994733
aF6.6084310395612746
aF6.7478047002924155
aF6.8791042308295953
aF6.9969768325569115
aF7.1196791826285173
aF7.2490813954518822
aF7.4130615395895152
aF7.6062113466901806
aF7.7506437587572199
aF7.8830685300393055
aF8.0353926744476123
aF8.1996939525956183
aF8.4142220833085606
aF8.5808330010701201
aF8.7445310419872921
aF8.9841822249357115
aF9.181432418740652
aF9.3539737653904709
aF9.5793187725543287
aF9.7462277892814431
aF9.9098280489576762
aF10.04079373626851
aF10.211734359829405
aF10.501564944142677
aF10.710373784142686
aF10.886736785556671
aF11.066921822136326
aF11.235485714770356
aF11.437646009474888
aF11.67346914949365
aF11.83325542414009
aF12.036493633448316
aF12.32938637637468
aF12.554138183666348
aF12.743210513050011
aF12.983810120622046
aF13.174204038774839
aF13.3680862872507
aF13.620942224242304
aF13.890272176459577
aF14.165385082423146
aF14.413231848006964
aF14.724376594252243
aF14.977328826245193
aF15.231234613500565
aF15.55914351677969
aF15.781820608210545
aF16.091194364415028
aF16.347431974296502
aF16.596030336748036
aF16.887891775703359
aF17.178071227425107
aF17.48876537215957
aF17.802979490086393
aF18.167601675413529
aF18.451234059983907
aF18.773722324177371
aF19.095678793499459
aF19.393224208627331
aF19.892470444495725
aF20.360431028492791
aF20.714816695587093
aF21.109538106861837
aF21.528542624887123
aF21.903763658847744
aF22.32752745556132
aF22.932277869765915
aF23.443859045149278
aF24.010482595441839
aF24.454443667170533
aF24.893590041546005
aF25.519805040678591
aF25.948341902144293
aF26.521018356962905
aF27.203480036460771
aF27.923098995772133
aF28.875462789782972
aF29.551018023069748
aF29.950704440314354
aF30.476114881076313
aF31.046996042296136
aF31.828920785208862
aF32.724644642398538
aF33.519807747032317
aF34.207784670738299
aF34.978220277672911
aF35.82880248810423
aF36.674526307149222
aF37.539567643195326
aF38.598050079089823
aF39.461587691403167
aF40.326650088153748
aF41.3817881768775
aF42.413485151973958
aF43.434107971290473
aF44.327692773369833
aF45.281573404128643
aF46.623500435435595
aF47.845340004545946
aF48.925490779005997
aF50.099817716244445
aF51.130922527278209
aF52.52201636244277
aF54.171384212197573
aF56.251402930866988
aF57.343667697555219
aF59.060037223666868
aF60.886212298901022
aF62.282534857812919
aF63.86965941245365
aF65.907528655065505
aF68.060546344496487
aF69.886943517625568
aF72.15339782090426
aF74.790861312079699
aF76.921991723046403
aF79.835163669975174
aF82.098620972009513
aF84.019415664127024
aF87.941587866072609
aF90.308304219949349
aF93.475153751625228
aF96.866828921040394
aF99.559133387387135
aF103.13311038199714
aF107.13838078377783
aF111.61641909521742
aF116.39540365181381
aF122.02402340139254
aF126.12078269274167
aF131.70138789081315
aF136.7872837632539
aF142.28439193970823
aF147.89576596130524
aF152.23255441740992
aF157.7226413282819
aF164.37241204310453
aF173.15971613514671
aF180.11295998936518
aF188.48112308463158
aF202.36800846564165
aF217.16809097558243
aF229.45603073021095
aF243.95331007710857
aF267.19713077328231
aF291.31657906696654
aF319.83880240534251
aF369.84715199786609
aF456.83736037240828
aF563.36551513987104
aF1212.4845181047338
aF0
aF0.39299523597374442
aF0.57756602839919102
aF0.74933717643467546
aF0.84798806113800529
aF0.98808387915300122
aF1.0731681865898071
aF1.1904878246948769
aF1.3296105353290197
aF1.4470486564441511
aF1.6132307202687894
aF1.7334018816456787
aF1.8405138120116515
aF1.9401180825384614
aF2.0206956222611518
aF2.088323294417457
aF2.1965858893088366
aF2.2678507808547295
aF2.3513510591465976
aF2.452940588067142
aF2.5244403869314138
aF2.6111507000688201
aF2.686185953440015
aF2.7762991589505912
aF2.8623591840837115
aF2.9644501753879853
aF3.0534304377734371
aF3.1183306038752914
aF3.2022029138736583
aF3.3578682900076662
aF3.4578586494674859
aF3.5567846506796079
aF3.6352803762683252
aF3.7653628446367353
aF3.8440117447262629
aF3.9584732534380351
aF4.0302646502503574
aF4.1218781156084869
aF4.211981828454741
aF4.3396760587886405
aF4.4201415569911395
aF4.5235887459809963
aF4.6307469822655509
aF4.7731054586827728
aF4.8838280863806549
aF4.9937362132930252
aF5.1605178704372632
aF5.2560966186259481
aF5.3556600842824587
aF5.4678635206702646
aF5.5973168757166114
aF5.7048755075035276
aF5.8878433771286218
aF6.0190112054897522
aF6.118844708522011
aF6.2719026695437989
aF6.3725565545753042
aF6.4738742707717662
aF6.5961657370971558
aF6.6863432232288851
aF6.8285306029142401
aF6.9529888304791623
aF7.0345923470005971
aF7.153050087371815
aF7.23828648460319
aF7.3488613350575518
aF7.5297259666276082
aF7.665228962415263
aF7.814513809818397
aF7.9676729944874758
aF8.0965767962005515
aF8.258619388928004
aF8.4038000906770929
aF8.5498166593706451
aF8.6979091856223683
aF8.8099783579444786
aF8.9513067459030502
aF9.1237502030553657
aF9.3482831702262139
aF9.5044967504159725
aF9.6593366065001636
aF9.82253449013227
aF9.9874115529723486
aF10.137506876476476
aF10.289126599046901
aF10.444223952502876
aF10.599915162622709
aF10.734363441288647
aF10.917595405084366
aF11.108460594133211
aF11.352160340302392
aF11.607842306499339
aF11.798599260283471
aF12.009365871239995
aF12.251934875461144
aF12.49314138461267
aF12.815528078713546
aF13.078160801731713
aF13.367979668775682
aF13.61963788461563
aF13.830407348960653
aF14.134759793056256
aF14.406222062237235
aF14.719108048702839
aF15.039806819372597
aF15.357959034733886
aF15.742708764682598
aF16.038031868942646
aF16.342061974077719
aF16.619014591659234
aF16.995469066261826
aF17.440245060531616
aF17.749017033014272
aF18.105417999557947
aF18.521262453800805
aF18.847635914656443
aF19.422978973137425
aF19.69919609219999
aF20.085099945021412
aF20.537864119839881
aF21.008059900732494
aF21.532289222273434
aF22.054776673981362
aF22.335014932602295
aF22.916014727566228
aF23.337139989662067
aF23.720719036927843
aF24.388060450004911
aF24.84313177402456
aF25.486862832547693
aF26.168604409957322
aF26.702984764635431
aF27.287480741291404
aF27.801078630394546
aF28.269720592443107
aF28.926401527988713
aF29.605430975118843
aF30.330319669354552
aF31.30134009465884
aF31.993708205209099
aF32.73067706792078
aF33.486394058985752
aF34.167581724784604
aF35.401930848802451
aF36.065974473699839
aF36.896350829985813
aF37.7813927333629
aF38.921309661559299
aF39.97516998571502
aF40.789572211691727
aF42.125840794801142
aF43.644711500275349
aF44.85355032164108
aF45.812829425455917
aF47.046058315709615
aF48.449631897327926
aF49.622408318720304
aF51.04144247927352
aF53.201024346560494
aF54.577940901359469
aF55.974500547503887
aF57.300272604946706
aF58.935437915672885
aF61.253114155133289
aF63.821740538824884
aF65.624318697869271
aF67.454483508361619
aF69.123018783403808
aF71.210354296257066
aF74.567150230165254
aF76.23070335468914
aF78.271987515678816
aF81.071827225516031
aF83.453646862710841
aF86.529339530495577
aF89.958680391197973
aF92.139227178417912
aF95.452626979151631
aF98.96652527128883
aF102.73989810547134
aF106.50759157615551
aF111.64659346669681
aF115.90393310434297
aF120.92459723788905
aF125.40052719866213
aF129.67134907792868
aF135.46294701412262
aF142.5538801102015
aF151.30070681491432
aF157.84567716877518
aF169.5170423411827
aF178.87680934745092
aF193.39884029816415
aF208.14234715671577
aF235.5424670602799
aF259.89890359594898
aF295.34858783034383
aF334.33861915695468
aF435.37594838703143
aF500.4258992515953
aF26136.224608103177
aF0
aF0.39973293565211121
aF0.54970468651962101
aF0.69428019898164828
aF0.80416896659170267
aF0.97256228280721502
aF1.0741947545845139
aF1.1635254227187484
aF1.2659631876378288
aF1.3822232353331732
aF1.4871416503290158
aF1.6059691148096156
aF1.7314193523743162
aF1.8189928465042873
aF1.9334458898159075
aF2.0377516716510327
aF2.1075833274228066
aF2.217744079961764
aF2.2892931053076637
aF2.370399790641895
aF2.4612447561840849
aF2.5289316577717074
aF2.6468319175582824
aF2.7635584974075624
aF2.8487982858984613
aF2.960003647452937
aF3.040264995484101
aF3.1340583717433561
aF3.235843360825664
aF3.3184989258906628
aF3.3887498944054912
aF3.4742665307996607
aF3.5562981091035697
aF3.6417013733235564
aF3.7311047300627127
aF3.8872996993864741
aF3.9804799011541103
aF4.0534756404067585
aF4.1363024053202926
aF4.2208974321794877
aF4.2861111457481496
aF4.3766112965174155
aF4.4823314746332565
aF4.5480736492020721
aF4.6140282594933879
aF4.6927572802426791
aF4.7950758075336255
aF4.8965365095798212
aF5.0072589054206107
aF5.0975160269495143
aF5.2362442989591846
aF5.3289517016526302
aF5.4178449031775839
aF5.5118563643244292
aF5.5991786537930563
aF5.7292585294169509
aF5.8455520624288511
aF5.9835086379946096
aF6.1056860394816654
aF6.2159830829296503
aF6.3853574209981945
aF6.4974583447731833
aF6.6378799857782989
aF6.7643189783177879
aF6.9331608618050389
aF7.0563877476272356
aF7.1597694820310664
aF7.2747575984770805
aF7.4061511602581902
aF7.566805332709456
aF7.7166738418404099
aF7.8275904312086375
aF7.9656564706412034
aF8.1244717048328159
aF8.3128776945349419
aF8.4492226274061721
aF8.6026791744357034
aF8.7913701590231152
aF8.9674862747079285
aF9.203292738543686
aF9.4039626926929181
aF9.5311545009803265
aF9.7551708743344214
aF9.9026582594455501
aF10.022592104276631
aF10.254556398686347
aF10.441547514468155
aF10.55911902240299
aF10.753522809241019
aF10.926077226400229
aF11.111675067184086
aF11.282496796620391
aF11.542358714530458
aF11.747566119524583
aF12.063275519031006
aF12.341240623919091
aF12.652985756993917
aF12.911635251767006
aF13.185612347682703
aF13.397850815278218
aF13.510168018667791
aF13.823974357607668
aF14.079700135326661
aF14.319520604253412
aF14.516982034078424
aF14.715852185550794
aF14.964361234520684
aF15.243919353703765
aF15.434116248837348
aF15.848964391761008
aF16.086776522206492
aF16.492027051516569
aF16.795026784147762
aF17.200208653485955
aF17.498774119010612
aF17.697568539728877
aF17.989065229745375
aF18.378303894171673
aF18.701677957394676
aF19.000050086953262
aF19.305072306272276
aF19.640223854343546
aF20.148513190788542
aF20.571031137831589
aF20.950263329212515
aF21.493452145932224
aF21.900647991805542
aF22.368835386038555
aF22.757466417332257
aF23.266697302860564
aF23.748918186455164
aF24.013428277953601
aF24.436060444302342
aF24.839469583056065
aF25.343925184450622
aF25.873641504196087
aF26.482510119485095
aF27.117741302188946
aF28.028030125009568
aF28.67264931970686
aF29.423325760610378
aF29.889992195728581
aF30.465443031984776
aF31.309530466130287
aF31.901260500752073
aF32.799551692053072
aF33.541476679668996
aF34.443620232941036
aF35.302557206918429
aF36.095895295724823
aF36.967344523130116
aF37.972365673128152
aF39.113785970733069
aF40.183225976540719
aF41.415014418976391
aF42.519519437606419
aF43.877982190483891
aF45.274268146469012
aF46.598258997931197
aF47.577075478663595
aF49.30474498506122
aF50.820118338226344
aF52.111331702490496
aF53.410484924257844
aF54.902819374535113
aF56.280708096832775
aF57.753628438949818
aF58.879346286077769
aF59.968520735732298
aF60.999746067677791
aF62.753450775062085
aF64.030882243935793
aF65.729557300284014
aF67.561576034705098
aF69.665957842633134
aF71.539525862837877
aF73.715255033933218
aF76.042333108418404
aF79.197194154406716
aF82.16221890263013
aF85.299196384291619
aF89.066358132689487
aF91.826772968117325
aF96.091493878155831
aF101.23287053213269
aF106.50298553112719
aF109.91541659247912
aF113.35584144711426
aF119.43260281154497
aF126.01710530963756
aF135.83275402928408
aF143.34767183967989
aF153.86665354982301
aF165.32615555272824
aF178.67838621083195
aF195.7780863511025
aF213.10059234298109
aF235.43734867679117
aF282.56546879749584
aF344.49428452558914
aF1032.3156481054148
aF0
aF0.28542906758282582
aF0.44835957796562231
aF0.62651997706725926
aF0.72080554472755054
aF0.85153448889118422
aF1.0135203835548705
aF1.1497401649165981
aF1.249689630633253
aF1.3399789001967404
aF1.4564959287102479
aF1.5525185391245844
aF1.645337296328182
aF1.7029587642670561
aF1.7998807148268574
aF1.8818193335491449
aF1.9378684814241007
aF2.0045089255406014
aF2.0748139436457822
aF2.1773066185618797
aF2.2832712158697772
aF2.3883600529626685
aF2.51854086329767
aF2.6082969305879526
aF2.6653570235348072
aF2.7353083692676279
aF2.8357637619195271
aF2.949800063298929
aF3.0384811951680373
aF3.1078994075124524
aF3.2335260889505033
aF3.2990419647626399
aF3.3727668828240933
aF3.4799226620744226
aF3.5425893742655994
aF3.602653782843948
aF3.6809307822931201
aF3.7636220805378935
aF3.8356481276880539
aF3.9348563402662586
aF4.0173932529537133
aF4.1063926031921367
aF4.1717702846007647
aF4.2630914745857496
aF4.3776816586639553
aF4.4711604153944746
aF4.5898411942902397
aF4.6529598063193873
aF4.7594223012672128
aF4.859397400196225
aF4.9911351337934935
aF5.0565770304775857
aF5.1225454425221839
aF5.2210476830787913
aF5.3162453599135313
aF5.4019041740602542
aF5.4940746055002112
aF5.6136974622961269
aF5.7781825322921838
aF5.8753555715066135
aF5.9710447043669799
aF6.0693550815356012
aF6.2210987536494446
aF6.3057281942751633
aF6.4213140942100821
aF6.5389008456679329
aF6.6598814572271587
aF6.7667995850353684
aF6.8447945703412136
aF6.9638166797290806
aF7.089919065426475
aF7.2063358053191635
aF7.352017914006157
aF7.4537565287326801
aF7.582581434309609
aF7.7515979917104838
aF7.922857945264326
aF8.1036189902911531
aF8.3020028506929222
aF8.4634925955724825
aF8.6391711422358544
aF8.7635395423761935
aF8.8992877245899145
aF9.0893279549043093
aF9.3039711595273165
aF9.4509385898117682
aF9.5886214810203292
aF9.7390698728931344
aF9.9541876691465312
aF10.169584740152244
aF10.408818535856438
aF10.659936222779091
aF10.885872639294179
aF11.234872889392312
aF11.380004892188218
aF11.630544911322611
aF11.842161705728255
aF12.145847767420936
aF12.330853164469056
aF12.583698055254121
aF12.816494298528724
aF13.030768267855716
aF13.340667906325312
aF13.590963465427643
aF13.838270526487388
aF14.074223027757553
aF14.348879588563831
aF14.623052429806279
aF14.889780883997153
aF15.16693031574218
aF15.627987742305928
aF15.886715102647821
aF16.122720491922152
aF16.370043221512347
aF16.698521062776425
aF17.014791424541087
aF17.277243625151677
aF17.630298905505015
aF17.922468720470825
aF18.149957595022286
aF18.504105261759602
aF18.795720406240982
aF19.18862905514699
aF19.475658613972989
aF19.718119783763974
aF20.003625971835866
aF20.315035816376586
aF20.769230895348553
aF21.215197103344
aF21.721451002558126
aF22.141375933409783
aF22.495823827116208
aF22.862304058851613
aF23.305091172097715
aF23.849319624238138
aF24.24364699835543
aF24.720699200556524
aF25.085626207841511
aF25.638589513652505
aF26.154907865789191
aF26.464735192229831
aF26.827306144197109
aF27.546994095945028
aF28.177135131091795
aF28.63885753555148
aF29.495195057633349
aF29.842693161801382
aF30.377067174788916
aF30.875858140539503
aF31.744346334559026
aF32.758933651918937
aF33.726942266387887
aF34.215890876186286
aF35.205804764096222
aF36.335678040868849
aF37.11614771455158
aF37.941465739425929
aF38.859334633575578
aF39.928208407832223
aF40.699477662771486
aF41.819209837420011
aF43.215290220738062
aF43.752358355431525
aF44.477418638451525
aF45.544939322383215
aF46.640235116349203
aF47.579833058320212
aF49.08201798196896
aF50.659250361498124
aF51.765930922941273
aF53.63059431256552
aF55.1000160675475
aF56.73201493619726
aF58.246215912516156
aF59.40623788602521
aF61.827647106103718
aF64.49842649472086
aF66.976553190431929
aF70.198059650548117
aF73.471061518231679
aF75.97093457032166
aF78.702576395464334
aF81.611672320767141
aF83.584533696176564
aF89.483719245164707
aF95.503007633435587
aF99.897758416618558
aF104.5780094282018
aF111.60694946504658
aF117.51568863458957
aF127.92288436293775
aF136.29858810722959
aF147.30418079416475
aF162.5922919611979
aF173.4980042718681
aF184.44721960771685
aF206.66903439286079
aF235.60943993849668
aF279.42538519180954
aF395.73590980190897
aF767.7437697537913
aF0
aF0.36374037786845004
aF0.55995190555689123
aF0.68730867176589694
aF0.8050753739354829
aF0.92714388919158952
aF1.0175094347724474
aF1.0720068922506483
aF1.1785486021612082
aF1.2657419124971916
aF1.4035727483941891
aF1.4650786245458309
aF1.5545465660549713
aF1.650599565868383
aF1.6933702592952453
aF1.7732804777571083
aF1.8838172082592433
aF1.954950718947722
aF2.0048840780203179
aF2.0683672686827492
aF2.1645078261391331
aF2.2612520597106451
aF2.3359440089385646
aF2.3981343988484136
aF2.4476156886612883
aF2.5691159773482495
aF2.6084450349000678
aF2.6658038289568791
aF2.802053890520781
aF2.8561183704950697
aF2.9543741961709769
aF3.0135138877978185
aF3.0505910337969002
aF3.129399027027457
aF3.1984302483970564
aF3.3186190937914195
aF3.4057540256655323
aF3.4777981689415913
aF3.5184191917833267
aF3.5975803130944266
aF3.6588848905491038
aF3.8130976291367
aF3.8802414294541254
aF3.957222730170348
aF4.0900593899149893
aF4.1986310350360245
aF4.3311490651060334
aF4.4373460503609401
aF4.5587919710581124
aF4.6277536709616927
aF4.6884807290574564
aF4.7843280503620607
aF4.8638283249690355
aF4.948337773654341
aF5.1040636578149838
aF5.1795964194464377
aF5.2973077144211338
aF5.3522785288725707
aF5.4939098011676935
aF5.6180430790090652
aF5.7470634587269451
aF5.8397056876634732
aF5.9561260760004444
aF6.0433823634687371
aF6.1235992948872031
aF6.2504421209611483
aF6.4113950981142374
aF6.5516323124086711
aF6.7244564776287783
aF6.8618195100648141
aF6.9505641642794975
aF7.0916813413393385
aF7.2272991950515504
aF7.3163089878854173
aF7.4623335136659801
aF7.6110387010371117
aF7.7791913595037805
aF7.936641896374983
aF8.0878941913267184
aF8.2595490578730129
aF8.385431944546335
aF8.5207274071897672
aF8.6857803464137824
aF8.8101649975015821
aF8.9536744831786148
aF9.0600596564391367
aF9.2078447326702051
aF9.3228888631291884
aF9.4666810933090737
aF9.5842181319219488
aF9.7117679522558404
aF9.8364937741290674
aF9.9578885988719605
aF10.050258999773828
aF10.222935957512945
aF10.316390929540351
aF10.475548798393795
aF10.645698388425439
aF10.784281041251679
aF10.948840474245644
aF11.18619695562867
aF11.391007009711993
aF11.567902525938473
aF11.71609814428081
aF11.986239831997279
aF12.114994517734564
aF12.299234012158884
aF12.519873907814063
aF12.863454387962484
aF13.071436848150757
aF13.401814698265529
aF13.616665965772345
aF13.917822552439985
aF14.188207378128368
aF14.392249303363604
aF14.565292790891043
aF14.8227217543752
aF15.082488535254081
aF15.353996053129002
aF15.71970041593713
aF16.055798117141507
aF16.350541959618788
aF16.59026542651214
aF16.985800718119268
aF17.454849654596948
aF17.727304029707067
aF18.074448871862273
aF18.657077244754035
aF19.113484525377181
aF19.562570052919153
aF20.051208287923327
aF20.510845671810618
aF20.868530774744045
aF21.265799148848728
aF21.905779229740901
aF22.253576842522836
aF22.93054457765145
aF23.206345747345235
aF23.442698316367355
aF23.819566588138276
aF24.284074517836409
aF24.787572758168594
aF25.29135993018971
aF25.702149605001754
aF26.244235212381223
aF26.972918611793055
aF27.497687861234269
aF27.803253080067293
aF28.455954373351648
aF28.799808431536636
aF29.848012115835569
aF30.659490646833433
aF31.278494629826003
aF31.986230266586109
aF32.844426473455414
aF33.467758528183403
aF34.226128209009545
aF35.361957028401591
aF36.258109649477035
aF36.936669242532219
aF37.818365857787754
aF38.696285651145452
aF40.081917650133853
aF40.64346996992446
aF41.711711592656641
aF42.702888952548854
aF43.463449958527363
aF44.933303891653537
aF46.280030045429775
aF46.884828739246672
aF47.9164412951895
aF48.816783602198043
aF51.059938151143868
aF52.990341731171874
aF55.149664388125281
aF56.632548806783447
aF59.744429378935919
aF61.750152716933627
aF64.13446025245527
aF65.894498123950655
aF68.469194455591804
aF72.127321506278804
aF75.510184634367306
aF79.070343457944233
aF82.83698071207391
aF86.213350717712743
aF91.263841459235479
aF96.251898067968696
aF100.97702206389322
aF110.24223086163732
aF122.08402559600439
aF133.28649360785434
aF143.88249756506781
aF165.37750731198261
aF172.54296243585648
aF184.52345636646612
aF205.19933792261477
aF225.68130093091153
aF254.48608422209975
aF356.13158711494771
aF667.13884179705951
aF0
aF0.26354229304624982
aF0.38447836652746359
aF0.47827776444151504
aF0.57102745980500924
aF0.66953353299980622
aF0.7418659221489563
aF0.83156847070200968
aF0.90459644576835174
aF1.0010729921508612
aF1.0747030979707302
aF1.1266171474464457
aF1.2074942519793959
aF1.2865431026365461
aF1.3473439404701553
aF1.4202020302877516
aF1.4768893225494599
aF1.5313969774675775
aF1.5909847654923739
aF1.6475355098467457
aF1.6997939412324161
aF1.7637752265692834
aF1.8242615872864518
aF1.8898188947673684
aF1.9509538324144411
aF2.0098808061983942
aF2.0640737132115903
aF2.1250621349491174
aF2.1880199036006234
aF2.2482335097460373
aF2.3224687338799601
aF2.3810854640962966
aF2.4539462471917695
aF2.5205389108480092
aF2.5736335433800064
aF2.6351983220648534
aF2.7117894124038844
aF2.7769524741702436
aF2.8358464472920151
aF2.8923290609616985
aF2.952869124430904
aF3.019886501351988
aF3.0890122216294262
aF3.1640429065297679
aF3.230928687772761
aF3.2871518048094348
aF3.3658272937032447
aF3.4150577541035902
aF3.5021039779235932
aF3.5747695852696721
aF3.6487836281519805
aF3.7241574101269204
aF3.8142260058409829
aF3.889886219446729
aF3.959556232893171
aF4.0356800011365941
aF4.1057394274812147
aF4.1980461864106902
aF4.309452131909552
aF4.3828331762835537
aF4.4695204020316721
aF4.5367508600967223
aF4.6233009941728263
aF4.723559288314422
aF4.8418135782046221
aF4.9493007712556114
aF5.0770358904447308
aF5.1638022761303857
aF5.258523659828418
aF5.355344510356554
aF5.4603287604488076
aF5.5379537810288211
aF5.6249248142354942
aF5.7220275089216761
aF5.838923475249886
aF5.9497212657328467
aF6.0583843755738309
aF6.1867532212460965
aF6.3064698765052771
aF6.4319591322171776
aF6.5483864027049101
aF6.6488785338577285
aF6.7665965268891011
aF6.9052017507528056
aF7.045854866965354
aF7.2014256979466307
aF7.330485956308558
aF7.4487327302385404
aF7.5665345877761823
aF7.6547168896849138
aF7.8054455606559943
aF7.9504829122596341
aF8.0783042696456278
aF8.2122962977826681
aF8.3879105778396355
aF8.5583569201645879
aF8.7283836649546007
aF8.883891378612029
aF9.0083786843632403
aF9.1761351492455319
aF9.3638324400389497
aF9.5907615887485385
aF9.7594846934193047
aF10.010833472510898
aF10.185621904747663
aF10.346951216302086
aF10.520062141237078
aF10.706681377384809
aF10.967233078599998
aF11.138591663326494
aF11.336327609263476
aF11.538065870352529
aF11.780969742764785
aF12.040396856930878
aF12.278033460635026
aF12.572587972604635
aF12.836717579047866
aF13.112528685175548
aF13.349919258349592
aF13.711232799022634
aF13.952743864796032
aF14.173739895596908
aF14.465060589666624
aF14.731797503743392
aF14.982825032585207
aF15.26649112996823
aF15.569851389101043
aF15.807990176918581
aF16.100384923714998
aF16.357766493568764
aF16.777677977704688
aF17.171170485060028
aF17.439164114500958
aF17.753339594991331
aF18.098780157602537
aF18.506119482642575
aF18.872634818431685
aF19.158220809140616
aF19.460619214965231
aF19.861854966350609
aF20.194551637195691
aF20.572956591632238
aF20.928294578986577
aF21.344426709478942
aF21.66166937542549
aF22.240766877718343
aF22.565729819049889
aF23.044323591163653
aF23.475228287516739
aF23.932777693805892
aF24.431735905582023
aF24.9753478724361
aF25.444631767712121
aF26.034501673986167
aF26.793728332827442
aF27.366686796047183
aF27.957289531847202
aF28.628949210391269
aF29.141828609314189
aF29.719739181851036
aF30.30594251575133
aF30.960727844584873
aF32.027496656930069
aF32.974018472252368
aF33.863248797022031
aF34.561629815364022
aF35.481873500994837
aF36.425956905396923
aF37.348331262937052
aF38.205344049967586
aF39.198221653394434
aF40.278372389201685
aF41.677786414811592
aF43.065418693400801
aF44.574973160850661
aF46.276760954798682
aF47.637500721436417
aF49.306031705719278
aF51.89715331335065
aF54.021647205722303
aF56.568849685307754
aF58.260272125967838
aF61.01559773170208
aF63.460178968983008
aF66.681062849099575
aF70.419627156287063
aF73.920166575505235
aF77.213692861072445
aF81.815040784668199
aF85.962566683415389
aF91.041503329412507
aF95.177144795049969
aF99.955722087200343
aF108.58955753524259
aF117.80784071631163
aF130.37475347981882
aF147.21446326393803
aF169.18325814487829
aF205.95766196129654
aF265.65512151989378
aF87848.280391018183
aF0
aF0.19490317513848199
aF0.31818006814142752
aF0.44431328428917849
aF0.51127610159630021
aF0.60383086895704507
aF0.66138230429826461
aF0.71265972318194859
aF0.76129462676019677
aF0.83795014966870063
aF0.89283607223616412
aF0.94121780304322211
aF0.99883776020744297
aF1.0583181972227838
aF1.1082428211928517
aF1.1713208117143756
aF1.2148024624665414
aF1.2609968601390287
aF1.3328682001354739
aF1.3925492252792258
aF1.4667867999704067
aF1.514482258913509
aF1.5743932825824867
aF1.6055483247197799
aF1.6735799139620093
aF1.7242981980275145
aF1.7695095310430997
aF1.8260039068052139
aF1.8847715885877299
aF1.9197993080657989
aF1.9744731923762646
aF2.0311915914165062
aF2.1097644028458769
aF2.1664244086126137
aF2.2431869595868097
aF2.2837360345225766
aF2.3556313195570087
aF2.405430036905444
aF2.4505170860355792
aF2.4989854383785239
aF2.5407069198492236
aF2.5973895600257899
aF2.6662262216343775
aF2.7003533281249101
aF2.7540559919851004
aF2.8059856736986672
aF2.8744094871135686
aF2.9296784011089727
aF2.9987201241218648
aF3.060603076649417
aF3.149353771093593
aF3.2335250198149148
aF3.2987481250279922
aF3.3813159530575105
aF3.420245321649098
aF3.4667630445198467
aF3.5404207818987037
aF3.6319368958518181
aF3.7059200378072354
aF3.7740034108713001
aF3.8372038077261137
aF3.9197610988151039
aF3.9886257099364339
aF4.0660495867193172
aF4.138300196794412
aF4.2257097559547683
aF4.3260432863760752
aF4.4121971145250116
aF4.5042890038890597
aF4.5643129623079091
aF4.6632837420436948
aF4.760388268790428
aF4.8656859399723364
aF4.9325603768335293
aF5.0342194443918942
aF5.1201176332551412
aF5.2068094592308221
aF5.2861985755361616
aF5.3619402279344657
aF5.4488952829979578
aF5.5661630444890307
aF5.6302459604039878
aF5.7251570645424943
aF5.8265289703090026
aF5.9757197595129812
aF6.0745229648833075
aF6.1917517048051831
aF6.2953470395796423
aF6.403259690218019
aF6.4917627633704118
aF6.6358190501534073
aF6.7679316573810269
aF6.8686794099073571
aF6.951123042441683
aF7.0714773931514774
aF7.1876874501549377
aF7.2851841541363633
aF7.4277247272769777
aF7.545118161206557
aF7.6796631181823791
aF7.8167880642937018
aF7.9566071237538072
aF8.0603936878360543
aF8.1832039873181959
aF8.3115755716587163
aF8.4320844813486833
aF8.5902802761521784
aF8.7221702888496431
aF8.8514060135926869
aF9.0332345688234028
aF9.1963706908372931
aF9.3367587179861236
aF9.497006030540005
aF9.6427753811526102
aF9.8532189063800164
aF10.050461242163172
aF10.168236220470268
aF10.348527513241617
aF10.531791667580992
aF10.703985943887844
aF10.93278400032537
aF11.15334897515447
aF11.279161608656203
aF11.493658887982159
aF11.629213658946661
aF11.813149108077441
aF12.148329929207353
aF12.428225959361159
aF12.590673999087862
aF12.794134333415222
aF13.002054595845699
aF13.29166579030848
aF13.555249875763497
aF13.805021300146676
aF14.163857718369647
aF14.396612581875223
aF14.68307313946254
aF14.923008872428863
aF15.32205455142778
aF15.692053745001203
aF16.016016291617053
aF16.269176030476242
aF16.559936897997712
aF16.907361798334914
aF17.258247430228977
aF17.522507804773419
aF17.819739257247601
aF18.300494526840033
aF18.61675208077844
aF18.901401014716043
aF19.417022408557258
aF19.797904233478242
aF20.228015085729147
aF20.637954339218549
aF21.183210911355513
aF21.771881557448339
aF22.21773210897102
aF22.779612813526374
aF23.276529546096842
aF23.849594764724543
aF24.446921593531446
aF25.015101229550464
aF25.658559396356374
aF26.282199605420455
aF27.105386636499361
aF27.676243476410885
aF28.419439927324717
aF29.184424065828914
aF29.883208551297241
aF30.862499878001806
aF31.713413996846523
aF32.826935291082727
aF33.72406490654123
aF34.680776796431886
aF35.528359794461842
aF36.670845950707843
aF37.969249977719763
aF39.273981900912467
aF40.244728926237393
aF41.483302822400162
aF43.211405024691217
aF44.630074152677139
aF46.308911078822682
aF48.422856008629161
aF49.774586644602294
aF51.781332900742051
aF53.252372889554401
aF55.257436943999878
aF57.314324693762337
aF60.134437476839075
aF64.643054466595004
aF67.805529413896068
aF72.960204750804039
aF78.548035565623934
aF86.612578466349305
aF95.851443874433429
aF105.43467161328387
aF123.71872542791084
aF144.47153346382115
aF176.91525388308472
aF309.16164265953068
aF0
aF0.093398210950316154
aF0.1964204104101267
aF0.28305640434431101
aF0.37579074941364743
aF0.43376997866650091
aF0.49429543879132976
aF0.53862866326746572
aF0.58159097219579325
aF0.61215633846525852
aF0.66489866088651661
aF0.71376871279852483
aF0.76604518711445135
aF0.80762780660631495
aF0.86702460155016359
aF0.92578293211375118
aF0.96655278458941574
aF1.012408711382466
aF1.0389370892326379
aF1.0979094469421704
aF1.1360967828124768
aF1.1843998812376955
aF1.2121765466487182
aF1.2356656356376803
aF1.269517337829088
aF1.3064220440414478
aF1.3456604109067491
aF1.3847455871539975
aF1.4433510659744919
aF1.4787246262422706
aF1.5290320752062629
aF1.5562124703009197
aF1.6073426914107938
aF1.6404681580522233
aF1.6702244973685063
aF1.73063179859356
aF1.7750006715499509
aF1.8279516044521678
aF1.859195201800822
aF1.9053170452940513
aF1.9280767671566097
aF1.9902516035810496
aF2.0186760912468551
aF2.092657238098997
aF2.1474948054253384
aF2.1871961512096565
aF2.2317816251782281
aF2.2907742739410164
aF2.3359180870369833
aF2.3869816483688759
aF2.4529856457177273
aF2.4909203390683849
aF2.5537529934964778
aF2.6292032978804851
aF2.6784202619777213
aF2.7190242328666847
aF2.7592501032192169
aF2.8141411237425067
aF2.8832878890394928
aF2.9253711343109838
aF2.9954526684612648
aF3.0483400308079833
aF3.1195790079290284
aF3.1882923341376097
aF3.2475133828248954
aF3.3082893597110878
aF3.3998621255091428
aF3.47762860298067
aF3.5504403144136871
aF3.6091991238429708
aF3.6617110799009782
aF3.747352642356359
aF3.7869413127021954
aF3.8494017410196837
aF3.9492065318655385
aF4.0178432318231367
aF4.1459135647020364
aF4.2117067391482745
aF4.2819404568634685
aF4.3483465566680453
aF4.4244779495490469
aF4.4626585143965478
aF4.529665123797245
aF4.590443570999347
aF4.6959724608287416
aF4.7546121047868048
aF4.8565039814092676
aF4.9526895878521771
aF5.0443764740864374
aF5.1192000512767368
aF5.2222704461323
aF5.3679136440586834
aF5.44561515189495
aF5.573881356101074
aF5.6587732114410647
aF5.7456859581229036
aF5.8285056653676959
aF5.9249388997940375
aF6.0008874169591815
aF6.1408249280378238
aF6.1925479765893821
aF6.257597707865
aF6.3482665820132933
aF6.4362617657783012
aF6.5018677743421236
aF6.5990992264693222
aF6.7059841755319676
aF6.8408659416578956
aF6.9783602936172588
aF7.0768404883339144
aF7.275512674657814
aF7.3760305080718176
aF7.4852630022878435
aF7.5558323048134834
aF7.6469369887215128
aF7.7796586853873126
aF7.8927874437708638
aF7.9917930786552116
aF8.1024563434454961
aF8.2999865668501034
aF8.4506558762494599
aF8.5965995871403145
aF8.8639775066208841
aF8.963955758417768
aF9.1445204978480277
aF9.3391048111935557
aF9.4789266524635813
aF9.6269538620278485
aF9.798523665360058
aF9.9267454692157209
aF10.135523291360611
aF10.266903541690644
aF10.45005203381487
aF10.715778409248584
aF10.96464567850493
aF11.083463676843031
aF11.256660301260217
aF11.500996192642983
aF11.687974340512826
aF11.903229343489697
aF12.133709181931877
aF12.310998874748263
aF12.750272219083747
aF13.056147482613222
aF13.253490555112993
aF13.675145968268881
aF13.924230477174909
aF14.217574079767886
aF14.571236022596374
aF14.939288725850155
aF15.314551253615292
aF15.575987515584663
aF15.833645863054313
aF16.200485384427974
aF16.477465196601848
aF16.843241153808755
aF17.272849032588312
aF17.796542227272955
aF18.154946140541519
aF18.42280855377696
aF18.768141850732011
aF19.187362345680633
aF19.591309885228171
aF19.89722345376024
aF20.702595711695711
aF21.128564543818339
aF21.527729127045859
aF21.98660526945358
aF22.521671536797641
aF23.024367946134102
aF23.561848505072032
aF24.014992900974836
aF24.436576472708754
aF25.503186568685322
aF26.610835772872736
aF27.151442239196715
aF27.70328225888667
aF28.806039995726948
aF29.627287233320377
aF30.315284533811624
aF31.327683853768139
aF32.147834022257314
aF32.92691659425568
aF34.04201415685305
aF35.413352753610873
aF36.221826443150817
aF37.977707465427912
aF39.36878752355473
aF40.951879054950432
aF42.365682197246947
aF44.629804117764586
aF46.795396750300675
aF49.67533805194968
aF54.589345174300426
aF59.129570664612665
aF65.197403972300108
aF72.17408937465612
aF82.574762345786382
aF93.478082113773723
aF137.00082761546682
aF199.8118228761337
aF0
aF0.10986207372166874
aF0.14872621306540318
aF0.19845064349132605
aF0.23956108970357301
aF0.27567089124994565
aF0.30377868213388104
aF0.33708359499769869
aF0.36673053244321807
aF0.39912993308020295
aF0.426779015978206
aF0.44779438158941426
aF0.47517643738476034
aF0.50286573074575236
aF0.52693060971954953
aF0.55098158547076637
aF0.58123019985394664
aF0.60493909669532997
aF0.63389774238520347
aF0.67186606098347501
aF0.69617002023919206
aF0.72425525288091774
aF0.74131268328835165
aF0.75822441587657952
aF0.78496504186460769
aF0.81439669478023768
aF0.83597937513562759
aF0.86590383841807772
aF0.8832207398905233
aF0.9128885288784947
aF0.93278832232658382
aF0.9712970144945392
aF0.98805434822469451
aF1.017363705614581
aF1.0437582087199948
aF1.0718487411987458
aF1.1004250896437773
aF1.1194711959360109
aF1.1437610856843738
aF1.1703135770105868
aF1.2056434217949175
aF1.2338045789280789
aF1.2543783796951538
aF1.2881091828814166
aF1.3112986519959224
aF1.3412713397963407
aF1.3643779221604135
aF1.3915419763427743
aF1.4135745730894449
aF1.4437349779195308
aF1.4780368538634174
aF1.5059249898934794
aF1.5377824779923701
aF1.5720832254223982
aF1.6052142651949446
aF1.6359894194069291
aF1.6698249679324384
aF1.7010194250562272
aF1.7272294927445859
aF1.7640864928040065
aF1.8021508917193763
aF1.836941181297739
aF1.8572858792099074
aF1.8790413654272671
aF1.9118884108245098
aF1.942073490357896
aF1.9694860799879985
aF2.0015645272239428
aF2.0522149106625998
aF2.0912660589444134
aF2.1247257810064668
aF2.1749093251088301
aF2.2217650563723126
aF2.2797139028050473
aF2.3273351675369698
aF2.3662520837977135
aF2.4085161957373407
aF2.44842259128407
aF2.4966048731591064
aF2.5293551875388931
aF2.5632601598410365
aF2.6058201417068219
aF2.6332894599197223
aF2.6736218730705206
aF2.7182676740160878
aF2.7675212194433909
aF2.812780412941005
aF2.851379316835152
aF2.8952580472277556
aF2.9324664002449192
aF2.9730447751871556
aF3.0227975296309393
aF3.0615273198990827
aF3.1268021698603428
aF3.174893627551298
aF3.2193684712802222
aF3.2683746695506959
aF3.3223129099795639
aF3.373078633435032
aF3.436781965208882
aF3.4965341709413189
aF3.5485636123343998
aF3.6258706424876941
aF3.6600532837001367
aF3.70560155555301
aF3.7650593373841739
aF3.8358507676461393
aF3.9084549757206171
aF3.9708021023524647
aF4.0212671115382888
aF4.0946288617889595
aF4.1394244422887896
aF4.2188351505187107
aF4.2823861107092336
aF4.345215736329938
aF4.4124531199132271
aF4.4715502537649803
aF4.5793747033075158
aF4.6772348615589658
aF4.7793135998354499
aF4.8587348255519132
aF4.9729544448725447
aF5.0694000105385566
aF5.1648687512296263
aF5.2375026757215011
aF5.3107689102038451
aF5.3918869300439356
aF5.4798227286901664
aF5.5404131589193328
aF5.648241044217758
aF5.7449977826195706
aF5.8598429438509489
aF5.9784308800284593
aF6.0724910376893559
aF6.2240939885017204
aF6.3418997607004348
aF6.4869662152984544
aF6.6005309624044228
aF6.7321547133945252
aF6.8313273194562418
aF6.9553827276444107
aF7.0978539209087161
aF7.2385617409417087
aF7.4083545257663301
aF7.5207064390014864
aF7.6784562087734116
aF7.8094272468662487
aF7.9694720845049609
aF8.1498776347751605
aF8.3017112945801781
aF8.5266505277166349
aF8.6503142671472784
aF8.9054272928070564
aF9.1373026527777839
aF9.3315715528110896
aF9.5401595700260877
aF9.7597048968193185
aF9.9666371700161704
aF10.22144069326451
aF10.408114251683418
aF10.676084943208242
aF10.908036087339795
aF11.20436716656776
aF11.477519824720831
aF11.808217307144476
aF12.095306359268855
aF12.384349218033464
aF12.685309460589796
aF12.923557637527606
aF13.204138344604788
aF13.616900691559191
aF13.979656973992922
aF14.606515576714788
aF14.962258652534821
aF15.314510650339031
aF15.724483559731054
aF16.382829228207918
aF17.009132961353529
aF17.366569031693889
aF17.900210603831621
aF18.648573105414446
aF19.363994023453447
aF20.143558523165193
aF20.828002130195308
aF21.73898624871266
aF22.409876982562661
aF23.415203632804776
aF24.355119676733135
aF25.938175172718896
aF27.639017238717773
aF29.341494300849057
aF30.595119225694788
aF32.714674098003904
aF35.49272152410154
aF37.928565199883295
aF43.491713440727274
aF47.581292491927705
aF57.969627624865709
aF63.340294577285306
aF80.397876878853367
aF1699.4418298669216
aF0
aF0.057563746961587628
aF0.072111582138628103
aF0.08953965473080569
aF0.096680126595439592
aF0.11426458268489206
aF0.12297408594046662
aF0.13531860413261979
aF0.14452962166237915
aF0.18495685986529226
aF0.19550850903207695
aF0.22061034782875669
aF0.24758609568932677
aF0.2612060900760057
aF0.26777787436395784
aF0.27913993724767144
aF0.29698064960443493
aF0.31244925057107031
aF0.32122508788845933
aF0.33311366430341305
aF0.34236037155250942
aF0.35256380627730061
aF0.35729858105022982
aF0.36206918848814695
aF0.36696792159332803
aF0.37634614206748435
aF0.38534850898782269
aF0.3894744547332164
aF0.40001857990165496
aF0.40628143701841141
aF0.41257543810712505
aF0.42792024247708083
aF0.43741390937376029
aF0.44679385424881979
aF0.45338668180597402
aF0.45852917891908479
aF0.46847035670602488
aF0.47881191760237773
aF0.48636454017775488
aF0.49953494697176376
aF0.50860731875951681
aF0.51485110540295576
aF0.52109982877729388
aF0.52856828716304816
aF0.53396501041075717
aF0.54519067350690764
aF0.55087030570382234
aF0.56120787950497175
aF0.56947875574614748
aF0.57879694500782908
aF0.59045771217758214
aF0.60020074472460661
aF0.61356581621742379
aF0.62339692092995469
aF0.62921777922324307
aF0.63757958596122966
aF0.64566282308710643
aF0.65337163144903077
aF0.65757954743934188
aF0.66731107005984081
aF0.68506693378151473
aF0.69407449975565316
aF0.71475464833393743
aF0.71919154363460669
aF0.72854121818321049
aF0.73768805533929283
aF0.74964936797719572
aF0.77319064552644212
aF0.78475208628536974
aF0.79568283458133116
aF0.80765736770217855
aF0.81877434008276662
aF0.82795271525666825
aF0.83973491168326087
aF0.84972560110746476
aF0.85639470621002023
aF0.8647134858775507
aF0.88244802261826683
aF0.89985271988240045
aF0.92340768696765485
aF0.93788541450428287
aF0.94792835531188524
aF0.96027918757802155
aF0.96921149562521636
aF0.97952213604373195
aF0.98854957689191614
aF0.99970116951294496
aF1.00882043327571
aF1.0201870773908586
aF1.041349919759516
aF1.0556530343908901
aF1.0756585260782074
aF1.088223830319788
aF1.0958784727426483
aF1.1149995386526934
aF1.1304796415226661
aF1.1446063542280724
aF1.1638356180596499
aF1.1745794869462154
aF1.193511657405055
aF1.2182391405087374
aF1.2382096317106388
aF1.2472982421708765
aF1.2622218704529613
aF1.2744400683695623
aF1.2908221594923039
aF1.305167165044943
aF1.3252374721898401
aF1.3384679854994657
aF1.3542873322844842
aF1.3724563152241775
aF1.3892962190041085
aF1.4109408775708268
aF1.419655422200014
aF1.4315263030154188
aF1.4527276892177177
aF1.4683378048771656
aF1.4867165057343337
aF1.516076453749051
aF1.5433792065946024
aF1.5553543482759045
aF1.5609831318052232
aF1.5806764726673499
aF1.6041131847991026
aF1.6344144243726575
aF1.6710888016711845
aF1.7061932731840148
aF1.7354452179890347
aF1.7630243267926291
aF1.7975788676407549
aF1.814028785525206
aF1.8281150670319055
aF1.8550087441605427
aF1.8737649522280617
aF1.8856226040366797
aF1.9079304881331332
aF1.9442107218496263
aF1.9659920408787115
aF1.9983699901526899
aF2.0223202139688512
aF2.0401740051464592
aF2.0748888988742027
aF2.1149914291249212
aF2.1360608521646109
aF2.1565833101041338
aF2.1693334907915234
aF2.207376721598215
aF2.2255919603217067
aF2.272629194554781
aF2.3279774087392666
aF2.3517585387327471
aF2.3910765083557908
aF2.4703248547335415
aF2.5208338119493607
aF2.5806226807785433
aF2.6402836153572076
aF2.7185362598168772
aF2.7677835795641461
aF2.8180997959029526
aF2.8326345693021624
aF2.8701055927549652
aF2.9318268717765115
aF3.0139842815042615
aF3.0571236539047622
aF3.1734047661118234
aF3.2297672388561938
aF3.3059073464928148
aF3.3897975561487925
aF3.4745601523423382
aF3.5452181551689357
aF3.6265670674665991
aF3.7050473014775043
aF3.8309245560041219
aF3.9372996837644192
aF4.0716930145722978
aF4.212857083996437
aF4.2692123731220972
aF4.46591990841738
aF4.5523023767467139
aF4.6548916677892533
aF4.7758394764018659
aF4.9758326990027228
aF5.2769985200911247
aF5.5486096014042028
aF5.7245726086000337
aF6.0102407093754762
aF6.1426829331257933
aF6.287333950013684
aF6.5928811370882103
aF6.9367730409204489
aF7.0646691460119388
aF7.2083448239980932
aF7.5049899728910674
aF8.1901484843386374
aF8.6011704867597345
aF9.304469886954676
aF10.665731252277961
aF11.88866301597937
aF13.361123901157045
aF18.497872676781789
aF25.178694947474682
a.