(lp1
F0
aF0.057628562576303784
aF0.091878457821655726
aF0.1132900806480715
aF0.16850875337211296
aF0.23480972950916859
aF0.25538164963671517
aF0.31559279249314726
aF0.3709861971858377
aF0.39525547000677452
aF0.48512586717169626
aF0.50506908796001859
aF0.57765035525262631
aF0.62148541152837633
aF0.64263863444579483
aF0.69882483312164267
aF0.7161545153916149
aF0.80411890720042356
aF0.8805970872918405
aF0.95906879172041093
aF0.9964168954980418
aF1.0467630571651532
aF1.0811313132957849
aF1.107613450320283
aF1.1414327414809755
aF1.200680497698831
aF1.2258265309284444
aF1.3292666112945957
aF1.3827312359018287
aF1.4123188606803245
aF1.5512850653633397
aF1.6356584995938095
aF1.6731651325192813
aF1.7284734590792767
aF1.7492218434041287
aF1.7668984797381611
aF1.859839254768237
aF1.8915873446892628
aF1.906971142493358
aF1.9739012545347705
aF2.0042595869827151
aF2.0404670643203007
aF2.0801334669349569
aF2.1361786545358559
aF2.1800889828349126
aF2.2526723098806514
aF2.4615221000598324
aF2.522133895087689
aF2.5349568672753051
aF2.6130589764080723
aF2.7500027760987162
aF2.8562937139926889
aF2.9119263033764744
aF3.0019158345608132
aF3.075603035061484
aF3.1141526815876208
aF3.1813265812952172
aF3.3676587418240587
aF3.554323576839598
aF3.6496213142048179
aF3.6874293716075122
aF3.7856923728140917
aF3.8474310667342051
aF3.9949344157172133
aF4.125555286661946
aF4.3290913548691856
aF4.4952013654404812
aF4.556343784992352
aF4.639912221981799
aF4.7146391204010234
aF4.8227084013441566
aF4.9863406697764292
aF5.1842339785740776
aF5.3023803998521304
aF5.4750202011939866
aF5.54048973773856
aF5.6494197613846904
aF6.031189352625824
aF6.1768307442788197
aF6.2620964668403225
aF6.4351623085815
aF6.7265466116268859
aF6.7915288820461273
aF6.858752135722245
aF7.0391175979404581
aF7.1234944848067601
aF7.3258340038478451
aF7.6012540830071256
aF7.8610379546027023
aF8.1407339356122499
aF8.6344134454714787
aF8.7180144432721391
aF9.0978762948485237
aF9.2738466401608814
aF9.3278635864048827
aF9.4424890946840847
aF9.6030189615224657
aF9.7486413490900201
aF9.9120876012927628
aF10.0634236132968
aF10.415298132107214
aF10.522058512873633
aF10.613299539059163
aF10.777003890057323
aF11.19134404322137
aF11.263117192375013
aF11.498561061679176
aF12.21806762702662
aF12.483196087543357
aF13.54470365954359
aF13.849619017840872
aF14.123084642390928
aF14.398832659078749
aF14.566089250066417
aF14.807446823406554
aF14.954042474253805
aF15.017632122375311
aF15.534486588862363
aF16.087579752773408
aF16.335273051167704
aF16.59865583486215
aF16.787365784531143
aF16.930772808747413
aF16.978230896616772
aF17.45341757723757
aF17.54161801859598
aF17.670822982069833
aF18.057953137339432
aF18.349411130934708
aF18.874645742669262
aF19.811500245302732
aF20.617053831744901
aF21.425708785184192
aF22.13342945397601
aF22.514800015329385
aF22.600876120356858
aF22.995926973030485
aF23.562574109846953
aF24.294710403256879
aF24.710775959864485
aF25.735807637080889
aF26.538055293359648
aF27.290028726831821
aF27.773430106003083
aF29.668208899311839
aF29.767759573249858
aF30.328136166047656
aF31.494086670497492
aF31.717352094096093
aF32.525981982450979
aF33.265585384845679
aF33.751316746168612
aF34.201802003064067
aF36.899918838933765
aF38.096479462365799
aF39.516017768346714
aF39.989735840240321
aF41.194468318352641
aF43.299364753871842
aF43.400612046669139
aF44.217051933181644
aF45.224566778084622
aF46.422304247376758
aF46.960808813383558
aF48.299557096246531
aF49.543362472280329
aF52.100735352804534
aF53.655447353773283
aF55.960391277909508
aF59.70514539293125
aF61.843693253111184
aF68.081331605587849
aF71.540166073226146
aF73.270793327751335
aF76.171347038456744
aF76.713947935814872
aF79.452578223589953
aF81.242818023980888
aF85.253618574552505
aF90.576557423795492
aF92.997247053710012
aF95.821107577619216
aF106.64500479999833
aF120.18058037798956
aF126.50923215826064
aF131.32814912989315
aF147.1399472964454
aF167.43638431036157
aF192.68604805851697
aF214.74959666043176
aF236.90417250922937
aF270.13811088102972
aF311.13617202210634
aF348.43212870989748
aF397.49279405192692
aF418.52939500887197
aF490.05308025042825
aF601.26449991098229
aF943.69926165035622
aF2272.151119348498
aF2272.151119348498
aF0
aF0.068201728466174436
aF0.11237783313391692
aF0.12830033204755303
aF0.14738276605539258
aF0.17452595819420164
aF0.18740679497876259
aF0.22092788589298604
aF0.24698157312934674
aF0.26321755681186182
aF0.278982404063846
aF0.29425614113597565
aF0.30386598141884186
aF0.33348471684689712
aF0.35448258891286477
aF0.38416466052319098
aF0.41799061907192603
aF0.43332985148006498
aF0.46022545438188606
aF0.46720029992587914
aF0.4834191580769957
aF0.49135304898180576
aF0.50065137294598305
aF0.54116902167600822
aF0.56502516934264901
aF0.58383186711851243
aF0.59988283878047788
aF0.61745037135253056
aF0.64851934211375817
aF0.65771446388077714
aF0.68201656335208749
aF0.69501882934571635
aF0.70859407070539537
aF0.76811748190181783
aF0.785547174693628
aF0.80584170571483826
aF0.80977921469642378
aF0.84983656800224905
aF0.87762202858938831
aF0.89989293732657549
aF0.92737970573962192
aF0.94822275849814597
aF0.97010634169397159
aF1.0004701361644599
aF1.027252813486935
aF1.0516264427778705
aF1.085865795301199
aF1.1039829998101676
aF1.1231421375848933
aF1.1351908524310048
aF1.1870327649828589
aF1.2108652899633887
aF1.2418615536907456
aF1.2620878726057261
aF1.2831955088252662
aF1.306480565141986
aF1.3214819027067988
aF1.3819750197102438
aF1.3964962886754628
aF1.4416267404974048
aF1.4723276588556404
aF1.5102821076425617
aF1.5397500825876973
aF1.5614284610319382
aF1.6110339651345407
aF1.6433416553385205
aF1.6728829936173992
aF1.6999366415445392
aF1.7240699041761254
aF1.7508519958752469
aF1.7969849629216739
aF1.8430561905053708
aF1.8717904098493616
aF1.9063368309633759
aF1.9506003143418458
aF2.0298196868542142
aF2.0991713956674101
aF2.1633526448161282
aF2.2629929459851224
aF2.29081267396016
aF2.3416198215358914
aF2.3573314548287789
aF2.4218587714491338
aF2.4993355473824033
aF2.5384325382544848
aF2.6491004992037666
aF2.7210651339892107
aF2.8237246255258426
aF2.8700824362814488
aF2.9188785020766925
aF2.9635962519687955
aF3.0154773635321317
aF3.1026722776260538
aF3.1782308010920812
aF3.2642539873638139
aF3.322125355058692
aF3.3714861504441376
aF3.4218839487759731
aF3.5144951962763513
aF3.5765944072239031
aF3.6273675925681212
aF3.7247691072149096
aF3.8232379391542128
aF3.8893216636307564
aF3.9288057496282955
aF4.0390899251352117
aF4.1600948751312279
aF4.1871263152018612
aF4.2621860547974828
aF4.3500604627307435
aF4.5436519743962078
aF4.5849723086596628
aF4.729044783865576
aF4.8683804704143165
aF4.9563493866144599
aF5.0241568504440179
aF5.1468726623856105
aF5.1949999782992462
aF5.3140299451508861
aF5.4879645142694358
aF5.7223471643025841
aF5.8380855647564118
aF5.953449532130346
aF6.0187020640170728
aF6.2108553226358252
aF6.3916059248644403
aF6.4913362763076323
aF6.6031140372618351
aF6.6636491589809301
aF6.9509407634766989
aF7.1531488937141772
aF7.2409474401975658
aF7.4303919093490327
aF7.5669382679335202
aF7.7441286658925934
aF7.9000616206163423
aF8.0724648473816156
aF8.2412216959472371
aF8.4137214458024516
aF8.6069007301001861
aF8.7736666850099372
aF8.9890876982826367
aF9.155130462775519
aF9.3411611417176861
aF9.4866270624314577
aF9.5872328045423547
aF9.8527914805110655
aF9.9514305967967953
aF10.292405041584022
aF10.75673026860011
aF11.169289189746417
aF11.46807997463821
aF11.689766834399332
aF11.966027273630296
aF12.351431387718186
aF12.727667430393458
aF13.119586645059071
aF13.424611040389257
aF13.786397020277862
aF13.968352336123267
aF14.21068016740667
aF14.453408188853816
aF15.461180267394132
aF15.895481313307476
aF16.317601512617198
aF16.780792483093965
aF17.624171385239844
aF18.139839382922045
aF18.594772196087924
aF20.516375547145831
aF21.567448512929186
aF21.977404088239552
aF23.299471636450161
aF24.278490139740818
aF24.993212131783924
aF26.592135163847711
aF27.623113931391885
aF28.865470012834731
aF29.227604875711496
aF31.101999334866235
aF31.57497302654869
aF32.684647994128909
aF33.375146403972977
aF37.692891082911196
aF39.851813023596023
aF41.523584144387264
aF46.008072429817098
aF49.647884975691284
aF52.784847459347759
aF54.294626625518887
aF63.228644431972903
aF69.726924033194564
aF74.015904215742552
aF86.164937892726826
aF100.73311845118887
aF112.18515642738907
aF135.19609351797098
aF176.61381022152227
aF242.73583361720463
aF308.26543522152377
aF513.52205453065437
aF0
aF0.064681645397600726
aF0.097055786527166205
aF0.11671616479466058
aF0.14904699771147067
aF0.1812546389613125
aF0.20555172420798953
aF0.2183799557562153
aF0.24037810467237944
aF0.25036231174093732
aF0.26632542829596018
aF0.2738878158208915
aF0.28695869973365634
aF0.30912145801504926
aF0.32069346660692333
aF0.32716841268857905
aF0.33921112396795472
aF0.35411605334840923
aF0.36992181322350265
aF0.37555978900730691
aF0.39245722745804307
aF0.40098714822474785
aF0.40795369226674527
aF0.4172218451215533
aF0.42679459853118645
aF0.45012838868569222
aF0.46395657933185602
aF0.47588120991692906
aF0.4859429317025537
aF0.5012486174834101
aF0.51554915854539141
aF0.52673766504363306
aF0.54037167562839805
aF0.55386824464727247
aF0.56986151348392444
aF0.58441413430603695
aF0.59504137541093982
aF0.60183139418849574
aF0.6097548033252651
aF0.61636145539533693
aF0.63729376685379835
aF0.65492235590733228
aF0.66704610998785618
aF0.700953708734812
aF0.7190525585629578
aF0.73579423752153761
aF0.74901914818208437
aF0.7639095729012253
aF0.78507593810209142
aF0.7991677445398635
aF0.82057225160808045
aF0.83874577852045251
aF0.8514279150065982
aF0.86730722882820255
aF0.890038058955962
aF0.90572082476051208
aF0.93235631316890322
aF0.95142142918059724
aF0.969384366562271
aF0.99218758210384461
aF1.00299637932868
aF1.0092887025882542
aF1.0324830139871306
aF1.0486654108510693
aF1.0641141875260127
aF1.0835468393653898
aF1.1071616076049358
aF1.1168131966461825
aF1.1456586118817482
aF1.1644419001186364
aF1.1774811339270124
aF1.2092190407790164
aF1.2384799339065578
aF1.2616903228237686
aF1.2889294434698533
aF1.3164843722957189
aF1.3568929832436432
aF1.3789685995582368
aF1.4016262455149839
aF1.4303108283460788
aF1.4487819999160492
aF1.48021838699676
aF1.5050773691689014
aF1.5354136497221011
aF1.5761026989532505
aF1.5976227134137739
aF1.6180255352377244
aF1.6461488070064747
aF1.6754933786486672
aF1.7043391941827599
aF1.7436653784542346
aF1.7574238222395258
aF1.8083751761401707
aF1.8364695449180659
aF1.8853960408395598
aF1.9209489973470637
aF1.9614779158767812
aF1.9837030977196592
aF2.0254456515521015
aF2.06356755784513
aF2.1061669436995003
aF2.1608319242443135
aF2.176533829184859
aF2.2139646657342289
aF2.2418326677035214
aF2.2819602869499667
aF2.3275988135789891
aF2.355439289035997
aF2.4108423085380779
aF2.4436348968031414
aF2.5031234860019178
aF2.5439256045997136
aF2.5773599788744934
aF2.6327828846554593
aF2.6997266593235456
aF2.7317169496478648
aF2.8033821298933836
aF2.872746199477366
aF2.911616529815233
aF2.9546022533503957
aF3.0081446390299069
aF3.0894107259868058
aF3.1461648060150367
aF3.2073093130678618
aF3.2707390207274067
aF3.3815481629909145
aF3.4779532042245807
aF3.4955043576213232
aF3.5757478436815138
aF3.6322878543855621
aF3.7796644436769657
aF3.8151756075230678
aF3.8802551661883786
aF4.0289839922041422
aF4.1279506765446614
aF4.1958722575439298
aF4.2681132445184655
aF4.3694161532010058
aF4.4793716338291727
aF4.5714087303580433
aF4.6493194432085412
aF4.7141095620043281
aF4.8655065654352976
aF4.9733934483219935
aF5.038859603913723
aF5.1120453856118537
aF5.2240263349175526
aF5.326857227285414
aF5.4452851717228903
aF5.6191948437507619
aF5.8251247312267305
aF6.0364763774143135
aF6.1085463321063269
aF6.2898990925768432
aF6.4181400947195311
aF6.6210137015645536
aF6.7263257016206106
aF6.8855750366072552
aF7.1232383189565454
aF7.4007790575336729
aF7.5183445501556623
aF7.6542486054829189
aF7.7796080000079355
aF8.0776151677243515
aF8.4160158721268967
aF8.6283072431350387
aF9.0099513745919317
aF9.1985032179916839
aF9.3715895144040058
aF9.689097239085406
aF9.9747151298520151
aF10.162420972781135
aF10.525043005039576
aF10.9348593423718
aF11.220406152599313
aF11.472292936429914
aF12.331513581808927
aF12.99141401636353
aF13.792445320126436
aF14.159631387529567
aF14.898875104642451
aF15.391013071702499
aF16.58446392489617
aF17.397044111420918
aF18.246693100142146
aF19.539678557308235
aF21.894007859929044
aF23.769625964542684
aF25.674579790101415
aF28.595587316047272
aF30.020256306881702
aF33.276780738700346
aF35.817076665002631
aF42.110340471763912
aF48.790270781601912
aF54.046938187573666
aF67.878422664921544
aF86.808719614124982
aF106.08957126365338
aF212.6174296424627
aF530.67951165916725
aF0
aF0.066200047903027276
aF0.083721669217692474
aF0.097716651445752478
aF0.11022140255760769
aF0.12682667647071302
aF0.1310312002419774
aF0.14174741060946225
aF0.15012768070557803
aF0.16322364512908868
aF0.18204188144428807
aF0.1932509011687073
aF0.20736566877237284
aF0.21677471984321531
aF0.22208330716146871
aF0.2368478044903545
aF0.24800109075566285
aF0.26042292583219756
aF0.27071259593706476
aF0.28654565496167866
aF0.29337837365624814
aF0.30198842285047178
aF0.30844586201328328
aF0.3149470593102916
aF0.32463921048140526
aF0.33612661364720992
aF0.34538798562234241
aF0.35362965043869748
aF0.36471294151406786
aF0.37175950729075813
aF0.38160665904037616
aF0.38574106898579719
aF0.39688874219887516
aF0.40205350235521997
aF0.41084581512509888
aF0.4190808913198204
aF0.43544148967863316
aF0.44346612867974777
aF0.45227198826541537
aF0.46661118452309958
aF0.47567354802653689
aF0.49123378069289259
aF0.5026379690695526
aF0.51145199410264641
aF0.5230420844440421
aF0.53633757129515192
aF0.55323199501557874
aF0.5709327471747897
aF0.57668332951826085
aF0.58661731761735014
aF0.60316797340939221
aF0.61231767919746716
aF0.62173743546202065
aF0.63367739150206992
aF0.64417081791316222
aF0.650588306867667
aF0.66136245644028779
aF0.67194367164364066
aF0.68483211499577568
aF0.69390170098605697
aF0.70978541298372555
aF0.71733880725642318
aF0.72982716816440152
aF0.744382107200665
aF0.75464756880526096
aF0.76971757975591903
aF0.79092500924780884
aF0.80139259706827826
aF0.82007493231551376
aF0.83636749901593976
aF0.85607123696181142
aF0.87178377197180712
aF0.89028508898771552
aF0.90709689710063435
aF0.92105845964996935
aF0.94062127053830347
aF0.95072473335636265
aF0.96303055939494286
aF0.97648251804695785
aF0.99369926534400232
aF1.0090186828881174
aF1.0418114909215104
aF1.0698515568115963
aF1.0781642613654208
aF1.0953662056922651
aF1.1107307176100356
aF1.1257267330935268
aF1.1471842785819382
aF1.1676817560236403
aF1.1877943080225843
aF1.216398240925453
aF1.2316053787491037
aF1.2474229964718553
aF1.269525880355836
aF1.3019912398706039
aF1.3277002379637455
aF1.3443466595361551
aF1.3685810866232899
aF1.3984804559046911
aF1.4355750324517496
aF1.460852572211057
aF1.4948996531027956
aF1.5268570238239529
aF1.5522940777876273
aF1.5719325888893447
aF1.6024193084645637
aF1.633598364214381
aF1.6528693309141695
aF1.6741744069714672
aF1.7003470022341649
aF1.735298179037982
aF1.7582063751832995
aF1.7909792627750754
aF1.8300707159778025
aF1.8684354743589122
aF1.9062901732716007
aF1.9304116745252333
aF1.9651822643793164
aF2.0028643201051111
aF2.0355079559039346
aF2.0677432834609206
aF2.0974741272119317
aF2.1477636951029404
aF2.1758324097429544
aF2.2038264839493977
aF2.2387897181326624
aF2.2799150775007226
aF2.3116834558621813
aF2.3770756042717061
aF2.4423912978053499
aF2.5043639857858704
aF2.6183935138202945
aF2.6651645510870448
aF2.6996454559378718
aF2.7642312413471197
aF2.8501819058526374
aF2.8874618455541339
aF2.9299786710240685
aF2.9902882140860028
aF3.0106036707675705
aF3.0721304018549587
aF3.1161855866638852
aF3.2369909410932256
aF3.2937695851357418
aF3.3415607515486019
aF3.4135640311960804
aF3.4863864701809169
aF3.5495511431068625
aF3.6258591972624328
aF3.6947502192132147
aF3.7950739251414829
aF3.8952813228916106
aF4.0427476635565807
aF4.0982562136044365
aF4.2381714903602026
aF4.325585224629334
aF4.460333473236096
aF4.5891338691369086
aF4.6893335143109196
aF4.7853618220189347
aF4.8500011901031046
aF4.9499390325888388
aF5.0651986930646391
aF5.1906420764523
aF5.3052661921332698
aF5.3795959386387144
aF5.4884702877024898
aF5.6251182444238585
aF5.736009877510825
aF5.8235819678819309
aF6.0452731168242577
aF6.1535182776969091
aF6.4223906871159802
aF6.7828263511308
aF6.9787759843247965
aF7.2868999104783532
aF7.604505778440271
aF7.9090260134516059
aF8.4851413606010251
aF8.6965137695221202
aF9.0770837937907398
aF9.3896211096143869
aF9.7704946596107849
aF10.142102955347768
aF10.870897424798827
aF11.627557560059024
aF12.487371659037647
aF13.393741745878474
aF14.080823719400907
aF15.608105497185557
aF16.823724341129342
aF18.261126223618554
aF19.636996869210478
aF20.562702661180669
aF21.601610993499339
aF23.839730158552172
aF27.477708564377878
aF33.318576554469637
aF49.103081020159834
aF73.345872444192949
aF106.52935418648646
aF0
aF0.049394419396927715
aF0.064736734696013376
aF0.079308002177416376
aF0.087959980883483738
aF0.10194236904560904
aF0.11008607182951631
aF0.11465366805246813
aF0.12715531070407432
aF0.13166809405389251
aF0.13847247629313228
aF0.14384864573811881
aF0.15002396002358567
aF0.15562720051884482
aF0.16116827009383153
aF0.16632968738513401
aF0.17136648014616976
aF0.17900086203665841
aF0.18694008640938087
aF0.19702916534694626
aF0.20392975208968295
aF0.21361422240935368
aF0.22042948071555513
aF0.23063300033673573
aF0.23966278802965957
aF0.24711447349179011
aF0.25303301261186184
aF0.25579240638304279
aF0.26267170853506805
aF0.26750482270286108
aF0.27493473053623635
aF0.28258910182162267
aF0.28822901265050227
aF0.29608647684984479
aF0.30214524820456018
aF0.30864368126348923
aF0.31508865166237593
aF0.32124032165523375
aF0.33011261444903611
aF0.33703483646960708
aF0.34733723809596734
aF0.35691769635678916
aF0.36690708933320493
aF0.37128928317734283
aF0.37755689980492391
aF0.38701609409764459
aF0.39302164725609023
aF0.40331084641477311
aF0.41072208837025759
aF0.41852937501544424
aF0.42932124920083142
aF0.43324849767497853
aF0.43993900664314145
aF0.44761176101936301
aF0.45202419082248341
aF0.45529173163984443
aF0.46653702581395917
aF0.47399725820611593
aF0.48198881472501576
aF0.48708257057534343
aF0.49302150180651805
aF0.49978383605626248
aF0.51339894682816312
aF0.52160424774706593
aF0.52748289873084886
aF0.53676595811893124
aF0.5455171486636371
aF0.5534396873141485
aF0.56241263737675429
aF0.56973323223537264
aF0.57574914723880954
aF0.58234713319994302
aF0.59066240355655708
aF0.60510984788748057
aF0.61807462013879144
aF0.62637623226295402
aF0.63542696189453973
aF0.64701799464926024
aF0.65882045306679504
aF0.67141179273787532
aF0.67909380683392095
aF0.68707873750652504
aF0.69640315687854726
aF0.70807547488547196
aF0.71771853550219356
aF0.73309718820363279
aF0.74214506352540133
aF0.75177033126786774
aF0.76943956404912883
aF0.79020165814710741
aF0.80781062970338047
aF0.81634889994531135
aF0.82618810526895436
aF0.84005098189915028
aF0.86666756102772669
aF0.87735918829690207
aF0.88554074010562978
aF0.90240999323032145
aF0.91632635431957332
aF0.92982256792581119
aF0.93859572806129865
aF0.95740797855505955
aF0.97317410516930258
aF0.98783906755984918
aF1.0108980555570175
aF1.0284511401075709
aF1.0482594431498151
aF1.0611613677510832
aF1.0784870131371229
aF1.0919180174352818
aF1.1135514694962279
aF1.125494491992268
aF1.1410712650872479
aF1.1674352256776539
aF1.184785119317356
aF1.2096294450605212
aF1.2323778220867625
aF1.2549931419768594
aF1.2806924911813222
aF1.3081961580241186
aF1.3320238796794894
aF1.3534172327636966
aF1.3807267144923916
aF1.4001500408447822
aF1.4316269135391197
aF1.449518126496226
aF1.4807942237706289
aF1.4996141554775
aF1.51697171202322
aF1.5501818193618728
aF1.5774423949301954
aF1.6090796134626164
aF1.6337740770081619
aF1.6692908417512815
aF1.6961331386742853
aF1.7261310689460392
aF1.7616614368687207
aF1.7805522635031978
aF1.8048113834777242
aF1.8629871128198423
aF1.9197945215709944
aF1.9552472287743048
aF2.006402075733154
aF2.0427474979249962
aF2.074496897491799
aF2.1328916089262004
aF2.1753943657622523
aF2.2401831220855666
aF2.270693018282933
aF2.3105641384054061
aF2.3945586906581622
aF2.4399768881846882
aF2.5000049081492532
aF2.5621934580643706
aF2.6392295124107816
aF2.7208587148102463
aF2.8097139724064282
aF2.8701110813681128
aF2.9862082469647095
aF3.0488516638446339
aF3.1242308091436368
aF3.243153466201278
aF3.3051260648856364
aF3.4863819457159302
aF3.5505875681994588
aF3.7448427188152658
aF3.8463429990501901
aF3.9838928478843263
aF4.1238239879386667
aF4.2490672817706532
aF4.3599387844761468
aF4.473253957654526
aF4.6690383558822228
aF4.8383638550300123
aF5.0032896939841258
aF5.1925150031279994
aF5.4083749056768973
aF5.8187938054935762
aF6.1416785529469493
aF6.5966499906173439
aF6.9452175432435155
aF7.3694350201120091
aF7.6611410187916773
aF8.1962221951718313
aF8.3985520655394108
aF8.954871482916916
aF9.5555811691967367
aF10.075581787179221
aF10.666984624254228
aF11.269430893231096
aF12.244383827267271
aF13.43327333120301
aF15.035950482663642
aF16.932372656888262
aF19.087843838164819
aF21.876507647307918
aF24.329735267714369
aF32.551612521357441
aF42.817333269075768
aF80.868741705532841
aF263.02173214876871
aF0
aF0.039467746129120185
aF0.051824916097853023
aF0.061771901689009187
aF0.071565972010870144
aF0.076518802143588971
aF0.085618493830758285
aF0.093725626920029337
aF0.10393841275774901
aF0.11413580827974683
aF0.12152641148533293
aF0.12627525292174707
aF0.12968718206917149
aF0.13855089010953145
aF0.14242136361586646
aF0.14961341703535569
aF0.15878848104707796
aF0.16821185149526602
aF0.17193496653825602
aF0.18370817507532361
aF0.19347902698219727
aF0.20136482066552064
aF0.20583838921300673
aF0.21305461768025999
aF0.22181194102152516
aF0.22504305621818932
aF0.23406898010225857
aF0.2398853548764919
aF0.24436856459787337
aF0.25265341913397688
aF0.26007714837241541
aF0.26691829493661323
aF0.26931297477030441
aF0.27726914154785853
aF0.28210711764692858
aF0.2859614857691346
aF0.29125186385881313
aF0.29881267745856349
aF0.30375673974281647
aF0.30854811947856214
aF0.31656603656425492
aF0.32546607312581727
aF0.33113501361486541
aF0.33582693482769788
aF0.34276150289703894
aF0.35127805306418919
aF0.35845367388296762
aF0.36558831277905995
aF0.36979924962746219
aF0.37578338456878752
aF0.38327703665171509
aF0.38743278300825934
aF0.3933947408991858
aF0.40090502054506943
aF0.41078320064762447
aF0.41434452765896151
aF0.42079409894287106
aF0.4255673661624485
aF0.43408043802357538
aF0.43842453852669183
aF0.44479957009297705
aF0.44911932255159215
aF0.46075892982346434
aF0.47136693037959077
aF0.47672759686825411
aF0.48530543752076094
aF0.49072973814548543
aF0.49757125712438277
aF0.50205891056941676
aF0.50989707552295971
aF0.52048634390291548
aF0.52487724594117247
aF0.53197428010086045
aF0.54193181090656062
aF0.54669601892015796
aF0.55199308212187415
aF0.56177797788147832
aF0.57397840735843453
aF0.58305121749436828
aF0.58875829816518199
aF0.60014475586825022
aF0.61146976460798996
aF0.62147757074967558
aF0.62937535472116102
aF0.63521150679693283
aF0.6443683639844624
aF0.65570350537151256
aF0.66248422346281488
aF0.67431167007929649
aF0.68081103970994383
aF0.70070897539479826
aF0.70949394177954128
aF0.72368744374810079
aF0.73324494948980001
aF0.74442385396599853
aF0.75726956491948028
aF0.76814002853040864
aF0.78549563545170853
aF0.79690455102462399
aF0.80911780465283023
aF0.8217559489409707
aF0.83736881584366574
aF0.84769382359635626
aF0.86418498778599284
aF0.88747705639947372
aF0.90131822030096298
aF0.91456928681735306
aF0.926248872898779
aF0.94662179325634455
aF0.95246146300701406
aF0.96865365604621834
aF0.98601045426396106
aF1.004370843669373
aF1.0278846153106977
aF1.044847701668429
aF1.0629345673978381
aF1.0786014914723667
aF1.0929756602733387
aF1.1261078972699916
aF1.1512164532678049
aF1.1694773456967209
aF1.2047879047450252
aF1.2191337268903064
aF1.2371236242769537
aF1.2604030750182345
aF1.2728991082384753
aF1.3021733465601504
aF1.3366400801240468
aF1.3669786453201016
aF1.3893263316106292
aF1.4142311210562548
aF1.4371089884829913
aF1.4735470017754577
aF1.520014037615578
aF1.5362080843085604
aF1.57308131482694
aF1.6005512179859467
aF1.6311466151664402
aF1.6766677965478609
aF1.702427114649556
aF1.7358113192351368
aF1.7589620076466705
aF1.8122197381889422
aF1.8371172353927989
aF1.8839698049061866
aF1.9368978033833055
aF1.9859165193893249
aF2.0266473776917446
aF2.0435418938412577
aF2.0904755804619093
aF2.137008395650732
aF2.2105679265040039
aF2.2912315391120952
aF2.3171846492564172
aF2.3789143587376254
aF2.4392413643504884
aF2.4804720034966028
aF2.5405224136745002
aF2.5964604917467198
aF2.6705999263123781
aF2.7251943964162413
aF2.772341712266535
aF2.8651026212603763
aF2.9882335264110305
aF3.0505642000004207
aF3.1879882564475781
aF3.2713189106502325
aF3.3340572644275901
aF3.3973177283139346
aF3.5111941452660176
aF3.6432762400676104
aF3.7893397930271497
aF3.8962740628195554
aF4.0871617267378353
aF4.2202691837388713
aF4.3774443034324424
aF4.4936111350115695
aF4.7506236842341369
aF5.0112340217497193
aF5.3496875229084306
aF5.5766544089000956
aF5.8287954513602722
aF6.3423620558230542
aF6.7899919751160516
aF7.1981726869941802
aF7.7399452080885132
aF8.3342259680123636
aF9.1990412068218603
aF9.6467855088846335
aF10.137584353746163
aF10.89364428926409
aF11.552396435112094
aF13.030143614298112
aF14.095239648815568
aF16.252904088875191
aF20.637122578101994
aF25.04746535648458
aF29.349607631916427
aF39.069463698724505
aF53.341542218906731
aF131.24704840076191
aF0
aF0.032884942472054493
aF0.044042928317071753
aF0.051717952097554462
aF0.058447068850037934
aF0.068821794240992967
aF0.076446506641690143
aF0.083331576500669718
aF0.090983634325567123
aF0.097188602723129819
aF0.1088593709111567
aF0.11459623029540639
aF0.11844837313630252
aF0.12384168852201749
aF0.12684488135204505
aF0.13447015956640213
aF0.1391542676007054
aF0.14625472031000056
aF0.15200345906187301
aF0.15688159917859762
aF0.16356525869840099
aF0.16595293381775883
aF0.17208869146003852
aF0.17708137414161021
aF0.18245018966878032
aF0.18979132041734897
aF0.19637969400495253
aF0.2032346071402627
aF0.20694798677484283
aF0.21265331651833888
aF0.21882977443215981
aF0.22494202116978182
aF0.23178859272489064
aF0.23787915511551139
aF0.24313950482755242
aF0.24682307808790133
aF0.24943612844036106
aF0.25577269021993287
aF0.26291464226288852
aF0.26970943169082667
aF0.2725648028979728
aF0.28144606977956577
aF0.28556551666434349
aF0.29091966470999592
aF0.29709027671048366
aF0.30175232279695008
aF0.30845384710365537
aF0.31297498910818361
aF0.3160194068150165
aF0.31918148875981589
aF0.32331388150265972
aF0.32927405147803945
aF0.33377069470184595
aF0.33894412800963025
aF0.34522709990281475
aF0.35123488575457434
aF0.3558821207267826
aF0.36144785378066896
aF0.37019315147158249
aF0.37724004091309249
aF0.3829924502040804
aF0.38790812361879717
aF0.39588105871510798
aF0.40044226663641691
aF0.40836868589232361
aF0.41402643554261809
aF0.41875667916369519
aF0.42450774070868258
aF0.43229589405318924
aF0.43734997488844168
aF0.44538394823457816
aF0.45353980762093016
aF0.45851077590488476
aF0.46383676125545098
aF0.47059046215711398
aF0.4762006151939136
aF0.48431439285713834
aF0.49389826855702679
aF0.49974442650636974
aF0.50732118012468475
aF0.51342129390440416
aF0.52297582923711328
aF0.53288748131056163
aF0.54544803680941312
aF0.55056947454571459
aF0.5630440930673537
aF0.57647988095569747
aF0.58254891183837865
aF0.59122845087621589
aF0.5957914205706567
aF0.60314265091258978
aF0.61908921631667679
aF0.62247554745711642
aF0.63329981498300048
aF0.64301069689433055
aF0.64989657369654952
aF0.65888445152749431
aF0.66647227612873217
aF0.67668838768171136
aF0.68893091987254185
aF0.7025879217168467
aF0.71826561462270089
aF0.72771455488965531
aF0.7391009553915564
aF0.75223783989741744
aF0.76166485140694018
aF0.77084000065236591
aF0.79065365493321382
aF0.804383247442233
aF0.81683812596185346
aF0.82843493554640024
aF0.84246759604107702
aF0.86350701623054671
aF0.88180313041705505
aF0.90376335449490075
aF0.91286915972557914
aF0.92036986380455399
aF0.9291438387362384
aF0.95352040422537032
aF0.96809418471522612
aF0.9828969762772849
aF0.99701637984191405
aF1.0053920653287929
aF1.0224322964595809
aF1.0436497009914834
aF1.0616070630675405
aF1.0802764748267883
aF1.0951850173844457
aF1.1193411761447549
aF1.1379681972224709
aF1.1599468248342446
aF1.1886340506700033
aF1.2148385191461482
aF1.2481418152125123
aF1.2792573174668869
aF1.3154615262708993
aF1.342394558445551
aF1.3629899838283757
aF1.3761143300434635
aF1.4093858037430134
aF1.4522804850005502
aF1.4748979300612479
aF1.5306210379322103
aF1.5495843761095305
aF1.584244002737959
aF1.6126131532613874
aF1.6604506166505426
aF1.6921120149154147
aF1.7126738210319639
aF1.7396125064233854
aF1.785135464734434
aF1.824889085813346
aF1.8829431177071814
aF1.9343935926685978
aF1.9916768565010168
aF2.0267961688503453
aF2.0766377474824029
aF2.1330899777256795
aF2.1848037174415449
aF2.2801579583808342
aF2.3579957571857286
aF2.4501358388830012
aF2.5153457412512981
aF2.582374390832427
aF2.633575300083673
aF2.7077686567647499
aF2.7684316125814457
aF2.8476458237947857
aF2.9627792222491238
aF3.0403520366260612
aF3.1093550063736379
aF3.2559496906005565
aF3.384456584459806
aF3.5451252896822063
aF3.658802669941331
aF3.8535789702629515
aF4.1036627374662622
aF4.3847833011124493
aF4.5324017993862
aF4.6567473442819232
aF4.8795997539612124
aF5.0351805245400989
aF5.4071167044869721
aF5.8112812324471728
aF6.387968909517352
aF6.6133968886491754
aF6.9446864587547097
aF7.5543017399007653
aF8.3092309621502434
aF8.9855329925540648
aF9.7607248945108189
aF10.562225389927731
aF11.547524333694614
aF13.042152628954279
aF15.066816239535164
aF16.843645091885804
aF22.29298319668764
aF27.78918358142127
aF36.15482791135674
aF48.467620573432804
aF150.75527930067238
aF0
aF0.030475436329936944
aF0.041455577211803325
aF0.050587167936695224
aF0.058798726126600857
aF0.065119327951945208
aF0.073499955494061478
aF0.07885113088345877
aF0.085143786389228412
aF0.08965572615115161
aF0.094178377769283547
aF0.098501280404947864
aF0.1030958981377707
aF0.10869385918561442
aF0.11297670615452211
aF0.11689141102215121
aF0.1214840331703515
aF0.12584718500031158
aF0.12987214864837779
aF0.13468557220683824
aF0.13924503288786391
aF0.14386351348014154
aF0.1493340912759876
aF0.15399302445531154
aF0.15891197422219733
aF0.16342430790220985
aF0.16862541478716603
aF0.17284449028563825
aF0.17822842307181602
aF0.1820267480405092
aF0.18688153961477047
aF0.1927267317388851
aF0.1970428163553993
aF0.20121205502603673
aF0.20565232504914904
aF0.20898176045815323
aF0.21456701344386478
aF0.2193381728343505
aF0.2241310071800133
aF0.22817700334024027
aF0.23233337863145165
aF0.23720906624202601
aF0.24191353394033271
aF0.24708942468474382
aF0.25285280260759901
aF0.25671572324736464
aF0.26213421506917656
aF0.26638683139162828
aF0.27152578772723279
aF0.2762872026065426
aF0.28128390667450365
aF0.28593911283892171
aF0.29087431204884701
aF0.29557087416205607
aF0.30019592182315891
aF0.30513806758216755
aF0.31016793114986319
aF0.31616724797260032
aF0.32041768091414635
aF0.32514136402938837
aF0.330175514469844
aF0.33510934856577768
aF0.34052636062698755
aF0.34595494789256998
aF0.35149217534601079
aF0.35744012588115681
aF0.36163975663483183
aF0.36600266939188625
aF0.3715301308425546
aF0.37731624495426341
aF0.38179171447482013
aF0.38695470344853578
aF0.39172315899130233
aF0.39614948723382537
aF0.3998385857290081
aF0.40528704514340191
aF0.4113906789211898
aF0.41723754661044737
aF0.42330595508586388
aF0.4298295205380972
aF0.43639003733749093
aF0.44294781550179985
aF0.45031606698625348
aF0.45589276061599149
aF0.4637504954853186
aF0.46972702984856168
aF0.47691662036234045
aF0.48515870923762039
aF0.49260277947704278
aF0.50180009274783677
aF0.50899844136237671
aF0.51521773387918002
aF0.52259062361544673
aF0.53071416140395877
aF0.53996499482812654
aF0.54675197629336969
aF0.55561683421554353
aF0.56353596314369636
aF0.57266468438633022
aF0.57882534017246046
aF0.5879193586669369
aF0.59795376910115772
aF0.60910017566901453
aF0.62152501089463474
aF0.62899125612273621
aF0.63944993844645304
aF0.65079039292032037
aF0.65990599756610113
aF0.67267050134312967
aF0.6811396504155568
aF0.69102170908780658
aF0.70572381661063954
aF0.71917690416970415
aF0.73053302980642632
aF0.74479922749569372
aF0.75660131757288107
aF0.76966460911714163
aF0.78382775044111574
aF0.79890547769142994
aF0.81316878697223616
aF0.82632592595142507
aF0.84038976545168742
aF0.85889454588180414
aF0.87584528603730916
aF0.88938215721139913
aF0.90647622547342221
aF0.92517109894543503
aF0.9420929353690477
aF0.95887351889851813
aF0.97485760015251421
aF0.99539728475785438
aF1.0168269490191464
aF1.0321969253945085
aF1.0509239949366704
aF1.0749039195763974
aF1.0954893550189169
aF1.1204402411184233
aF1.1460855159498731
aF1.1725936611440071
aF1.1991674830298438
aF1.223355141542398
aF1.2503166821062022
aF1.2755553790294463
aF1.2974083183962621
aF1.3271479307498393
aF1.3598997679834393
aF1.3966740129081683
aF1.4270275926175096
aF1.4608948615990871
aF1.4952195611664525
aF1.5313585561683203
aF1.5640142535985393
aF1.5994377044435546
aF1.638305110435522
aF1.6786361340413112
aF1.7240031947949774
aF1.7621335157109532
aF1.8101134128648371
aF1.8620922391744734
aF1.9224643921259204
aF1.9710346661166867
aF2.0344533242374103
aF2.0831877260508893
aF2.1372551671286524
aF2.2034358794278646
aF2.2716335521446531
aF2.3429160177345003
aF2.4104357266981919
aF2.480935437184201
aF2.5343673042490624
aF2.6084557648811311
aF2.7199516996724253
aF2.8338987909810287
aF2.9216428190030639
aF3.0360484810989852
aF3.1500945673097052
aF3.270619104044989
aF3.4227068074159761
aF3.5665311638055055
aF3.7247617410661675
aF3.925297648069769
aF4.1375118576391934
aF4.3398004727933692
aF4.5346219219569655
aF4.7447780176553112
aF5.0148304110646036
aF5.3334608060172872
aF5.7276260586600891
aF6.1890543526613122
aF6.6801902478700868
aF7.2800631153055209
aF7.8835838788384223
aF8.6803326930194569
aF9.7122609465184322
aF10.941190698085899
aF12.542472669018284
aF14.627074477598748
aF17.832826769519468
aF22.898509435438054
aF33.157382047966806
aF268.8200344237456
aF0
aF0.028898274302596512
aF0.040633940377108956
aF0.047933728659069468
aF0.054523381031400885
aF0.06011329230279238
aF0.065188383675028702
aF0.071626919796562605
aF0.077168570402807349
aF0.083037174267918165
aF0.08755686111436492
aF0.092118428080118928
aF0.096425123862060327
aF0.10043552253883403
aF0.10554902051980319
aF0.11009718665642487
aF0.11326275217950955
aF0.11698509676168573
aF0.12080022735318345
aF0.12517509152109374
aF0.13013769328680053
aF0.13345882034603812
aF0.13747142162715098
aF0.14150064959740938
aF0.14442943761896229
aF0.14941148229826645
aF0.15440519818373027
aF0.15783715568801643
aF0.16265630037450993
aF0.16672946241207018
aF0.17011132508732738
aF0.17420920933779047
aF0.1787571250538082
aF0.18406358630263245
aF0.18924049544452431
aF0.19306320330392984
aF0.19641759705419837
aF0.20044589719386452
aF0.20365259207914921
aF0.20746114210240005
aF0.21178663359554398
aF0.21561802968012542
aF0.2201648522340745
aF0.22394901627082189
aF0.22890960512700576
aF0.23288763477408511
aF0.23799769247855981
aF0.24277846906856382
aF0.24620220114345401
aF0.25085581063453694
aF0.2547852657654528
aF0.2584622001605798
aF0.26226644168550362
aF0.26587748056735006
aF0.27001206297540875
aF0.27333957150348165
aF0.27844160533530171
aF0.28262027978412785
aF0.28651353733567758
aF0.29232034746442948
aF0.29580376680146625
aF0.29935090999568476
aF0.30309728324775276
aF0.30715090410428514
aF0.31201121511000857
aF0.31571249520502215
aF0.31981978170465836
aF0.32351704294037775
aF0.32816906538652812
aF0.33260532162929424
aF0.3375253795185012
aF0.34227658789873155
aF0.34672628630214691
aF0.35173264439552276
aF0.35642244422141933
aF0.36316985109331051
aF0.36811409230691677
aF0.3739818336331292
aF0.37900422010827939
aF0.38371686137179334
aF0.38830090222693142
aF0.39314672036266179
aF0.39750505605076314
aF0.40399586297398238
aF0.40779084214158268
aF0.41471724442253388
aF0.419908928474307
aF0.42527068506941523
aF0.43082110702825382
aF0.43546343483577804
aF0.44058928875209435
aF0.4501165160939869
aF0.455800248584872
aF0.46250910353077601
aF0.4679792550227716
aF0.4771052601340332
aF0.48317268060065444
aF0.49024307149325064
aF0.49795121259530739
aF0.50489713934710001
aF0.51144292478572784
aF0.52042454216218859
aF0.52715808936571795
aF0.53458634795400084
aF0.54336964463015824
aF0.55167313602281232
aF0.55895482076372938
aF0.56755092529864581
aF0.5767512365389893
aF0.58757892054706506
aF0.59812779085356993
aF0.60674604159456691
aF0.61595140194035713
aF0.62390929987658528
aF0.63464413788738838
aF0.64205470333131864
aF0.64919687404877857
aF0.66358361675173039
aF0.67457487585108067
aF0.68565375079097346
aF0.69515353663280854
aF0.70835712049313537
aF0.71637388222414811
aF0.72810587108889246
aF0.74259519148707775
aF0.75505940962506923
aF0.76533718705099252
aF0.77978770960457156
aF0.79277034764412091
aF0.81042776509929326
aF0.8252185957527518
aF0.84081567710998861
aF0.85591239426333621
aF0.87366392436831841
aF0.8906804437761574
aF0.90431935636817162
aF0.92374870367862294
aF0.9403922748286605
aF0.96024005012655089
aF0.9834409532310171
aF1.0063612444728725
aF1.0237103083075751
aF1.0406894015881631
aF1.0646614938416241
aF1.0953872473777502
aF1.1182073342474079
aF1.1431128152282664
aF1.1700990970833274
aF1.1937825903128636
aF1.2194906544605457
aF1.2510699786546229
aF1.2724440268105714
aF1.3012328136568787
aF1.3306077291828782
aF1.3661125359622348
aF1.4057121542663247
aF1.438874003521625
aF1.4852719546886077
aF1.53160091645302
aF1.5835611112903651
aF1.6195792978908965
aF1.6633225682365109
aF1.7092772469624007
aF1.7547058942561764
aF1.7983361923251511
aF1.8554877739779563
aF1.9046272406631959
aF1.9419569456472263
aF2.007485115392952
aF2.0766613504192311
aF2.1363921756522712
aF2.2042343314393218
aF2.2881456308297792
aF2.3461181458892382
aF2.4247974852833076
aF2.5226066296330565
aF2.6287822381475663
aF2.7093614689581362
aF2.8121552403853838
aF2.9431246632384611
aF3.0643163534914351
aF3.196540002859162
aF3.3476671295609703
aF3.578795801196712
aF3.7570824917749248
aF3.956586592960103
aF4.1768360199630372
aF4.472267971856815
aF4.7565859357335603
aF4.9434439507675787
aF5.3520609425930763
aF5.8616989500167476
aF6.4670935400506355
aF7.1530922193648818
aF7.7821104509969494
aF8.8151940771286945
aF9.7442668096522507
aF11.579039475678208
aF14.881052320293959
aF23.3134974983852
aF162.64936699836366
aF0
aF0.024602282011824184
aF0.033143590712601562
aF0.04010112014507021
aF0.047902150582693877
aF0.053593751494366668
aF0.062881795990017086
aF0.069817105932830248
aF0.074260939707892284
aF0.078749877606011834
aF0.081760044924091488
aF0.084762821011376818
aF0.089159093597265968
aF0.094139760178390847
aF0.097396291127248735
aF0.10077623786944703
aF0.10375890948969808
aF0.10775393339205297
aF0.11107421600652036
aF0.11454249675077989
aF0.11920949455998719
aF0.12303922825017929
aF0.12645066727981549
aF0.13048462720436904
aF0.1341988563625206
aF0.13791508807970299
aF0.14051821878738302
aF0.14390700642876164
aF0.14729815411578639
aF0.15116482000305284
aF0.15414159957761076
aF0.15804245202080439
aF0.16172156388894671
aF0.16616763697232559
aF0.17065475263188637
aF0.17483972650814011
aF0.17834701051598184
aF0.18178605513225987
aF0.18596570995349604
aF0.19037643524106021
aF0.19362400150613118
aF0.19718898681246891
aF0.2022368611342357
aF0.20627559864432171
aF0.21047667837856643
aF0.21441293730751429
aF0.21798145949842526
aF0.22269174316657275
aF0.22805839010378598
aF0.23142809067166253
aF0.23544682877794354
aF0.23918263561370051
aF0.24332300301909804
aF0.24826906410872435
aF0.25329675001124591
aF0.25742137093006096
aF0.26143472523908162
aF0.26537197580924371
aF0.26880822609496718
aF0.27325053108693759
aF0.27801599017393808
aF0.28185455264796982
aF0.28551898655760571
aF0.28969797468999514
aF0.29469614849601827
aF0.29819033120752614
aF0.30227519353061394
aF0.30780461335572351
aF0.31237611153645817
aF0.31627202746095395
aF0.31963567780659174
aF0.32237740964523504
aF0.32589638801542542
aF0.3305286646674907
aF0.33420221321848032
aF0.33989663227054645
aF0.34416327912283068
aF0.35034447837510441
aF0.35498972403807633
aF0.35855091882620921
aF0.36327633213491833
aF0.36753998247607372
aF0.3729367659785795
aF0.37985192360779313
aF0.38437016760352599
aF0.39005755502373884
aF0.39482572425216256
aF0.4001927093622929
aF0.40602742972788325
aF0.41233512801313243
aF0.41899152804988438
aF0.42337530114761357
aF0.42792125565896905
aF0.43382026465554158
aF0.44268614546944335
aF0.44830619792220222
aF0.45415410061721351
aF0.46167530106933863
aF0.46895550041529654
aF0.47530473993436245
aF0.48211460809658874
aF0.48857483722379846
aF0.49668510358579077
aF0.502197066237135
aF0.50751626698891095
aF0.51264907367868728
aF0.51969473148215983
aF0.52818547378333625
aF0.5349708260232352
aF0.54112734609955404
aF0.54811112287301356
aF0.55616647069377034
aF0.56629653003164915
aF0.57402173658393196
aF0.58265287411054412
aF0.5936899552780841
aF0.60345904162633524
aF0.61533841077412088
aF0.6228300863754348
aF0.63457632801607111
aF0.64512830577873503
aF0.65448141887048117
aF0.66218373436088196
aF0.67678504831115915
aF0.68732881229737786
aF0.69861201377323079
aF0.70832408210492892
aF0.72121539173424809
aF0.7359553436177424
aF0.7531392829935406
aF0.76543733074434961
aF0.77710358182478712
aF0.79485555672259334
aF0.81224713754094657
aF0.82988361758294238
aF0.84792677249400605
aF0.86258822924608003
aF0.88223434681999902
aF0.8944425527153399
aF0.90955292927291309
aF0.92359168030991856
aF0.94256546540532238
aF0.96434694242106067
aF0.98312881507572292
aF1.0032438887848716
aF1.0221149781502081
aF1.051983899991995
aF1.0734774915118375
aF1.099530441789152
aF1.127960244545553
aF1.1534134957090025
aF1.1740889749056131
aF1.2012742900536555
aF1.2342300186242645
aF1.2639939024901934
aF1.2928179180773745
aF1.3208800657063657
aF1.3529947499482198
aF1.3990112708325715
aF1.4319941184494371
aF1.4710663063309652
aF1.5244700765754542
aF1.5635439274849725
aF1.5954367199073531
aF1.6323134541541804
aF1.6724715064169311
aF1.7158054453195073
aF1.7557217613084009
aF1.8048129564898812
aF1.8315787027457608
aF1.8815354841358516
aF1.9566650167344006
aF2.0217329340053252
aF2.0871078895617967
aF2.174040010957027
aF2.2381267311291735
aF2.3160142472723693
aF2.4147723365413021
aF2.5376474031182616
aF2.6272818671259373
aF2.7401975123216742
aF2.8684444249229628
aF3.0130575018172316
aF3.1604260734920331
aF3.2962359526985634
aF3.4644518032671439
aF3.6844961008964079
aF3.869097249632687
aF4.0583540650809953
aF4.2786209475461598
aF4.5240194654211052
aF4.822566531353826
aF5.2714477848841934
aF5.9366668833227134
aF6.6736260326271726
aF7.4551267397319529
aF8.3647745090344028
aF9.8450415285668225
aF13.306780281265262
aF17.423150761794336
aF35.674610410451407
aF0
aF0.026072158368489466
aF0.036900224781724264
aF0.045624066076788504
aF0.051368104055365224
aF0.057774560304207197
aF0.063146496944509634
aF0.067588098405070435
aF0.071805619462746537
aF0.07613539155227117
aF0.080103152511407455
aF0.083942709652846864
aF0.087666574981076481
aF0.091817280544786176
aF0.095686966687175301
aF0.099145626961583258
aF0.10201499654232103
aF0.10517988601597632
aF0.10903765629410936
aF0.11233875871599709
aF0.11536415976301187
aF0.11841077260641984
aF0.12163826850713737
aF0.12514181216632086
aF0.12858606228948036
aF0.13177179631102987
aF0.13482024094190459
aF0.13784834878294833
aF0.14173344180612701
aF0.1443921643498963
aF0.14823517008509296
aF0.15145826578672161
aF0.15493735233574032
aF0.157933736355726
aF0.16144421044205534
aF0.16496481804605914
aF0.16826466934931564
aF0.17176157430765859
aF0.17500874461399182
aF0.17804879932812664
aF0.18119742226991276
aF0.18460902834327048
aF0.18841699006227006
aF0.19203375816854248
aF0.19532030848596255
aF0.19938169412343268
aF0.20296708531160809
aF0.20618735671870392
aF0.21005410851308523
aF0.21234742151711827
aF0.21601167034217333
aF0.2193383757310533
aF0.222820615737646
aF0.22619381050579929
aF0.23003091052614577
aF0.23415565946236791
aF0.23843514043598069
aF0.24127671289852604
aF0.24517794764409234
aF0.24860194155386806
aF0.25245137707720106
aF0.25637962117578617
aF0.26045765403062382
aF0.26378413560952962
aF0.26727514960402926
aF0.27133464777153365
aF0.27484241340019733
aF0.27916743423061174
aF0.28346759202211091
aF0.28803025780779556
aF0.29103424057548449
aF0.2948369270235498
aF0.29857003211993777
aF0.30250669156367849
aF0.30693020880140259
aF0.31089496342193434
aF0.31523727395296902
aF0.31963281400208449
aF0.32299918409538603
aF0.32683085030433912
aF0.33075648000217506
aF0.33471837712211988
aF0.33909222602081823
aF0.34276815018760209
aF0.34765709135230655
aF0.35209532653578884
aF0.35661461412974371
aF0.36104303543672206
aF0.36462562668761184
aF0.36940962892850221
aF0.37390697111571997
aF0.37904116253667841
aF0.38404481300200927
aF0.38891575774564258
aF0.39360053923178462
aF0.39785365298982145
aF0.40294361388219591
aF0.40892518527823574
aF0.41407469140496583
aF0.41971691479383916
aF0.42599384924960337
aF0.43117256502009815
aF0.4364633576555077
aF0.4415508493771485
aF0.44655303590621287
aF0.45317266402900153
aF0.45915054065776795
aF0.46466311475985489
aF0.47082285538337654
aF0.47636350784519593
aF0.48258249873987841
aF0.48865756797890558
aF0.49554799425562435
aF0.50243188982979481
aF0.51091693503362012
aF0.51956374319976362
aF0.52657472160011631
aF0.53391907857488219
aF0.54231740014001373
aF0.55062127393281413
aF0.55819389427687915
aF0.56684075835760694
aF0.57623528957134074
aF0.5852137336415546
aF0.59460081643291185
aF0.60431695479865122
aF0.61470640426964351
aF0.62697542247017701
aF0.63629726675946074
aF0.64618052793061942
aF0.65666316630386357
aF0.66697229921408963
aF0.67607240691087234
aF0.68567631485065328
aF0.69828642365744309
aF0.70939742170743159
aF0.71984730245856587
aF0.73335327137205786
aF0.7491983752217467
aF0.76288874208982593
aF0.77518238687845964
aF0.78603287042076431
aF0.79995968268653628
aF0.81111128891867956
aF0.82484474830527166
aF0.83982849255420589
aF0.8570889681002567
aF0.87095612444570292
aF0.88896785472177609
aF0.90333809106860474
aF0.92310933391162042
aF0.9405629243797472
aF0.95692109407032377
aF0.97963547072788137
aF1.0004217317748421
aF1.0236926463114733
aF1.0479024684311415
aF1.0736587494567686
aF1.1029019665569759
aF1.12906516845161
aF1.1535229840512065
aF1.183650543141433
aF1.2145616634515819
aF1.2433817141554775
aF1.2742936392427719
aF1.3109612706104625
aF1.3449613279449495
aF1.3823759584622277
aF1.4151051032327249
aF1.4538354777949225
aF1.4970878314012157
aF1.544365849864396
aF1.5852559389906491
aF1.6289127182967043
aF1.6763419507458905
aF1.7346054874616406
aF1.7874905505861236
aF1.8348302383376642
aF1.8883747008525986
aF1.9710178297482999
aF2.0327376391000698
aF2.1131140769950014
aF2.1969238514695641
aF2.2946506914354945
aF2.3927630404203812
aF2.4890825215958983
aF2.6207165719985688
aF2.7919843701169169
aF2.9728330577394462
aF3.1407377025361027
aF3.3485082966286388
aF3.5810252651374039
aF3.793190415760634
aF4.1676272347122065
aF4.4916169379050928
aF4.8904487124863456
aF5.4391848217865677
aF6.2263879924626009
aF7.5489807356158831
aF9.9553179387792401
aF36.574431675278419
aF0
aF0.028921816660492792
aF0.038476208480468108
aF0.045737177892749226
aF0.050347326935298052
aF0.054427244640566273
aF0.059679563902977878
aF0.062901418988622379
aF0.065683103076441055
aF0.069075624012220505
aF0.073207759498264968
aF0.075280554146869794
aF0.079462144204613699
aF0.083297706495367232
aF0.086394086487673827
aF0.088903479078186923
aF0.09243845286973873
aF0.094364478720997277
aF0.096709129954935052
aF0.099600772001187554
aF0.10194958435962591
aF0.10513809510421018
aF0.10794208190913103
aF0.11150222159681712
aF0.1142579134971833
aF0.11634657875634755
aF0.11969047101715455
aF0.12161519787344191
aF0.12385053356930883
aF0.12634084519901401
aF0.1291305476386892
aF0.13156417910210463
aF0.13417493406967573
aF0.13679964962661262
aF0.13945990964839527
aF0.14181342525248586
aF0.14549282281256487
aF0.14783340369717113
aF0.14958856732057474
aF0.15255382916645896
aF0.15544319048994837
aF0.1591542931569995
aF0.16119409443564187
aF0.16370574506975646
aF0.16653288283113751
aF0.16902699557221748
aF0.1717260132509677
aF0.17468466981937897
aF0.1779552731592591
aF0.18111140017332697
aF0.18333071563005016
aF0.18636531857836564
aF0.19016088025525124
aF0.19209155599903649
aF0.19565401433448046
aF0.19789779372738567
aF0.20022629670546713
aF0.20335515738656165
aF0.20665614531626331
aF0.20885428273616122
aF0.21207980049406244
aF0.21443174939028406
aF0.2181358361099921
aF0.2214704825023979
aF0.22450859729188807
aF0.22759981694087877
aF0.23010697985919781
aF0.23328733118479639
aF0.23565035124699107
aF0.23875228245044389
aF0.24183177104791836
aF0.2447595964898302
aF0.24820098427265322
aF0.25154143481035013
aF0.25581771326492664
aF0.26013522490314944
aF0.26367297455136646
aF0.26617604776659792
aF0.26987259220624055
aF0.27275363634505095
aF0.27623705412540422
aF0.27871993911088333
aF0.28203251770501186
aF0.28491073583870125
aF0.28814332922843749
aF0.29094277059610124
aF0.2938064288488651
aF0.2969815313602166
aF0.30045527623320389
aF0.30317724130982737
aF0.30666702944803848
aF0.30970778832795376
aF0.31259577673706118
aF0.31539427764199768
aF0.31988050312274674
aF0.32178656835758568
aF0.32443980138047129
aF0.3277688075192623
aF0.33195003313090921
aF0.33561880003007449
aF0.33962945622215918
aF0.34377428459224846
aF0.349067132730848
aF0.35295036042250361
aF0.35729246702459938
aF0.36187726953066712
aF0.36506622168141156
aF0.36986324059850173
aF0.37569852555383199
aF0.37905100286460758
aF0.38294669891233701
aF0.3866300329330194
aF0.39204361455678038
aF0.3962317851808338
aF0.4030804475511377
aF0.40814046916968216
aF0.4119865334190676
aF0.41817342893503151
aF0.42349477228870891
aF0.42867287716554325
aF0.43313666513603649
aF0.43739315237997622
aF0.44219051331195619
aF0.44643158583414966
aF0.4513416019103979
aF0.45705935192419134
aF0.46264308628398765
aF0.46825247944091547
aF0.47465420547020648
aF0.48174758431700188
aF0.48788633445295398
aF0.49349388643954339
aF0.49865197511805071
aF0.50773384443998426
aF0.51541046681270575
aF0.52255860785575936
aF0.5356310077627463
aF0.5406463000317947
aF0.55076304278607535
aF0.55854776590405919
aF0.56582581731679704
aF0.57267437404735588
aF0.58175877378359275
aF0.59034691980596277
aF0.59823264051739911
aF0.60957442271674445
aF0.6194670575252732
aF0.6294844755918888
aF0.63775217112429661
aF0.65038656712647513
aF0.66556623318671948
aF0.67830398239462752
aF0.68857340585147719
aF0.70637124241783045
aF0.72004520953233619
aF0.73226719735392387
aF0.7457490295034942
aF0.76151155409015303
aF0.7788125970268942
aF0.79515932542339285
aF0.81254279994519929
aF0.82700166070107894
aF0.84377746720044
aF0.8616801611253373
aF0.87312979926600642
aF0.89306244383302025
aF0.91157949941262495
aF0.93649830671061973
aF0.96045815324208017
aF0.98026017538300847
aF1.0032275044690475
aF1.0223665747906359
aF1.0503696830959937
aF1.0755078532636331
aF1.101139306224127
aF1.1388797172799137
aF1.1665602377614628
aF1.1971228830372136
aF1.2429765744431311
aF1.27151817897234
aF1.3196059857459572
aF1.3607077146634539
aF1.4080100832014402
aF1.4436105483598447
aF1.5062656999309187
aF1.5705018855286448
aF1.6196741040179319
aF1.7017546419225014
aF1.7817219551686443
aF1.8729498330391841
aF2.006473698316642
aF2.0957964833521063
aF2.2485598216783145
aF2.423609185843191
aF2.626008839643847
aF2.9939990973758333
aF3.246795944923798
aF3.6373053766092713
aF4.1523041564312617
aF5.165408952511334
aF14.439408507928594
aF0
aF0.018339072203810237
aF0.02329902841443731
aF0.028894088769264126
aF0.033732536832338969
aF0.039118065252253129
aF0.043508833467363728
aF0.047063221143802791
aF0.051667831189905436
aF0.055471945442740714
aF0.059563400199632022
aF0.063407265987904318
aF0.067563772217917817
aF0.070562077753977034
aF0.072564969601282711
aF0.075957653960410501
aF0.079471937233580703
aF0.081610948505659406
aF0.084336182277764543
aF0.085729555024764481
aF0.087912606080814831
aF0.090426742471708968
aF0.092226052618394103
aF0.095203088495300195
aF0.097507441529407504
aF0.09931583216850505
aF0.10098213901865467
aF0.10362977207550068
aF0.106536499498979
aF0.10886405033186211
aF0.11088891781357048
aF0.11328699495935905
aF0.11540087510304135
aF0.11799931027470408
aF0.12050531073316835
aF0.12242779955312402
aF0.12514823721707605
aF0.12721735558212802
aF0.12933447430330011
aF0.13203036634017445
aF0.13417276652072574
aF0.13682939156923718
aF0.13887038216932518
aF0.14017857392699531
aF0.14260782990365448
aF0.14507059221307408
aF0.14695417225791405
aF0.1497654226781093
aF0.15138564492801476
aF0.15472639458976323
aF0.15772367683889396
aF0.16045043223988531
aF0.16195088977448327
aF0.1653371285663317
aF0.16739293400606811
aF0.16902564888868615
aF0.17135686517783991
aF0.17417715392414423
aF0.17596450913872053
aF0.17803129891730965
aF0.1805883516853817
aF0.1825060880502859
aF0.1838873485985828
aF0.18554056668826283
aF0.18688214127303718
aF0.19034439134742612
aF0.19315414674660081
aF0.19515118537205678
aF0.19721801513205642
aF0.19995735714435001
aF0.202946145175666
aF0.20558544474904342
aF0.20755322999229742
aF0.20900643222762244
aF0.21121684498145538
aF0.2141429261516028
aF0.21798646354299808
aF0.22017242536159604
aF0.22218023639013998
aF0.22376317029676776
aF0.22537433505677418
aF0.22809119148663043
aF0.23139281037580572
aF0.23480276077988851
aF0.23684629676326219
aF0.23958019092042915
aF0.24220286199703944
aF0.24366569953375267
aF0.24625074936964272
aF0.24915921270974223
aF0.25224407083384365
aF0.2538581843802209
aF0.25651702169266016
aF0.26003397601516304
aF0.26243381994538789
aF0.26573203122069483
aF0.26815769894861019
aF0.27071592524571436
aF0.27210161216348083
aF0.27479515468230203
aF0.27748117382633419
aF0.280031855760834
aF0.28299682369589024
aF0.28524892290169052
aF0.28898573042967923
aF0.29228482183314008
aF0.29504239920787978
aF0.29806595908916128
aF0.30100912736728097
aF0.30284142122993929
aF0.30711397725763068
aF0.30933508238145735
aF0.31253352531706291
aF0.31451417053860403
aF0.31873834499509557
aF0.32074973819730013
aF0.3227054052696956
aF0.32713499329815404
aF0.32974764249150712
aF0.33492335792956868
aF0.33718040901799218
aF0.3445901607353572
aF0.34780889710624885
aF0.35093774887440915
aF0.35623622197550575
aF0.36041747761865661
aF0.3642024692932514
aF0.36810814698209304
aF0.37267235846192165
aF0.37479086986451726
aF0.37861500834946049
aF0.38309681552259905
aF0.38664479850030559
aF0.39090235429868447
aF0.39557988601615102
aF0.40024979955036705
aF0.40474065571274853
aF0.41182223255228778
aF0.41565261202748732
aF0.41888281162295166
aF0.42393582615245412
aF0.42822578404852624
aF0.43294724828815934
aF0.43951811737015356
aF0.44722396323185154
aF0.456459221718371
aF0.46045447756416902
aF0.46515308472591632
aF0.46794991783126505
aF0.47105981062684799
aF0.47694020659007907
aF0.48566640347419093
aF0.4925745593913089
aF0.49834783552581607
aF0.50583387303211413
aF0.51446464375101153
aF0.52037516362506031
aF0.53000380193173813
aF0.5385532513944602
aF0.54874910866185223
aF0.557812399599245
aF0.56788840989487577
aF0.57980243654512897
aF0.59369025108432061
aF0.60559961256557782
aF0.61889472781609867
aF0.62969186089776408
aF0.63837174738104929
aF0.65949504499792255
aF0.67141801254799327
aF0.68600870858985674
aF0.70043252145572876
aF0.71339160274800251
aF0.73333888359098232
aF0.7460716086234207
aF0.77171882001476177
aF0.79223386524767436
aF0.80514904996463144
aF0.83016666521645444
aF0.85350687238710088
aF0.87938142652533746
aF0.90714316395586614
aF0.94541747300904144
aF0.96712639337790818
aF1.0077289627906116
aF1.0578436059764642
aF1.0814656481052898
aF1.1213085582112645
aF1.1519192766424888
aF1.2067063531674953
aF1.2531782152469926
aF1.3107295260357585
aF1.3724083852801383
aF1.4468184839518206
aF1.5305694103262035
aF1.6312349936217583
aF1.756018052127331
aF1.8367605970857828
aF2.1866989616417953
aF2.6254576951184867
aF6.6659216112228403
aF0
aF0.022907607978118902
aF0.029821550682582357
aF0.041345273775706924
aF0.047618453577416696
aF0.050555949727830833
aF0.051530800253982594
aF0.054552378113468664
aF0.057086940000512496
aF0.060602812091659256
aF0.062248198918549692
aF0.064804482413347478
aF0.068044804113331997
aF0.068908259193016616
aF0.071132441977344307
aF0.072933767937089555
aF0.074986799025957215
aF0.077263304695632015
aF0.077976304453341666
aF0.080549007965029493
aF0.082270832598215493
aF0.085046708133008728
aF0.087447299482588489
aF0.088756661262206285
aF0.089943943671740606
aF0.091007938101520788
aF0.094928097449594656
aF0.099174513732067163
aF0.10225836726704171
aF0.10576989225044739
aF0.10833249442743473
aF0.11038664233579089
aF0.11189318059686042
aF0.11482544288738511
aF0.11669347663279424
aF0.11877928264418412
aF0.12047520194953332
aF0.12165567868304332
aF0.12370102433239426
aF0.12612018039059264
aF0.12684700576746685
aF0.12878646240712111
aF0.13057121120289508
aF0.13306734076172619
aF0.13372880707703153
aF0.13736038992044558
aF0.13881715097710293
aF0.14064884529964838
aF0.14124573991521217
aF0.14311942643715578
aF0.14513581305673817
aF0.14595784685930299
aF0.14716393061676503
aF0.14885367705639466
aF0.15050993397888962
aF0.15162964533831316
aF0.15369975683678072
aF0.15435469959388012
aF0.15577759046058082
aF0.15668226730841731
aF0.1584071432356994
aF0.16082946927662081
aF0.16239265698907479
aF0.16531349295331907
aF0.16703861065645129
aF0.16929110758385099
aF0.17070372367338077
aF0.17240081949003247
aF0.17401929655089876
aF0.17549939813262669
aF0.17701318273239205
aF0.17868149692193935
aF0.18147990984218215
aF0.18481043739856384
aF0.18569720961339536
aF0.18665041599964075
aF0.18938007981684934
aF0.19112692772630277
aF0.19315708801010689
aF0.19508059108287254
aF0.19644468311306196
aF0.19883785512746996
aF0.1996477292940389
aF0.20328799229092981
aF0.20659034076463945
aF0.20796810335371782
aF0.20983542523783127
aF0.2115840603792295
aF0.21255804907160578
aF0.21431203105213031
aF0.21628777053004405
aF0.21896636799431354
aF0.21986294549536606
aF0.22078232590253416
aF0.22179327232323751
aF0.22426607190724099
aF0.22774633679825707
aF0.22885586498217825
aF0.23208931497029114
aF0.23445635314933294
aF0.23554916368095241
aF0.23985598287746046
aF0.24076111746584605
aF0.24198970919459603
aF0.24456695954672134
aF0.24539417383496825
aF0.24905154968712961
aF0.25090707777222615
aF0.25130106870142177
aF0.25451533183987707
aF0.25566996933756181
aF0.25867328796775041
aF0.26064956359600089
aF0.26093120395291297
aF0.26335008874127647
aF0.26856790047127449
aF0.27254893327198854
aF0.27567782840817318
aF0.28124267210164966
aF0.28247854937130817
aF0.28625114431857379
aF0.29082925078376376
aF0.29320605506152064
aF0.29647487884551421
aF0.29850592855711272
aF0.30094246795171609
aF0.30299611653537667
aF0.30732808774918102
aF0.30921735043703502
aF0.31232747522186072
aF0.31576319709815054
aF0.31898849977118987
aF0.32108644244395629
aF0.32447138047106261
aF0.3276024319651058
aF0.33168278635557902
aF0.33493496691600139
aF0.33845815307623212
aF0.34437679545267702
aF0.34822020725155695
aF0.35388817414966195
aF0.35700939815500266
aF0.36137972027986198
aF0.36735725529631541
aF0.37122673740911644
aF0.37736118189762147
aF0.38121463316019755
aF0.38546836603235024
aF0.38836897993416342
aF0.39553820461710354
aF0.40116462511742196
aF0.40279764229171539
aF0.40785429136994455
aF0.4120631734290916
aF0.41819001160031855
aF0.4234655903840544
aF0.43068989317940309
aF0.4331178277657271
aF0.43638042629268897
aF0.44171464739442051
aF0.44829733628879731
aF0.45755514155993304
aF0.46339964109942611
aF0.47692651434693667
aF0.48203233568420067
aF0.49140553703676787
aF0.50067617538535925
aF0.50624500029535147
aF0.509762509086366
aF0.52599740110606863
aF0.53670458159003154
aF0.54068269935836055
aF0.54513452026347542
aF0.55442379727646218
aF0.5804414969611561
aF0.58740464650794555
aF0.59797187392502571
aF0.60955631740740246
aF0.62001210363745418
aF0.62794424312588415
aF0.64232876391400828
aF0.65803432767723335
aF0.67702143179047414
aF0.69561200182704575
aF0.70599633378133608
aF0.73591608002676656
aF0.75513253846758877
aF0.78397996641105416
aF0.80710202421052646
aF0.84525049120784146
aF0.9052678157224523
aF0.9490825408336746
aF1.016326214794693
aF1.0596533647480635
aF1.1401329656445862
aF1.2775775816110475
aF1.3755053508861865
aF1.4769805157017351
aF1.6399119604908177
aF2.1348657056627016
aF3.1990537574230995
aF0
aF0.037229647806545842
aF0.042899747607156292
aF0.04852625796660219
aF0.053427828682963238
aF0.057846043814273482
aF0.058789366804777823
aF0.059894670960058481
aF0.061806496819415593
aF0.06288357937563871
aF0.063705491238154652
aF0.064624564349766864
aF0.066539564546213181
aF0.068117644205825445
aF0.069689987448183402
aF0.072973810118958204
aF0.075029578028714114
aF0.076090220871986247
aF0.078275623933525537
aF0.080159770792154389
aF0.081406116039587209
aF0.08164553964490695
aF0.083593049530192948
aF0.084590953870938804
aF0.086465834117303964
aF0.08822532572632788
aF0.089186854619600464
aF0.089886020317945056
aF0.092572749202295607
aF0.093694972932557227
aF0.094937834404926119
aF0.097040224291640623
aF0.097667138521545876
aF0.099969968038602502
aF0.10417048484174087
aF0.10780079213283225
aF0.10889375095854625
aF0.10903938989013479
aF0.11128176917618536
aF0.11257507660636565
aF0.11326518811097527
aF0.11352509387853861
aF0.11567847555302868
aF0.11768952386243653
aF0.1204905958236033
aF0.12232339630742434
aF0.12313609921978132
aF0.12415844929489957
aF0.12496470498144355
aF0.1256037537020967
aF0.12639939557206845
aF0.12838761114223329
aF0.13077332351034465
aF0.13313785622768695
aF0.13467524077070694
aF0.13767775043346175
aF0.1395173441181872
aF0.14023356529287612
aF0.14136086842893428
aF0.14571034508839201
aF0.1469532644277852
aF0.14759361899260168
aF0.14842017101772531
aF0.15242521256839886
aF0.15426856023023913
aF0.15672970714335024
aF0.15841699106659399
aF0.16004962219962768
aF0.16049659367868152
aF0.16157625338408105
aF0.16342153321263841
aF0.16532114637213219
aF0.16564588513427789
aF0.16769053519184424
aF0.16854825098054121
aF0.17028923250134065
aF0.17081950396614154
aF0.17342913449829525
aF0.17419644038376433
aF0.17653031453657719
aF0.17786246650019316
aF0.17958041035624855
aF0.18003570826506662
aF0.18432275493254124
aF0.18459458761615619
aF0.18561588691792064
aF0.18819478610235629
aF0.18893514209622653
aF0.19095535469625224
aF0.19170408021332064
aF0.19567600800094345
aF0.19999780259216959
aF0.20284315225727748
aF0.20373012583225134
aF0.20456046242286197
aF0.20898756476926456
aF0.2100591678518928
aF0.21318265146979337
aF0.21479341720286452
aF0.21493894958991802
aF0.21552884148320978
aF0.21678370295180605
aF0.22005390213330656
aF0.2208750353533499
aF0.22231160974944153
aF0.22547606652116448
aF0.22883502427842192
aF0.23247314084489223
aF0.23365595384777041
aF0.23970523046509304
aF0.24138410146972589
aF0.24522137341984301
aF0.24570522451863233
aF0.24780703706547635
aF0.24933355507759977
aF0.25284652657486378
aF0.25514210353592087
aF0.26026745358900111
aF0.26128019347213516
aF0.26202930456238355
aF0.2653982496052657
aF0.27065798701145305
aF0.27463053229655843
aF0.27595152381920862
aF0.27800957551439981
aF0.27890303616529488
aF0.28289551881522107
aF0.28379888321436764
aF0.28474455516979619
aF0.28548889806913502
aF0.28851856129741399
aF0.28925469033111689
aF0.28955788894271245
aF0.29350305977266933
aF0.29609872122681807
aF0.30241998726464192
aF0.30382080452923382
aF0.30448438898977698
aF0.30631757913135704
aF0.30916236790296231
aF0.31205028913580696
aF0.31313738153954629
aF0.31539404590186959
aF0.32210740953492534
aF0.32318384166541836
aF0.32403796494592974
aF0.32464341580886236
aF0.32818473413596672
aF0.33067902264725552
aF0.33203810229003639
aF0.33962444057763569
aF0.34073403626495863
aF0.34374538688334105
aF0.34554821131082758
aF0.34684735903657665
aF0.34836578284950859
aF0.35197282198795432
aF0.35911745218986346
aF0.36040424548108152
aF0.36271817789575339
aF0.36453208838267026
aF0.3722041874594319
aF0.3850959970374066
aF0.3967374853148608
aF0.41083356110814401
aF0.41558974094228335
aF0.41984747597880934
aF0.42851282447107242
aF0.44033883814796876
aF0.44769850108485965
aF0.45485476695336086
aF0.45517769344815051
aF0.46988589941579539
aF0.47336234940402983
aF0.48228476100040185
aF0.4963129125170842
aF0.52496401740850696
aF0.54174268466224507
aF0.56778264213285756
aF0.59947949441738635
aF0.61618637620027639
aF0.62469990851376267
aF0.63559373655292239
aF0.64028148402424645
aF0.6417944978527288
aF0.66120751834923108
aF0.67230387905415456
aF0.68549918126957876
aF0.73574140945002686
aF0.76189058824857092
aF0.78177211477759978
aF0.78478497130854397
aF0.81183845339312055
aF0.92595133931696894
aF1.0420074377189543
aF1.1184834461004387
aF1.1868475850375335
aF1.3795391514935433
aF1.6690912806799729
aF3.620579386400943
aF4.4069707474488888
aF0
aF0.030864281125046841
aF0.03669053240718801
aF0.03669053240718801
aF0.039541803469962257
aF0.039755585819827695
aF0.041911399040835309
aF0.044531607387296508
aF0.046731484997993428
aF0.046731484997993428
aF0.06192300563276
aF0.06192300563276
aF0.066085275241882221
aF0.067880636244234044
aF0.067880636244234044
aF0.069612626096000677
aF0.071396391336907949
aF0.074309967475605268
aF0.078162954961568054
aF0.079768809149418779
aF0.079768809149418779
aF0.081322012057796628
aF0.081579918597752932
aF0.081965289512041781
aF0.082670774423793988
aF0.082670774423793988
aF0.083676047986424987
aF0.083826394915856112
aF0.085375798643674658
aF0.085510183074035503
aF0.088324648985544513
aF0.088324648985544513
aF0.089066018619338688
aF0.089523451445578398
aF0.092390560807742189
aF0.10166676719934153
aF0.10195388252236594
aF0.10195388252236594
aF0.10528536390229394
aF0.10679858905504509
aF0.10764192688172415
aF0.11227193635040114
aF0.11227193635040114
aF0.11244606922440568
aF0.1136218868259553
aF0.11451053199472827
aF0.11659577642426923
aF0.11691086289458787
aF0.11691086289458787
aF0.1173211686698568
aF0.11960461186081611
aF0.12046430069545827
aF0.12256846680870316
aF0.12256846680870316
aF0.12280198926010166
aF0.1257225389684917
aF0.13059187471398534
aF0.13073228193993355
aF0.13136136021211561
aF0.13136136021211561
aF0.13233380712258788
aF0.13614938779187713
aF0.14007489771345971
aF0.14560628646680376
aF0.14560628646680376
aF0.14756930951437783
aF0.14916144609305121
aF0.14922882591595366
aF0.15191188357115223
aF0.15579801420071124
aF0.15610306654452089
aF0.15610306654452089
aF0.15875192987335729
aF0.16047737283948593
aF0.16705380313003848
aF0.16705380313003848
aF0.168016882808462
aF0.17068350389171213
aF0.17282355855710782
aF0.17412526193089098
aF0.17681813754652775
aF0.17681813754652775
aF0.17715999760351636
aF0.17756752055286806
aF0.17871040321678122
aF0.18018603591927709
aF0.18070221855952068
aF0.18070221855952068
aF0.18495477280536446
aF0.18580464561947918
aF0.18637382093258065
aF0.18739559121993163
aF0.18739559121993163
aF0.18989848932672079
aF0.1902906960015
aF0.19079530690057658
aF0.19139358210577725
aF0.1938767861484369
aF0.1938767861484369
aF0.19812320558888927
aF0.19864349781538035
aF0.20096245867613949
aF0.20739126731129648
aF0.20739126731129648
aF0.20890608427242904
aF0.21005835424486638
aF0.21737774907061119
aF0.21854346896037202
aF0.22284661457281491
aF0.22284661457281491
aF0.23203519715709653
aF0.23203519715709653
aF0.23558872825006388
aF0.23602589936541735
aF0.23602589936541735
aF0.23638998760967109
aF0.23703292133804643
aF0.24047672111025759
aF0.24232933889648617
aF0.24387144046296869
aF0.24387144046296869
aF0.24388260654882868
aF0.24896631802503422
aF0.25046853137361336
aF0.25166045673406662
aF0.25166045673406662
aF0.25359663196242094
aF0.25498419205566342
aF0.25901909865108758
aF0.26243633410773498
aF0.26917225709613957
aF0.26917225709613957
aF0.27179969406100962
aF0.27215636119935699
aF0.27269960957360972
aF0.27295835182412659
aF0.27444977275651289
aF0.27444977275651289
aF0.274486965108864
aF0.27757442781989727
aF0.28007367094306918
aF0.28306039462916666
aF0.28306039462916666
aF0.29022692808414607
aF0.29319016306643131
aF0.2953248123792146
aF0.29727012315484735
aF0.30055429636041897
aF0.30055429636041897
aF0.30274018734482672
aF0.30371328246605706
aF0.31089484427626424
aF0.31222083890057561
aF0.31222083890057561
aF0.31342334287374385
aF0.31360922339798514
aF0.31781375837493059
aF0.32086597698136354
aF0.32397526199152671
aF0.32397526199152671
aF0.3252274384988707
aF0.32557079328326183
aF0.33071479846211244
aF0.33213366103834452
aF0.33213366103834452
aF0.33806274054259133
aF0.34060768522908541
aF0.34066725641268175
aF0.35070821312772565
aF0.35281117830908848
aF0.36022367837676228
aF0.36022367837676228
aF0.36359476452865169
aF0.36867343874662684
aF0.37500703454904866
aF0.37500703454904866
aF0.37559552094037618
aF0.37776360565050465
aF0.37911941464036175
aF0.38043414821366556
aF0.38673933256135501
aF0.38673933256135501
aF0.41493531465793626
aF0.42545225470978032
aF0.43335020944353286
aF0.45946584864513479
aF0.47934271794544625
aF0.47934271794544625
aF0.4835397584082895
aF0.507001135566851
aF0.53670698552411766
aF0.62709022030658668
aF0.62709022030658668
aF0.6307562723487633
aF0.6978337089986677
aF0.96104664619258018
aF0.97932419086538236
aF1.3786097683148981
aF1.3786097683148981
aF2.1383436514004277
aF2.1383436514004277
aF0
aF0
aF0.040258951562044121
aF0.040258951562044121
aF0.04337227036223338
aF0.04337227036223338
aF0.04337227036223338
aF0.056733258526878674
aF0.056733258526878674
aF0.059895656757221916
aF0.063352892119378321
aF0.063352892119378321
aF0.063352892119378321
aF0.063352892119378321
aF0.063460760236515132
aF0.063460760236515132
aF0.063460760236515132
aF0.064176771962993165
aF0.064176771962993165
aF0.069374734097819607
aF0.069374734097819607
aF0.069941635924431284
aF0.069941635924431284
aF0.069941635924431284
aF0.07441063086446581
aF0.07441063086446581
aF0.090038436293935278
aF0.090038436293935278
aF0.090038436293935278
aF0.093919282982153851
aF0.098259451815303545
aF0.098259451815303545
aF0.098259451815303545
aF0.098259451815303545
aF0.11221645527330414
aF0.11221645527330414
aF0.11464109406455952
aF0.11464109406455952
aF0.11464109406455952
aF0.11504122558884447
aF0.11504122558884447
aF0.11661461574279566
aF0.11661461574279566
aF0.11661461574279566
aF0.11694434342186813
aF0.11694434342186813
aF0.12361989892840071
aF0.12361989892840071
aF0.12361989892840071
aF0.12731915639699826
aF0.13338496267239372
aF0.13338496267239372
aF0.13338496267239372
aF0.13338496267239372
aF0.14060738795616895
aF0.14060738795616895
aF0.14577369503859991
aF0.14577369503859991
aF0.14577369503859991
aF0.15154574744822344
aF0.15154574744822344
aF0.15338029980440129
aF0.15338029980440129
aF0.155704785287297
aF0.155704785287297
aF0.155704785287297
aF0.16408818329459646
aF0.16408818329459646
aF0.16611008928152352
aF0.16611008928152352
aF0.16793010863802235
aF0.16793010863802235
aF0.16793010863802235
aF0.17350035363146732
aF0.17350035363146732
aF0.17350035363146732
aF0.17720670978465847
aF0.17720670978465847
aF0.18778273599380949
aF0.18778273599380949
aF0.18778273599380949
aF0.1956978506206099
aF0.1956978506206099
aF0.20618188353800229
aF0.20618188353800229
aF0.20618188353800229
aF0.20667910131294201
aF0.20667910131294201
aF0.20897230394199579
aF0.20897230394199579
aF0.21603929997442067
aF0.21603929997442067
aF0.21603929997442067
aF0.21750678346847724
aF0.21750678346847724
aF0.21750678346847724
aF0.22319258104633796
aF0.22319258104633796
aF0.22577633029393052
aF0.22577633029393052
aF0.22577633029393052
aF0.22835066066328252
aF0.22835066066328252
aF0.23127950794349347
aF0.23127950794349347
aF0.2335912050904361
aF0.2335912050904361
aF0.2335912050904361
aF0.23855651821128016
aF0.23855651821128016
aF0.2403910894270215
aF0.2403910894270215
aF0.2403910894270215
aF0.24693892553945757
aF0.24693892553945757
aF0.25144395559134397
aF0.25144395559134397
aF0.25144395559134397
aF0.26144207730435715
aF0.26144207730435715
aF0.26316375812762322
aF0.26316375812762322
aF0.26316375812762322
aF0.269250257528246
aF0.269250257528246
aF0.26976356545845359
aF0.26976356545845359
aF0.26976356545845359
aF0.27207502394872296
aF0.27207502394872296
aF0.2722348959852619
aF0.2722348959852619
aF0.2722348959852619
aF0.27399949932593481
aF0.27399949932593481
aF0.28525376986066708
aF0.28525376986066708
aF0.28525376986066708
aF0.28581273013248543
aF0.28581273013248543
aF0.28581555874501124
aF0.28581555874501124
aF0.28725787127206887
aF0.28725787127206887
aF0.28725787127206887
aF0.29182201476670522
aF0.29182201476670522
aF0.29774917483412067
aF0.29774917483412067
aF0.29774917483412067
aF0.3221172335419677
aF0.3221172335419677
aF0.32286123906893716
aF0.32286123906893716
aF0.32286123906893716
aF0.32784329797451783
aF0.32784329797451783
aF0.39859714532471063
aF0.39859714532471063
aF0.39859714532471063
aF0.40861269762703839
aF0.40861269762703839
aF0.43492497337962299
aF0.43492497337962299
aF0.43492497337962299
aF0.45154247181726737
aF0.45154247181726737
aF0.47903191315956584
aF0.47903191315956584
aF0.47903191315956584
aF0.48764413130617162
aF0.48764413130617162
aF0.55753055427216291
aF0.55753055427216291
aF0.55753055427216291
aF0.59950889251110473
aF0.59950889251110473
aF0.62302532522821363
aF0.62302532522821363
aF0.62302532522821363
aF0.70821265192750071
aF0.70821265192750071
aF0.78923825478405685
aF0.78923825478405685
aF0.80991304315555079
aF0.80991304315555079
aF0.80991304315555079
aF0.88217017561019562
aF0.88217017561019562
aF0.88217017561019562
aF0.90564207937415331
aF0.90564207937415331
aF0.92743264762046396
aF0.92743264762046396
aF1.0496487600196804
aF1.0496487600196804
aF1.0496487600196804
aF1.2152980938033116
aF1.2152980938033116
aF1.2152980938033116
aF1.2152980938033116
a.