(lp1
I0
aF350
aF1050
aF1750
aF2450
aF3150
aF3850
aF4550
aF5250
aF5950
aF6650
aF7350
aF8050
aF8750
aF9450
aF10150
aF10850
aF11550
aF12250
aF12950
aF13650
aF14350
aF15050
aF15750
aF16450
aF17150
aF17850
aF18550
aF19250
aF19950
aF20650
aF21350
aF22050
aF22750
aF23450
aF24150
aF24850
aF25550
aF26250
aF26950
aF27650
aF28350
aF29050
aF29750
aF30450
aF31150
aF31850
aF32550
aF33250
aF33950
aF34650
aF35350
aF36050
aF36750
aF37450
aF38150
aF38850
aF39550
aF40250
aF40950
aF41650
aF42350
aF43050
aF43750
aF44450
aF45150
aF45850
aF46550
aF47250
aF47950
aF48650
aF49350
aF50050
aF50750
aF51450
aF52150
aF52850
aF53550
aF54250
aF54950
a.