(lp1
F0
aF0.14444029837799999
aF0.22835657018399999
aF0.34413732731800001
aF0.46587804732900001
aF0.65270096936599997
aF0.81143218193800004
aF1.00226438356
aF1.03788125951
aF1.24257294992
aF1.32793236661
aF1.34635418779
aF1.4371572854100001
aF1.5191327005499999
aF1.54602854301
aF1.7046681136999999
aF1.87758836483
aF1.9813264417300001
aF2.1146974377399999
aF2.1938492694299998
aF2.4097221919699998
aF2.5070571186900001
aF2.6311171881000002
aF2.7328195551999999
aF2.7736899606000001
aF3.0227873463499999
aF3.10803398473
aF3.1824676694599998
aF3.3138417252000001
aF3.4291812515900002
aF3.50419808407
aF3.7101281572199998
aF3.8432672208200001
aF3.8796565679100001
aF3.9915562540499998
aF4.0723303682700003
aF4.2029321661800001
aF4.3768188648899997
aF4.4816827669199997
aF4.6990199258800001
aF4.8084875822399997
aF4.8365914296700003
aF5.0590152661600003
aF5.1248841813699997
aF5.1771937064899998
aF5.4889247870900002
aF5.57813871862
aF5.6972377675899999
aF5.8456278064799996
aF6.06915586574
aF6.1204251477299998
aF6.17699599008
aF6.3172684659999998
aF6.4192197959800001
aF6.52383433373
aF6.6186618180399996
aF6.7251587769999999
aF6.7866374808999996
aF6.8276218028500004
aF6.9188765840600004
aF7.1331898582499997
aF7.2065701539399996
aF7.3244993804199998
aF7.36483433106
aF7.5193634033699999
aF7.7822629874100002
aF8.2222416265000007
aF8.4497457766200004
aF8.5930318077999992
aF8.7570172042000003
aF8.9696132883900006
aF9.1272011085100004
aF9.4333510895299995
aF9.5278688390900008
aF9.8002379139299993
aF10.062964643999999
aF10.572141176200001
aF10.796071421700001
aF10.9985214683
aF11.3182197168
aF11.660606036000001
aF11.847287044
aF12.432752901300001
aF12.5532808679
aF12.920547884299999
aF13.715431382
aF13.9427496484
aF14.252177361499999
aF14.3846625264
aF14.6017942841
aF14.867988867399999
aF15.211408408800001
aF15.4524408633
aF15.8995520183
aF16.278660079800002
aF16.607110122000002
aF17.2812107494
aF17.425166927999999
aF17.6847110579
aF17.924433366199999
aF18.107368758
aF18.486488274799999
aF18.675113313000001
aF18.821461450800001
aF19.392315572800001
aF20.026821224999999
aF21.515140794000001
aF22.458730085300001
aF22.563704860600001
aF23.2879347571
aF23.969079893499998
aF24.336542956300001
aF24.499336477500002
aF25.0036717642
aF25.774135368900001
aF26.0929925969
aF26.934629466499999
aF27.458541006800001
aF27.8422100246
aF28.5518247111
aF28.965082549800002
aF30.702632564599998
aF31.123950922300001
aF31.264305230000002
aF31.965843641500001
aF32.212378185600002
aF34.283698532999999
aF35.219561660799997
aF36.755695116600002
aF37.138783892900001
aF37.986001245399997
aF38.621250490999998
aF38.9481443707
aF39.3726060041
aF40.276085332900003
aF41.898719000699998
aF42.396709494500001
aF43.749429257499997
aF44.676029422900001
aF46.364739487400001
aF47.275528738799999
aF47.869005850699999
aF48.490202586899997
aF49.788875049200001
aF50.404381347099999
aF52.2209766649
aF52.7548497923
aF53.758555342299999
aF56.144346903600002
aF58.857197224499998
aF61.218540911200002
aF62.083264127200003
aF62.809329462100003
aF64.673596130899995
aF70.530443844700002
aF71.037859097099997
aF74.956651292000004
aF75.479775530200001
aF77.970753225099998
aF78.784135755700007
aF83.634030189599997
aF87.631048698900003
aF89.682360645100005
aF91.657671611699996
aF93.431100026199999
aF96.871787694199995
aF98.904758199400007
aF100.903126246
aF104.97935501800001
aF117.211912426
aF118.593299874
aF123.983293097
aF126.40072390500001
aF132.90804449300001
aF135.77425614000001
aF145.645663189
aF150.462714554
aF154.135665945
aF158.670439012
aF161.11217567599999
aF165.74332436700001
aF168.951515621
aF173.84826456100001
aF184.64661891700001
aF188.990674536
aF195.25008580400001
aF200.52870912200001
aF208.31911763799999
aF223.21659264900001
aF234.232880967
aF297.24728825900002
aF321.93167475199999
aF332.08151963699999
aF346.34478154800001
aF377.30757977899998
aF403.47421662800002
aF425.16143535399999
aF572.37340253299999
aF766.55659324999999
aF1611.5984637199999
aF1611.5984637199999
aF0
aF0.083813974438700006
aF0.31831933895699999
aF0.34638794272399998
aF0.46455080305099999
aF0.49519963016099999
aF0.54548279077600004
aF0.56403794228199999
aF0.60837298377799998
aF0.68118756294600002
aF0.70071771432399999
aF0.78976831924699997
aF0.81703862518199999
aF0.83363911177799999
aF0.89857941080399995
aF0.94493515463400002
aF0.99107239417899995
aF1.0238060094799999
aF1.0799844142199999
aF1.11400208909
aF1.1685453374400001
aF1.18519938288
aF1.22148339123
aF1.2645577512499999
aF1.3045626778799999
aF1.3391777624900001
aF1.3826642013199999
aF1.4644506572
aF1.5099094374299999
aF1.5888224991
aF1.62182558706
aF1.65137395874
aF1.6991401368100001
aF1.7758428480799999
aF1.8277920540999999
aF1.9017455410199999
aF1.9705532488599999
aF2.0324665469399998
aF2.0752937413999999
aF2.1185145273899999
aF2.1611322415299998
aF2.1917842756499999
aF2.22729976286
aF2.2777275853000001
aF2.32665524011
aF2.3543342053699998
aF2.3935181153
aF2.44446825618
aF2.50093820286
aF2.5844026906000002
aF2.6884797637600002
aF2.78657713546
aF2.81180130111
aF2.84116667305
aF2.9014197632199998
aF2.9952091375399998
aF3.0386348574599999
aF3.0956021427799998
aF3.1328046143999999
aF3.1631373405500001
aF3.2039828237700001
aF3.29405069373
aF3.3496993056400002
aF3.4055971771900002
aF3.5073893196000001
aF3.5755835925800001
aF3.6580199126399999
aF3.7782186004999998
aF3.8741030635099998
aF3.9119985650200002
aF3.9699909851999999
aF4.0132311662099998
aF4.07009700397
aF4.1555761906299997
aF4.2241691161799997
aF4.3896744175800002
aF4.5146783570400002
aF4.6155145535499997
aF4.7783116523600002
aF4.8822447657900003
aF4.9863031398300004
aF5.0556875698599999
aF5.13217451548
aF5.1928716528900001
aF5.2987216440799996
aF5.4584561742300002
aF5.6054585689499996
aF5.7579579032500003
aF5.8452201175000003
aF5.9593969184300004
aF6.1479798348300001
aF6.2484864308999999
aF6.3722452057199996
aF6.5705963806599996
aF6.6811287682699998
aF6.7311130873599998
aF6.7864435351600001
aF6.9196277988999997
aF7.1929613935300001
aF7.3441277346099998
aF7.3800960628999999
aF7.4749874111999999
aF7.6512577099200003
aF7.77153906732
aF7.9243829575799998
aF8.2024869676600005
aF8.2599528374899993
aF8.4119253626999999
aF8.5469992409900009
aF8.9001784810399993
aF9.2121022677299997
aF9.2412472507699999
aF9.4431345314800001
aF9.6680036066100001
aF9.7816077025699997
aF9.9566055535700002
aF10.359764716899999
aF10.506972293900001
aF10.7808329052
aF11.3592743902
aF11.7111644662
aF11.8605742172
aF12.291120808400001
aF12.5270770795
aF12.7952635728
aF12.9362140074
aF13.4529548967
aF13.5501939602
aF13.8515392309
aF14.251817031
aF14.6798102809
aF14.9162575219
aF15.3044645221
aF15.963210610899999
aF16.293018033300001
aF16.528628889099998
aF16.769307273999999
aF17.050491132000001
aF17.233636284700001
aF17.435953831300001
aF18.114197076100002
aF18.209546654099999
aF18.677206457099999
aF18.876676305499998
aF19.277115787700001
aF19.603010971100002
aF20.061147162099999
aF20.558554522000001
aF21.1117685004
aF22.012839372799998
aF22.378322630900001
aF22.859288315200001
aF23.142180705200001
aF24.245079698800001
aF25.9020405244
aF26.507190805699999
aF27.4739929789
aF27.988361249099999
aF28.8421369677
aF29.731031435799999
aF31.265395005199998
aF31.947761314699999
aF32.3600162185
aF33.960158921500003
aF35.2205479892
aF37.329919228900003
aF38.591860211300002
aF39.653380662899998
aF40.416668255899999
aF41.847439486799999
aF42.946435578200003
aF44.555593529500001
aF46.195425314700003
aF48.272380437999999
aF50.7171113769
aF54.108838268299998
aF57.192427144600003
aF60.232285910500003
aF61.154227242799998
aF66.058563735700005
aF68.912059708300006
aF72.377827169900002
aF74.8258152975
aF76.523326659299997
aF80.2223354204
aF83.911959833699996
aF89.242198798399997
aF91.759192939900004
aF100.917764795
aF108.556622026
aF117.397361636
aF128.654564397
aF132.220775344
aF146.851921275
aF158.21656178999999
aF195.59053564300001
aF220.40862631100001
aF243.67073925299999
aF279.44509449999998
aF385.39670284599998
aF2229.5014584
aF0
aF0.134568667089
aF0.22096714722800001
aF0.241982365309
aF0.282582147299
aF0.30887973543699998
aF0.35848485966299998
aF0.41670345418499999
aF0.45274913222000002
aF0.49984586837299999
aF0.54693631356799999
aF0.57642906524899995
aF0.60428947073799999
aF0.64551627763399999
aF0.67184177451600002
aF0.70559205139299996
aF0.73195413388499997
aF0.75941154288699997
aF0.79316878417600001
aF0.82828163530300003
aF0.84996727554600005
aF0.86244322276499996
aF0.884092879818
aF0.90053656979100005
aF0.92189301683699998
aF0.937781050186
aF0.958448778068
aF0.975518145216
aF0.99972035165499995
aF1.01410165008
aF1.0561167276200001
aF1.07137630702
aF1.0888616342999999
aF1.1214366313199999
aF1.14842012372
aF1.16675344893
aF1.1928671069600001
aF1.21185202445
aF1.2444492257999999
aF1.26555362339
aF1.3020670717
aF1.33144019427
aF1.3700782606599999
aF1.3922490459600001
aF1.4214195703900001
aF1.4412309995599999
aF1.4713854851299999
aF1.4981194360000001
aF1.5156807782599999
aF1.5353937789600001
aF1.58193085489
aF1.6363825813699999
aF1.6679066542700001
aF1.6953948491199999
aF1.7432788369000001
aF1.7757706818400001
aF1.81420953428
aF1.8369562966299999
aF1.86603816317
aF1.9079331429399999
aF1.93559913056
aF1.96441828434
aF2.0090532694099998
aF2.0388004444800001
aF2.0592603576499999
aF2.0856426528799998
aF2.1175114071599999
aF2.1825469443399999
aF2.2474604253599999
aF2.2749390467700001
aF2.3121411416000002
aF2.37177298826
aF2.4274122023400002
aF2.5181769644699998
aF2.5418057541599999
aF2.6434630075899999
aF2.6747329533199999
aF2.7266999242900001
aF2.7654445970700001
aF2.8140457094300002
aF2.8559643406999999
aF2.9061498475100001
aF2.9702744923500002
aF3.0318004993800001
aF3.0771937025499998
aF3.1682821350100001
aF3.21259901675
aF3.2495167992399998
aF3.2811541713699999
aF3.3233868123799999
aF3.3736627766299998
aF3.4058671494200001
aF3.4805577671700001
aF3.5668223714799998
aF3.6084238266100002
aF3.6537321290999998
aF3.7175778126500001
aF3.7450147871700001
aF3.86111106714
aF3.9410134870100002
aF4.0067546356400001
aF4.1423679617299998
aF4.2024818847300001
aF4.2596486695399998
aF4.3063451426699997
aF4.3689910892499997
aF4.4722054954099999
aF4.5632364049399996
aF4.6512485022599996
aF4.6978386313799998
aF4.7798445058399999
aF4.8531420455600003
aF4.9717578546299999
aF5.0417112146500003
aF5.17081749886
aF5.3019735577100002
aF5.3705152383400003
aF5.5084455462199999
aF5.6182818515299999
aF5.70571954448
aF5.8223915078699999
aF5.9441571869700001
aF6.0647963728700001
aF6.27675467201
aF6.3795693788000003
aF6.4992010115000003
aF6.7279283143099997
aF6.83719902118
aF6.9670805423799997
aF7.1376257228400002
aF7.3185795684699997
aF7.4174379003000004
aF7.6252542819300002
aF7.7560876076699996
aF7.97791101428
aF8.1287972523200001
aF8.2935032606900005
aF8.4263936568899993
aF8.7299676982999994
aF8.9000309257799994
aF9.2106417444800002
aF9.4067341973099996
aF9.6877599453100007
aF9.8288098032200004
aF10.1462267898
aF10.4430670065
aF10.7710082101
aF10.9083004672
aF11.0537899029
aF11.351140496499999
aF11.538958771800001
aF11.919288993
aF12.375346950699999
aF12.6154005045
aF12.9524855025
aF13.285189669299999
aF13.649405117900001
aF13.802655147899999
aF14.3746878025
aF14.8989750379
aF15.0686452095
aF15.44874785
aF15.955460911599999
aF16.199894288199999
aF17.0458946378
aF17.5301252159
aF18.4112497281
aF18.916626085899999
aF19.3485479418
aF19.9851877306
aF20.604288900899999
aF20.943333255799999
aF22.112819051599999
aF22.959668231999999
aF23.9954402314
aF25.035153965599999
aF25.796351962900001
aF26.3445116589
aF27.598244108500001
aF29.492678119099999
aF31.494753701
aF33.570886100899997
aF35.411126519100002
aF38.343129207700002
aF40.297936357899999
aF43.269089215000001
aF46.554746459699999
aF50.1438786354
aF55.452409753200001
aF63.874460149000001
aF67.985459050900005
aF72.783745624700003
aF78.750906101200002
aF87.178006099399994
aF99.277342007100003
aF112.32447045000001
aF150.08323985000001
aF191.04328713300001
aF243.74940976799999
aF298.61209890999999
aF610.57351237299997
aF0
aF0.14365451929100001
aF0.18957677402299999
aF0.22199376087
aF0.23947365917300001
aF0.27923813419900001
aF0.30376922239699999
aF0.34130260137399998
aF0.37018363348299999
aF0.39852502592
aF0.42043849640699998
aF0.449086279049
aF0.48566461460900001
aF0.51522238701900003
aF0.53527463838099998
aF0.55878126111399995
aF0.57558991560799999
aF0.60170381902000003
aF0.61440597833099997
aF0.62492627680099999
aF0.64456984690600005
aF0.66038800753100002
aF0.67204091430099999
aF0.68713981404900004
aF0.69934187376699997
aF0.71638006601299997
aF0.73072718468300002
aF0.75753415419600001
aF0.76939140872400003
aF0.79364917250900002
aF0.811751128298
aF0.82030423753799997
aF0.84036478778699997
aF0.85629058780800005
aF0.88242755870699996
aF0.90879942564799998
aF0.92603904590499997
aF0.93855599609700002
aF0.95967573616799995
aF0.96617694541400001
aF0.98792001044
aF1.00156976046
aF1.01153057626
aF1.0353518346699999
aF1.05486723045
aF1.07085911512
aF1.09910531917
aF1.11522376431
aF1.1305179753100001
aF1.1546508204399999
aF1.1781173432600001
aF1.19157394455
aF1.2190490331999999
aF1.24787505864
aF1.27361506734
aF1.2980636222699999
aF1.31518378894
aF1.3450052218399999
aF1.3740854471799999
aF1.39558556012
aF1.41519699656
aF1.4321123741399999
aF1.45909622379
aF1.4759330072700001
aF1.4910300726400001
aF1.51232373124
aF1.5490811046699999
aF1.5782570548899999
aF1.6116668459000001
aF1.62617849191
aF1.6591646731
aF1.69383967991
aF1.72149942318
aF1.74810559857
aF1.7978507557100001
aF1.8196064275499999
aF1.8439294053699999
aF1.85951442745
aF1.89107086338
aF1.93673967856
aF1.96033355989
aF1.99524000334
aF2.0280809922900001
aF2.0465420455199999
aF2.0660751500700001
aF2.1082666292100001
aF2.1419500113600001
aF2.1692545932899998
aF2.1918809811900002
aF2.2313430406800001
aF2.2895699616299998
aF2.3198331260499998
aF2.3513058338000001
aF2.4080887408899998
aF2.4815537977800002
aF2.50851999576
aF2.5617387306700001
aF2.6055769623199998
aF2.6324085179700001
aF2.6961178878899998
aF2.7413602155099999
aF2.7712317948799998
aF2.8112071562300001
aF2.8581867699200001
aF2.9190632974400001
aF2.9439800057899999
aF3.0104094840100002
aF3.05330503281
aF3.10048262834
aF3.17539590266
aF3.24511619487
aF3.3056217356499999
aF3.3894902835899998
aF3.4335423889599999
aF3.4854372314700002
aF3.5606476568300001
aF3.6043560751500001
aF3.66406156029
aF3.7660563649099998
aF3.82560813033
aF3.9466078971199998
aF4.0283572412000002
aF4.07714877006
aF4.1552108679300002
aF4.2392816813699996
aF4.3147199438200001
aF4.3721369730999999
aF4.4555652323799997
aF4.5860495006899997
aF4.6665459593199996
aF4.7624381582100002
aF4.8488614634399996
aF4.97179759557
aF5.0150206490000002
aF5.1053040689999998
aF5.2812791639799999
aF5.3716757235900001
aF5.5829288018599996
aF5.6518465465299998
aF5.7620823724100001
aF5.8560109031899996
aF6.0128804814499999
aF6.1465396667499999
aF6.2414128574400003
aF6.3854761500099997
aF6.5447042531899999
aF6.7541882725000004
aF6.9854005143200002
aF7.1367012840399999
aF7.3218030112200001
aF7.49946696682
aF7.6472229734199999
aF7.8443990144000004
aF7.99745891313
aF8.1776134189099992
aF8.3773452967500006
aF8.5328760252000002
aF8.7514477358700002
aF9.0436490880000004
aF9.2332685611399992
aF9.5356141275600006
aF9.7666024864200001
aF9.94823040132
aF10.300958636400001
aF10.771366926100001
aF11.085233969500001
aF11.3324457523
aF11.7174375167
aF12.143472104400001
aF12.303553276000001
aF12.6481061467
aF12.833583689599999
aF13.203659956699999
aF13.5986055699
aF14.043362878
aF14.626177334199999
aF15.0760755417
aF15.580834984399999
aF16.312841933200001
aF16.9821347018
aF17.9935383499
aF19.206358017199999
aF19.9097935496
aF20.7049210144
aF21.193393770899998
aF22.4118111278
aF23.293576085200002
aF24.460751301199998
aF27.218111206700002
aF28.9534668252
aF31.141828193399999
aF33.063105836200002
aF36.594408596199997
aF41.9655259134
aF50.634196787
aF57.4170436749
aF66.004841056100005
aF79.707781310800002
aF93.567004987600001
aF129.369356154
aF263.52530093899998
aF0
aF0.099110105290900002
aF0.152330008962
aF0.19277005116400001
aF0.21849998202900001
aF0.23666692719999999
aF0.257596221751
aF0.27451854288499999
aF0.29857050680000002
aF0.31354284220099998
aF0.33022769626800003
aF0.33745039990999998
aF0.34950560680999998
aF0.36896880619099998
aF0.38855134185000001
aF0.41755081359899998
aF0.425150061144
aF0.44306593384300003
aF0.45497931754199999
aF0.480210732157
aF0.49961199725900002
aF0.52519732628100002
aF0.54104302118299996
aF0.55456165182600003
aF0.57645288194699995
aF0.58830880718699996
aF0.61047699977699998
aF0.62243525124499999
aF0.64059305866600003
aF0.64864591793299997
aF0.66076567911499995
aF0.67269456457499999
aF0.69062452712199995
aF0.70930687903199996
aF0.72584855411399996
aF0.74121377368600005
aF0.75125743091999997
aF0.77150265368000004
aF0.78324441542400003
aF0.79888631364700002
aF0.81247216458500005
aF0.83204971232799996
aF0.84425730939599997
aF0.85740264943900002
aF0.87520806795200001
aF0.88821997325500002
aF0.90285273820699996
aF0.918029579805
aF0.92615377290000001
aF0.944808560001
aF0.95843032520799998
aF0.96908459648199996
aF0.98091068958799998
aF0.99546224846599995
aF1.0114143418099999
aF1.0370041029999999
aF1.05163455603
aF1.06941917585
aF1.0849323260699999
aF1.09786891934
aF1.1200484481799999
aF1.1401856044400001
aF1.1614766378400001
aF1.1779927836999999
aF1.18794131464
aF1.19800995642
aF1.2153169910399999
aF1.23620743467
aF1.2464006441
aF1.28309014464
aF1.30117129963
aF1.3139480025800001
aF1.32973840183
aF1.34585218726
aF1.36483113807
aF1.3880086518200001
aF1.4038694678400001
aF1.4269838991299999
aF1.4531887240500001
aF1.4761551228100001
aF1.49140958787
aF1.50497619744
aF1.51748249595
aF1.54755568638
aF1.56624981363
aF1.5996976922199999
aF1.6270535823300001
aF1.64604277857
aF1.66675355419
aF1.69387124571
aF1.7124303672300001
aF1.7402106696399999
aF1.7770409733200001
aF1.79456862305
aF1.8202531872000001
aF1.84460821986
aF1.86760077894
aF1.89650572807
aF1.9192579590500001
aF1.95188224797
aF1.96482546943
aF1.9921085106
aF2.0131483132499999
aF2.05544343578
aF2.0827595529899998
aF2.1347983483699999
aF2.16760564415
aF2.2014516721900002
aF2.2315870739900001
aF2.2636169272100002
aF2.30995438871
aF2.3374033408299999
aF2.3738865256000001
aF2.3951038330599999
aF2.4431717219700002
aF2.4826850222400001
aF2.5185317615099998
aF2.5638428795100001
aF2.6284306548999998
aF2.66623660644
aF2.7096591116400002
aF2.7586335740300001
aF2.8025663346699998
aF2.8401708445299998
aF2.8783352938300002
aF2.9063543000399998
aF2.9593598772399998
aF2.9957288325500002
aF3.0605506942799998
aF3.10955011278
aF3.1789052606700001
aF3.2428513432099999
aF3.3274186461299999
aF3.4074444667899999
aF3.4504525115
aF3.52884017973
aF3.5708077150699999
aF3.6772565091299998
aF3.7474521798599998
aF3.8121617114599999
aF3.9240511321899998
aF4.02413852901
aF4.0815085453500002
aF4.1825546762599997
aF4.2751667515599996
aF4.3741820336400004
aF4.4834872676200002
aF4.5686814128700002
aF4.6358562892300004
aF4.8094489254399999
aF4.9654168327999999
aF5.1314477165500003
aF5.25148158988
aF5.4403573194500003
aF5.6010313900300002
aF5.7161651882199997
aF5.8958565355000001
aF6.0361890974200003
aF6.16740467168
aF6.3041850958600003
aF6.44114745164
aF6.60541649452
aF6.7974616801999996
aF6.97815602873
aF7.1388403799600004
aF7.4314686713300002
aF7.8384931901600003
aF8.2177028271400001
aF8.6453372183900008
aF9.1543142843100007
aF9.3764541677899995
aF9.7962854173
aF10.1633267175
aF10.574689812400001
aF11.0937462194
aF11.4000754819
aF11.9914359538
aF12.3258902671
aF12.7457696507
aF13.361289611
aF14.0129741907
aF14.632251501600001
aF15.099323370900001
aF16.134748603599999
aF16.802461663300001
aF17.854647673100001
aF18.834756072000001
aF20.042735115799999
aF21.573609706300001
aF22.868457402400001
aF24.574192288399999
aF26.8474848352
aF30.083792871499998
aF34.499075183899997
aF38.6709205943
aF44.689686852000001
aF52.857340428500002
aF72.813133754999996
aF91.564507002300005
aF158.818628891
aF939.11373358000003
aF0
aF0.071205885244299993
aF0.099254028698600005
aF0.14849104281600001
aF0.17292354310999999
aF0.20032666224500001
aF0.226406277543
aF0.23815469487599999
aF0.26703405121599999
aF0.28197072629300002
aF0.296082146193
aF0.31125854952699999
aF0.32554466413499999
aF0.33804933218900002
aF0.35118970952299999
aF0.371085578114
aF0.39491385706400001
aF0.413740038782
aF0.42221028600999999
aF0.44225862765200002
aF0.458189520006
aF0.48022475118199998
aF0.49685298807599998
aF0.51500317491299996
aF0.53482118753700003
aF0.55247938228399995
aF0.57330658115499999
aF0.58475963165199996
aF0.60106501656199995
aF0.62413217304400004
aF0.63793653903699998
aF0.65128873183500002
aF0.66636704386000001
aF0.67951755835000005
aF0.68956025540200006
aF0.70245093627400002
aF0.71504184012600003
aF0.73014210840100002
aF0.74713784886300005
aF0.75935155136999999
aF0.77523714645700004
aF0.78405425336400003
aF0.79615963931099998
aF0.81110455864499997
aF0.82545864838799998
aF0.83566202986100002
aF0.85063666826600004
aF0.87077765663700002
aF0.88045508705099995
aF0.89294081845100004
aF0.90498155226699994
aF0.91781500438800001
aF0.93111410315300003
aF0.94545406555199996
aF0.95838819225799998
aF0.96877608392100001
aF0.98476526685599997
aF1.0010342642000001
aF1.0119849276699999
aF1.03464783319
aF1.05455213715
aF1.0711504321800001
aF1.08010453195
aF1.1004877825999999
aF1.10818262538
aF1.1246761488799999
aF1.13470825936
aF1.14750678231
aF1.1632448283100001
aF1.18449169262
aF1.2011657527599999
aF1.2152811055699999
aF1.2364506326
aF1.24964319272
aF1.2661037937899999
aF1.2785791013300001
aF1.2962377117699999
aF1.3138558072099999
aF1.3362693854300001
aF1.34951663893
aF1.3637686600700001
aF1.37717976853
aF1.3942209300999999
aF1.4185816293
aF1.43866597309
aF1.45276157482
aF1.48127714521
aF1.5023296186499999
aF1.52673585641
aF1.5503318122600001
aF1.5888091586999999
aF1.6062719352799999
aF1.6295964377400001
aF1.6612388523299999
aF1.6812256221899999
aF1.70508917316
aF1.72112188896
aF1.74686294045
aF1.7609156044800001
aF1.7888509017400001
aF1.8132839677799999
aF1.8432731273
aF1.8705117570000001
aF1.89982085224
aF1.9362197326199999
aF1.96069015259
aF1.9880007387600001
aF2.0201535914000002
aF2.0573265057399999
aF2.0987964366999998
aF2.13211771373
aF2.1622274845799998
aF2.1903685766800001
aF2.22533347206
aF2.26089786499
aF2.3105003291199999
aF2.33786317109
aF2.37516129651
aF2.4193923972300002
aF2.4579148222399998
aF2.5029183158800001
aF2.53381912593
aF2.5677307283899999
aF2.6162502017999998
aF2.6750579269800001
aF2.7203789138199999
aF2.7458139153899999
aF2.8254724574300001
aF2.8565396273200001
aF2.9040559269499999
aF2.9651085310499998
aF3.0196812095999999
aF3.0843657504699999
aF3.1558869808600001
aF3.2223894339400001
aF3.2603729802400001
aF3.3614620894799998
aF3.4362647479800001
aF3.53920130259
aF3.5756943688499998
aF3.64101261846
aF3.7233677998300001
aF3.8016940916299999
aF3.9106972227400001
aF3.9990351336300001
aF4.0897762814999998
aF4.1774051907800001
aF4.2798115401099999
aF4.3711459042799996
aF4.4838086749199997
aF4.5942578656300004
aF4.69725646861
aF4.8356147641699998
aF4.9568908200199999
aF5.0559387430399996
aF5.1307907403700002
aF5.29064241813
aF5.4495402731300002
aF5.5692069479899997
aF5.8023798879999999
aF5.9217137438199998
aF6.1545111640699997
aF6.2686946022500001
aF6.4619248209700002
aF6.6102067457500002
aF6.8760747683199996
aF7.1590374621899997
aF7.31422994403
aF7.6196963320300002
aF7.9330981866299997
aF8.3005559691100004
aF8.5080589881200002
aF8.9030525835399992
aF9.3843270585099994
aF9.88649146809
aF10.279354769599999
aF10.603107312100001
aF11.1118716186
aF11.4784714402
aF12.035536117199999
aF12.847959552400001
aF13.415735074900001
aF14.1791106731
aF15.0355747631
aF16.9356357166
aF17.805067612999999
aF19.342641049299999
aF21.009071134500001
aF23.1764543914
aF25.379614414799999
aF27.885782949300001
aF29.619482312399999
aF33.254904224999997
aF36.867160964200004
aF40.4774911481
aF50.2787838733
aF62.180321216899998
aF80.798575822199993
aF94.584243390899999
aF131.07441246799999
aF532.11553542800004
aF0
aF0.066750493128400007
aF0.10229228903
aF0.14064849221799999
aF0.16816604212
aF0.185917820027
aF0.21145207109799999
aF0.22637409875299999
aF0.23827441847700001
aF0.25325002214100001
aF0.282002121386
aF0.29459754431500002
aF0.309921025947
aF0.32256024829399998
aF0.33607649321799998
aF0.35308583886400002
aF0.366974488228
aF0.38834215578600001
aF0.407453141593
aF0.42152609543199998
aF0.44240079751299999
aF0.45519187153599999
aF0.46297707882400002
aF0.47982221228700001
aF0.49667630123599998
aF0.508498258634
aF0.51689250307900003
aF0.53635170713299996
aF0.55035959890200004
aF0.56783201126299998
aF0.58585694882899997
aF0.59530161133699999
aF0.60864863465700003
aF0.61872677583699998
aF0.63314266869000002
aF0.64227626695200002
aF0.66366778123400005
aF0.67270302950299998
aF0.68420389566899997
aF0.69282668375900003
aF0.70143224682899996
aF0.71443579991700001
aF0.72615598912400003
aF0.73642045277699997
aF0.74797476862599999
aF0.75717018072300002
aF0.76798353829599997
aF0.77486375038599997
aF0.79414765885500005
aF0.80854204945800001
aF0.82112865231700005
aF0.83235531435499999
aF0.84902111566299998
aF0.85542717883200003
aF0.85897397230799999
aF0.87704088496099997
aF0.89151271520300002
aF0.90700102609599997
aF0.920719450271
aF0.92891160690200003
aF0.938857619857
aF0.94825684266300003
aF0.95986000285999995
aF0.96960811962399995
aF0.989941122374
aF1.00360008757
aF1.02107596077
aF1.03643638202
aF1.0502377328700001
aF1.0717680324100001
aF1.0865864964900001
aF1.0954103929900001
aF1.10647648545
aF1.11919554073
aF1.1348944810799999
aF1.1478893503600001
aF1.1583683144100001
aF1.17725367471
aF1.1977476949200001
aF1.2115494448899999
aF1.2227006682499999
aF1.23641648061
aF1.2453807854500001
aF1.2593987794899999
aF1.26998244399
aF1.2869142286699999
aF1.30049557207
aF1.31446944898
aF1.3295110779099999
aF1.3446024810899999
aF1.3719517782999999
aF1.3907558123199999
aF1.40705250973
aF1.4264556633200001
aF1.4396767485499999
aF1.46991083644
aF1.4987499147300001
aF1.51363764814
aF1.5369634294400001
aF1.55497159429
aF1.58019513401
aF1.58671558905
aF1.6122642631099999
aF1.6513557926
aF1.68400062899
aF1.7089437540000001
aF1.72753924255
aF1.7453552720800001
aF1.7758454361
aF1.7994335997999999
aF1.82770292952
aF1.84731671466
aF1.8985423459799999
aF1.9145465641699999
aF1.9448048626000001
aF1.9916997561000001
aF2.0178550764300001
aF2.0361698775099999
aF2.0577739526799999
aF2.0831203668899998
aF2.1103632127899998
aF2.1537354568799998
aF2.1788561526999999
aF2.2045213341899998
aF2.2224788538400002
aF2.2635629295799999
aF2.3165276562799999
aF2.34821085414
aF2.3981207218199998
aF2.4198916383700002
aF2.4597388271499998
aF2.5017065354999999
aF2.56256913084
aF2.60073239413
aF2.6306494736500001
aF2.6860626220700001
aF2.7343736190899999
aF2.8116594856499999
aF2.8637335040699998
aF2.9264728333900001
aF2.9955476839699999
aF3.05285386085
aF3.1356878770200001
aF3.2072182033300001
aF3.26764142152
aF3.3485823077900001
aF3.4312097504199999
aF3.4816563758900001
aF3.5584231314100001
aF3.6375811375099998
aF3.7335599506700001
aF3.8014008857100001
aF3.8705553019300001
aF3.9806979118000001
aF4.0971698101299996
aF4.1749168167999997
aF4.3083366103599996
aF4.38165849577
aF4.5310804208600004
aF4.6613092856899998
aF4.7803056653900002
aF4.9095209439899996
aF5.0546229367600004
aF5.2110820221100003
aF5.3463510691199998
aF5.52429734599
aF5.6756130707899999
aF5.9685799046800003
aF6.1860199186999996
aF6.3195153450500001
aF6.6566660244499998
aF6.9673972764899998
aF7.26908683037
aF7.6488825007600001
aF7.8611350773700002
aF8.2320652147600004
aF8.4210908255200003
aF8.9496041073600008
aF9.5584199425000005
aF10.1439245514
aF10.6423118073
aF11.0791716855
aF11.838823182500001
aF12.7106408238
aF14.1580993885
aF15.148907718
aF15.904843132
aF17.434395016500002
aF18.518727628800001
aF20.121463138599999
aF22.7076019362
aF24.3760430058
aF27.247058263300001
aF30.661631466599999
aF33.079547519400002
aF39.127879890599999
aF48.943565214800003
aF59.4575606151
aF91.335874697400001
aF141.45432793200001
aF411.661489776
aF0
aF0.069952231864699996
aF0.103404633578
aF0.125014068162
aF0.146010270449
aF0.16359155444599999
aF0.178864568833
aF0.19599840432599999
aF0.21261593381499999
aF0.22711972642700001
aF0.243111674684
aF0.25767461785399998
aF0.27180823360799999
aF0.28563106170000002
aF0.30065227522400001
aF0.31466033367599999
aF0.32740274431499999
aF0.34144162964000002
aF0.35392977821499999
aF0.36739586603699997
aF0.37668601825699999
aF0.38997906091099999
aF0.40341912954199999
aF0.416373727157
aF0.426895908682
aF0.43977830899800002
aF0.45258671966300001
aF0.466514605217
aF0.477389064152
aF0.48977333283500002
aF0.50163197604999998
aF0.51199626571900003
aF0.52444304417700005
aF0.535756267392
aF0.54517617178599997
aF0.556723976482
aF0.56923743022399997
aF0.58148013003300003
aF0.59338244193300005
aF0.60349023988499995
aF0.61844448197599999
aF0.63082462731599998
aF0.64077938591500005
aF0.65387489192500003
aF0.66469357132100004
aF0.67819373925399995
aF0.68727074573400004
aF0.69848718075600003
aF0.71043795726600001
aF0.71961915177299995
aF0.72969713364300004
aF0.74107602282600005
aF0.75606721670699994
aF0.76643518425500001
aF0.77845497049099999
aF0.78839543992500005
aF0.80132022172700001
aF0.81246877456
aF0.82543482006900004
aF0.835142423425
aF0.84674802068300004
aF0.85967143818799996
aF0.87125300477599998
aF0.88408451673499999
aF0.89664194416599996
aF0.91062205430599996
aF0.92119895144599995
aF0.93242997074199996
aF0.94571219445300003
aF0.96041450364400005
aF0.97224013435699996
aF0.98495533130900004
aF0.99919196810900002
aF1.0129236124100001
aF1.02562802722
aF1.0390578098300001
aF1.05327349462
aF1.06699289985
aF1.08003878786
aF1.0911503311699999
aF1.10287478431
aF1.11752324595
aF1.1314149261899999
aF1.1474113539199999
aF1.1623424598800001
aF1.1809099334199999
aF1.19698636893
aF1.21181796755
aF1.22544671282
aF1.24244196167
aF1.25768137753
aF1.2753336486
aF1.29073541071
aF1.3028499501799999
aF1.3187969502100001
aF1.33382177937
aF1.35329432786
aF1.3654396608399999
aF1.3831852898699999
aF1.4053731868899999
aF1.4244601671899999
aF1.4458595538900001
aF1.4624828517299999
aF1.48424757851
aF1.50258889287
aF1.5267644454
aF1.54442727619
aF1.56845111196
aF1.5867698647199999
aF1.60842558029
aF1.6313088751
aF1.6534369558899999
aF1.6753389600899999
aF1.69620207473
aF1.7204189063699999
aF1.7419530680599999
aF1.76805842778
aF1.7922030172000001
aF1.8188034212699999
aF1.85148643519
aF1.8773786266000001
aF1.90256305862
aF1.9386203775399999
aF1.9687813707199999
aF1.9981566611499999
aF2.0245303042499998
aF2.0584208427499999
aF2.0946946719900001
aF2.1348120365500001
aF2.1791471443199999
aF2.2224520832399999
aF2.2595687931800001
aF2.3106923875200001
aF2.3553963857400002
aF2.3983286546599998
aF2.4436515071799998
aF2.4865189620699999
aF2.5405446707500001
aF2.59421388661
aF2.64091695706
aF2.6996385735900001
aF2.7473734419100002
aF2.8035977565799999
aF2.8535299568900001
aF2.91542786179
aF2.9893281334399999
aF3.0516305485699999
aF3.1163028661999999
aF3.1947678399299999
aF3.2663049222699998
aF3.3339853805400002
aF3.40237096205
aF3.4768322926400002
aF3.5806851899900001
aF3.6801840510099999
aF3.7872722453700001
aF3.8916915748699998
aF3.9917050980400002
aF4.0940578914500003
aF4.19602458524
aF4.3323371208100001
aF4.4338250448399998
aF4.5732353526800003
aF4.7071896650899996
aF4.8371637819700002
aF4.9861306159599996
aF5.1247005951200002
aF5.2989900989100001
aF5.4331191858299999
aF5.5988276453600001
aF5.8197641223699996
aF6.0307234869500004
aF6.2629671258800004
aF6.4723292924600004
aF6.73373305351
aF7.0011281823499996
aF7.2896172889599997
aF7.6282663585300003
aF7.9822597848400001
aF8.4459703825899997
aF8.8384469969099992
aF9.2101115074000006
aF9.73610634934
aF10.3512776241
aF10.917239822399999
aF11.6235706159
aF12.2958078571
aF12.939563854899999
aF14.2324201348
aF15.485703747200001
aF16.9857809226
aF18.432059703
aF20.321399149499999
aF22.561711453099999
aF25.531954585200001
aF29.543395520299999
aF34.331229479900003
aF42.111056517599998
aF54.231741921900003
aF88.569928594700002
aF402.90323270200003
aF0
aF0.063832780404899994
aF0.097778217097499995
aF0.12370909607
aF0.150339924072
aF0.16482266304000001
aF0.17990570626399999
aF0.190646713912
aF0.20163809948600001
aF0.216830757348
aF0.22812951506500001
aF0.24021891326399999
aF0.25541866841600003
aF0.269018368043
aF0.28049226030899999
aF0.29164957411100001
aF0.30229091825999999
aF0.31343659256900003
aF0.327727185596
aF0.33950733116499998
aF0.35546334505900001
aF0.36812325794200002
aF0.38133767715299999
aF0.394597620963
aF0.404978263841
aF0.41815375781000003
aF0.42864653293400001
aF0.444894300819
aF0.454376903331
aF0.46341028375999999
aF0.47599157488299998
aF0.48560628028199998
aF0.49777311032799998
aF0.508833944353
aF0.52141721957599996
aF0.53079993862899999
aF0.54083525487700002
aF0.55116155918099996
aF0.56028981112599996
aF0.571200303066
aF0.58044683485600002
aF0.58839931947599999
aF0.59900193670599999
aF0.60844513668900002
aF0.61984074999700001
aF0.630706376051
aF0.64055060618699999
aF0.65022883648700003
aF0.65969805240099999
aF0.67173860230299998
aF0.683039145269
aF0.69151743825699996
aF0.70492328902000001
aF0.71497674644599996
aF0.72455754197800004
aF0.73626892393499999
aF0.74666068393600005
aF0.75711837954399996
aF0.76917986479
aF0.78031391817899998
aF0.79003646883199996
aF0.80178135233600001
aF0.81294330929500003
aF0.82479240642999996
aF0.83793294590599998
aF0.84856051750299999
aF0.857727050288
aF0.867523080562
aF0.87989898293299995
aF0.88810730552100003
aF0.89899588869799996
aF0.90918788036700005
aF0.92161182284099996
aF0.93310880618299996
aF0.94666983786799996
aF0.95950586438800001
aF0.96954717752200004
aF0.98183054360800004
aF0.99327109762300003
aF1.0071871810099999
aF1.0199396023
aF1.0299591745400001
aF1.0433590956800001
aF1.0579526586200001
aF1.0722037652
aF1.0856825564000001
aF1.10062275455
aF1.11366547931
aF1.12553109294
aF1.1369984132099999
aF1.1497029036699999
aF1.16306292312
aF1.17522255584
aF1.1892082610600001
aF1.2041212236300001
aF1.22190050707
aF1.2347118934600001
aF1.2504314859500001
aF1.2629302579599999
aF1.2791680786099999
aF1.29405735901
aF1.3107720617700001
aF1.32643387797
aF1.3415152129300001
aF1.3620274129300001
aF1.3823476697499999
aF1.40444011877
aF1.42173569526
aF1.4364703857500001
aF1.45484612731
aF1.47972134044
aF1.49655634371
aF1.5141380044499999
aF1.53379025535
aF1.5555036580899999
aF1.5714663036600001
aF1.59647294538
aF1.6138151759899999
aF1.6380127097199999
aF1.6594163419300001
aF1.6820072233800001
aF1.7019879011500001
aF1.7246555912899999
aF1.75616951171
aF1.7809849497500001
aF1.8095401046899999
aF1.83533696471
aF1.8573176551099999
aF1.88542875324
aF1.92090178934
aF1.9505618811500001
aF1.9774596313099999
aF2.0068544301600002
aF2.0350921018900001
aF2.0643959097
aF2.1062800026400001
aF2.1347376230699999
aF2.1742676793900002
aF2.2104098855299998
aF2.2514941680099998
aF2.2912348247100001
aF2.3349554164100002
aF2.3796253970099999
aF2.41766195211
aF2.4815347228200002
aF2.5296861327400002
aF2.57523096673
aF2.6414826618
aF2.6880090127099998
aF2.7379395286100001
aF2.7971131333199999
aF2.8454615301600001
aF2.9012187913899998
aF2.9675790254000001
aF3.04978866032
aF3.12354871979
aF3.2117080755199998
aF3.3031992991200001
aF3.3786495999400001
aF3.4622786505200001
aF3.5341733641599999
aF3.5975451787299999
aF3.7026608369999998
aF3.82558431557
aF3.9485708722999999
aF4.0749917626799999
aF4.2182278466299996
aF4.3815530054699998
aF4.5579379614200004
aF4.7079073862299996
aF4.8861754887000002
aF5.0662849643500003
aF5.2496674690900003
aF5.4708584275999996
aF5.6873944276300001
aF5.9465154086899998
aF6.10841977807
aF6.32522045284
aF6.6457452149499998
aF6.8963618663700004
aF7.1600629694100002
aF7.4849075540900003
aF7.8078159674899998
aF8.1135987260599993
aF8.6434490614699993
aF9.3138777741999998
aF9.9096943796500003
aF10.5413045729
aF11.158948712999999
aF11.999104899500001
aF12.8985733307
aF13.9490047253
aF15.518092394
aF17.033131729600001
aF18.432082803299998
aF20.708613102099999
aF23.123985660399999
aF27.884421759599999
aF36.561019225000003
aF61.076641297099997
aF468.04625970900003
aF0
aF0.067076529355799996
aF0.097824586424400006
aF0.12058047219699999
aF0.135066352689
aF0.15703805450399999
aF0.16865220856099999
aF0.18272153189500001
aF0.19456107267299999
aF0.20905544303500001
aF0.22429021016199999
aF0.23682684978499999
aF0.24961005214199999
aF0.26225295033399998
aF0.27282432554800001
aF0.283602099439
aF0.29623312604699997
aF0.30840842319700001
aF0.31645548412699998
aF0.33143452632300002
aF0.343712260145
aF0.35341928343099999
aF0.36635377466399999
aF0.37717670892999999
aF0.39032523504299999
aF0.40013045900700001
aF0.41162395957300002
aF0.42423155816699998
aF0.43186283101
aF0.44215015996599999
aF0.45428937582200002
aF0.46224971743999999
aF0.47594444504299999
aF0.48807023390400001
aF0.49693964716900002
aF0.51019137347099996
aF0.52165237357899996
aF0.53174150971800005
aF0.54256492119300004
aF0.55515020156399997
aF0.56325486596700003
aF0.57178372078899997
aF0.57891384744999996
aF0.58826455880299999
aF0.59910449639800001
aF0.60935191848000003
aF0.61881052080400001
aF0.62702569041300005
aF0.63798126176500003
aF0.64999626073299999
aF0.66409842520700002
aF0.67206511322700002
aF0.68117655017099998
aF0.69235691936599997
aF0.70629027472700001
aF0.71718753920199996
aF0.72825030830899995
aF0.73958277894699997
aF0.74721313986399995
aF0.75951044739999996
aF0.77054717878099999
aF0.78033716992000002
aF0.791657009508
aF0.80069783012999995
aF0.81151864388700001
aF0.82257967604500004
aF0.83376565960100002
aF0.84367481175100001
aF0.85373445615999999
aF0.86281664475599995
aF0.87277267299399997
aF0.88522150941099997
aF0.895112829577
aF0.90741716188900001
aF0.91619554643300005
aF0.92601655850499998
aF0.93734361345600004
aF0.94620041333000005
aF0.95712672909899998
aF0.96744573225499997
aF0.98318977108299999
aF0.99187947130599996
aF1.00505446816
aF1.0135141032699999
aF1.02598410227
aF1.0352951482399999
aF1.0473143060900001
aF1.0610104522899999
aF1.07557548922
aF1.0886540525699999
aF1.1030302993000001
aF1.1222000890499999
aF1.1397653729499999
aF1.15430437835
aF1.1696993848599999
aF1.1869488960800001
aF1.20122564741
aF1.2141587142000001
aF1.2257708751700001
aF1.2411522805399999
aF1.2560045466400001
aF1.27446251035
aF1.2841952131300001
aF1.2982208578200001
aF1.3182157576
aF1.3298159782600001
aF1.3424136029
aF1.3604328317200001
aF1.3767068167600001
aF1.39749108045
aF1.4148267830400001
aF1.43982412632
aF1.45450195158
aF1.47070553463
aF1.4842104270200001
aF1.5036094415600001
aF1.5196111004899999
aF1.5427837280000001
aF1.56874118822
aF1.59012806749
aF1.6156339281200001
aF1.6415259814800001
aF1.6627342303899999
aF1.68678597138
aF1.7123700775899999
aF1.7355941341300001
aF1.7575287234700001
aF1.77549370303
aF1.8023242212999999
aF1.8306364744700001
aF1.86843117775
aF1.89616140233
aF1.92693168508
aF1.94653908551
aF1.9674301249699999
aF2.0023775987399999
aF2.0410970809600002
aF2.0712419181500001
aF2.1001298794399998
aF2.1435551353000002
aF2.18745519946
aF2.2407411531300001
aF2.2877176484300001
aF2.3482386991299999
aF2.3878544206000001
aF2.4256485211599998
aF2.4689746994299999
aF2.54115707404
aF2.6060044637200002
aF2.6471446480799998
aF2.7082778846300002
aF2.7625848318599999
aF2.8217618519399998
aF2.8730281955899999
aF2.94944935405
aF2.9984511177900002
aF3.06158326156
aF3.1477109402800001
aF3.2264457052400002
aF3.3135370713699999
aF3.3913116560900001
aF3.46766561982
aF3.5469306652600001
aF3.6270133483599998
aF3.7196516111200002
aF3.8300128499600001
aF3.9706856961599999
aF4.0624593885399998
aF4.16862605645
aF4.32355081595
aF4.4582130280000003
aF4.5901068198399999
aF4.7253251831799998
aF4.8713623347399997
aF5.0670691161099999
aF5.2375849693000003
aF5.3887073546400002
aF5.6495635870200003
aF5.8884178613599998
aF6.1407571599699997
aF6.3858608976199998
aF6.6661948102800004
aF7.0439049067599999
aF7.3559915120800001
aF7.73009363221
aF8.2262361691900008
aF8.8019442355600006
aF9.2680434525499997
aF9.7743200198599993
aF10.6920252267
aF11.3785733059
aF12.170137853
aF13.036613519199999
aF14.486048819000001
aF16.028067222499999
aF17.977721620600001
aF20.963719555200001
aF25.110074835700001
aF32.315204575999999
aF51.776266767099997
aF108.063764331
aF0
aF0.074209559522700003
aF0.108008052641
aF0.12807119272199999
aF0.145696860505
aF0.15949782790200001
aF0.17030767784699999
aF0.181856162219
aF0.194359775116
aF0.206545451204
aF0.216886655718
aF0.227597454714
aF0.239520822277
aF0.24975972163499999
aF0.26174800391699998
aF0.27515156150300002
aF0.28928260960800001
aF0.30056007218699998
aF0.31177038148300001
aF0.32223273686999998
aF0.33233709398299999
aF0.34226863585799999
aF0.35054033371600002
aF0.36272022538900001
aF0.37265758299599999
aF0.38450845354800001
aF0.392952528902
aF0.40280374789700002
aF0.41239163517100003
aF0.42225057636800001
aF0.43390677896199997
aF0.44589553585300001
aF0.456357880291
aF0.46605928183400003
aF0.47533877800199997
aF0.485109944056
aF0.49754601794199999
aF0.50792030114300002
aF0.51923692407099997
aF0.52864927728800004
aF0.53777407420400003
aF0.54790751383199998
aF0.55673983995999998
aF0.56698607143699997
aF0.57670367642800002
aF0.58667471005899996
aF0.596751819495
aF0.60570130209100004
aF0.61498993393199997
aF0.62532916186599996
aF0.63421809777399996
aF0.643945582415
aF0.652131236
aF0.66037342159400003
aF0.66984241853199999
aF0.68013004284099998
aF0.68891506562500004
aF0.69795858717600001
aF0.70724072355500001
aF0.71773910407499997
aF0.72600456224599996
aF0.73529066837299994
aF0.74465581544199999
aF0.75311728489600005
aF0.76285052475299997
aF0.77230557399699995
aF0.78194921514500004
aF0.79213459741699999
aF0.80258535964699995
aF0.81396443458699996
aF0.82267338024400005
aF0.83206771620599995
aF0.83984893131100002
aF0.85244698240700001
aF0.860212067124
aF0.87121284808199995
aF0.88206426743400002
aF0.893602624377
aF0.90550090295300001
aF0.91868520951400001
aF0.92977380346299998
aF0.94206318246999998
aF0.95246633238900003
aF0.96670282891199999
aF0.97605982209599995
aF0.98559747736000003
aF0.99585577432700001
aF1.00707064259
aF1.01710690075
aF1.02898182166
aF1.04428034784
aF1.0538694818500001
aF1.06500309695
aF1.0756346263800001
aF1.08768054822
aF1.0986564112699999
aF1.11056517658
aF1.1222492032
aF1.13556072341
aF1.1472841566
aF1.16118311944
aF1.17259765348
aF1.1861421571199999
aF1.1985894798400001
aF1.20980222263
aF1.2233664048399999
aF1.2385002300500001
aF1.2516226459299999
aF1.2669008712400001
aF1.2794959423800001
aF1.2958611531299999
aF1.31116706463
aF1.32857407312
aF1.34365731571
aF1.35879876289
aF1.3767427480700001
aF1.3927745273200001
aF1.41141387435
aF1.4296441628400001
aF1.4469934928999999
aF1.46603314043
aF1.4837471764900001
aF1.5016602720400001
aF1.51855715617
aF1.5372635274499999
aF1.55585749083
aF1.5776110083899999
aF1.59566951462
aF1.62476079488
aF1.6471928626000001
aF1.6678247338300001
aF1.6864094001200001
aF1.7115934443700001
aF1.7389659531499999
aF1.76721239977
aF1.78849994105
aF1.81312786502
aF1.8365295582100001
aF1.8646738456900001
aF1.8978807795199999
aF1.9240405234
aF1.9549490789899999
aF1.98972377392
aF2.0200230888899999
aF2.0589141742399999
aF2.10302415543
aF2.14058485254
aF2.1818536127199999
aF2.2299519963300001
aF2.2712959938699999
aF2.3135445986500001
aF2.3566542270399999
aF2.3959056922599999
aF2.4446333513399998
aF2.4952439185199999
aF2.5492654399200001
aF2.6106037504100001
aF2.6602865229799999
aF2.7105208912299998
aF2.7745671455899998
aF2.8333797499900002
aF2.9008461857499999
aF2.96494326499
aF3.0289889630300002
aF3.10234506861
aF3.1725169557099999
aF3.2548023935399999
aF3.3312575634499999
aF3.41501385226
aF3.5077691502100001
aF3.6109139158899999
aF3.70736489466
aF3.8078795299400001
aF3.9399935880500001
aF4.0729162849399998
aF4.1754315477999997
aF4.32871701963
aF4.4670420558400004
aF4.6172360869400002
aF4.7801353008799996
aF4.9685158392900002
aF5.1787521224099997
aF5.3659561809799996
aF5.5579867362700002
aF5.80647069765
aF6.0770936171800001
aF6.3474439077599998
aF6.62582338065
aF6.9727248909400004
aF7.3991913842899999
aF7.8834449215399998
aF8.5166144845100007
aF9.2030546325000007
aF9.88020733826
aF10.866036106699999
aF12.0758777085
aF14.18128042
aF16.712052750600002
aF20.430876708300001
aF27.2913398323
aF198.831343334
aF0
aF0.069244384700200001
aF0.088432101515100003
aF0.10716305206
aF0.12503845091900001
aF0.140404065533
aF0.15732758095900001
aF0.17026163426999999
aF0.181554153262
aF0.19229104097999999
aF0.20063488720700001
aF0.20918075219000001
aF0.22448851398700001
aF0.23329259600999999
aF0.243417838223
aF0.25098683398999999
aF0.26086665715599999
aF0.26722012921400001
aF0.27447102517700001
aF0.28549280903099999
aF0.29370514330199998
aF0.30435794709199998
aF0.31171401890299999
aF0.32079725821600003
aF0.33073290586199999
aF0.340392028515
aF0.35038726600499998
aF0.35811690266399998
aF0.36447411653700001
aF0.37185544116399999
aF0.381082348721
aF0.390780214455
aF0.39830952785200002
aF0.40748168602500001
aF0.41488373765499997
aF0.42543510561100001
aF0.43158160961199998
aF0.44002625662900002
aF0.44926347686599999
aF0.45776432919799998
aF0.468022411503
aF0.47664440380200002
aF0.48258490950499999
aF0.48896171374500003
aF0.496491820137
aF0.50698509859999996
aF0.51452015906199999
aF0.52068937139100002
aF0.52946408477100004
aF0.53880448153799998
aF0.548801791313
aF0.555995027759
aF0.56369511933200001
aF0.57026213611200005
aF0.57917412801400003
aF0.58903117523000004
aF0.59960305490099997
aF0.60673607228299997
aF0.61394249280099999
aF0.62335872512500001
aF0.62950473092000003
aF0.63564906077100003
aF0.64370653836500002
aF0.65068290176499999
aF0.65692425783200004
aF0.66660140937199996
aF0.67467287438699997
aF0.68340267482299999
aF0.69234704669500002
aF0.70022548729900003
aF0.70878108772100001
aF0.71517132508000003
aF0.72483344563800001
aF0.73510369684400001
aF0.74464179844099998
aF0.75114169742299997
aF0.75948786098200005
aF0.76927896632399995
aF0.780181603981
aF0.79038397953499995
aF0.79658809158499999
aF0.80565180419899995
aF0.81340080992999997
aF0.82502676166900002
aF0.83237961296700003
aF0.84110268556400003
aF0.85232968998699998
aF0.86273446105600005
aF0.87069963084699997
aF0.88137854582999997
aF0.89128913714400004
aF0.90061058757400003
aF0.90609412190700001
aF0.91504032505999999
aF0.92415693050900005
aF0.93648983181699996
aF0.94349116139300004
aF0.95300702282700001
aF0.96521719153999996
aF0.97733292798399996
aF0.98974230043699996
aF1.0028012640199999
aF1.01236890773
aF1.0253034214500001
aF1.0345343165800001
aF1.0429324387700001
aF1.0534672371
aF1.06628868009
aF1.07468795352
aF1.08633326882
aF1.09933424957
aF1.1068518163600001
aF1.12106242894
aF1.13430375102
aF1.1497669909499999
aF1.16355554605
aF1.1741333470999999
aF1.1865602471200001
aF1.19552264974
aF1.20964466299
aF1.2206552660600001
aF1.2334735428900001
aF1.2446193507100001
aF1.26228052188
aF1.2733668809500001
aF1.2862487980799999
aF1.29915564596
aF1.31311637923
aF1.3325804596099999
aF1.34251302023
aF1.3591003659500001
aF1.377169549
aF1.3924811167
aF1.40750771045
aF1.4232614989300001
aF1.4396669344899999
aF1.4651287187599999
aF1.4899491085200001
aF1.50816578923
aF1.5249813512099999
aF1.5484316629499999
aF1.56552035633
aF1.58626075727
aF1.60321824898
aF1.6254795315799999
aF1.64592427713
aF1.6680292001699999
aF1.6929771865600001
aF1.71641044875
aF1.73825985627
aF1.7655221754799999
aF1.7903694698399999
aF1.8124234588000001
aF1.83919765728
aF1.86770929471
aF1.9001015000199999
aF1.9321267789500001
aF1.95584199638
aF1.99690811411
aF2.0217444230499999
aF2.05376297292
aF2.0929451083099999
aF2.12301731176
aF2.1526232798299998
aF2.19298807375
aF2.2255018723100002
aF2.2689246505599998
aF2.3179026897699999
aF2.3644121098699999
aF2.4221039841300001
aF2.4838688069799999
aF2.53466998697
aF2.6042919607999999
aF2.6812450073999998
aF2.7654172146999998
aF2.8309204248399999
aF2.9094078948100002
aF2.9876772553499999
aF3.0748530970700001
aF3.1622064731699999
aF3.24147451246
aF3.32558384886
aF3.4422202342600001
aF3.5775338240400001
aF3.7141610497599999
aF3.87173250803
aF4.0663966875900002
aF4.29308118297
aF4.4781034155099997
aF4.7041054642700004
aF5.0488522514199996
aF5.3311777928700002
aF5.6656935490200002
aF6.1539089237400004
aF6.8843836607600002
aF7.4347424954000001
aF8.2978267417500007
aF9.6243020157500005
aF11.369168954199999
aF15.540639672399999
aF76.1760172643
aF0
aF0.049706365699999998
aF0.0666592682662
aF0.088322065368899999
aF0.104536859611
aF0.11923256786399999
aF0.127291144238
aF0.13502577832400001
aF0.140820543469
aF0.15139945632400001
aF0.16099717066999999
aF0.16793664804899999
aF0.179770597659
aF0.18534480911599999
aF0.19437588065
aF0.20501796081000001
aF0.21442507195499999
aF0.223638661722
aF0.235448046864
aF0.24069837603999999
aF0.249796619168
aF0.2569021037
aF0.26571241794099998
aF0.273484835112
aF0.28264031867099998
aF0.29203238294299999
aF0.30128506578199998
aF0.30890798204499997
aF0.31400372247300001
aF0.32085907990500001
aF0.33018590514200002
aF0.33434813763600002
aF0.34099138695100001
aF0.34839419218399997
aF0.36043796979300002
aF0.366921197137
aF0.374978179395
aF0.380142953738
aF0.38497527854699998
aF0.39412431397300002
aF0.40294224279800001
aF0.41036947119900002
aF0.42097414080500001
aF0.426696154529
aF0.43405547629300001
aF0.438076390323
aF0.44626941882600002
aF0.45209988855099997
aF0.46025667702299999
aF0.46751534699899999
aF0.47569740786199999
aF0.48648925341600002
aF0.49365845173799999
aF0.50062076512099996
aF0.50762099689399998
aF0.51599561488599999
aF0.52069070294499997
aF0.52771734894599998
aF0.53507770527700005
aF0.53957262010100004
aF0.54687563426600005
aF0.55882733756900005
aF0.56778279961099998
aF0.57581367970300001
aF0.58169558514099995
aF0.589416835832
aF0.59799990574399997
aF0.60309451416000004
aF0.60776585343300005
aF0.61113211528400002
aF0.620751519689
aF0.63049668177200002
aF0.64186111209399999
aF0.649049389792
aF0.65881032984999999
aF0.667603399933
aF0.67500088551600002
aF0.68058962597299999
aF0.68475592303099997
aF0.69020553863599998
aF0.69297641552300004
aF0.69919890922799999
aF0.70692564551500003
aF0.71223085652100004
aF0.72213575435900001
aF0.730079802251
aF0.73971307206199999
aF0.74754515744299999
aF0.75906245692899998
aF0.76535806436599996
aF0.768435170424
aF0.77936645084
aF0.78371319966099995
aF0.793548757173
aF0.79992665980300004
aF0.80669075308100002
aF0.813805390164
aF0.82073219292800004
aF0.82530292600499999
aF0.83254418888299997
aF0.84023227490600005
aF0.84610269681500005
aF0.850974506809
aF0.85604916181199997
aF0.86800267070000003
aF0.87548269182500005
aF0.88170746226899999
aF0.89168104316600005
aF0.89886785180600004
aF0.90941660694899995
aF0.92091095976000004
aF0.92713708903799996
aF0.93255472954399998
aF0.94075570205600001
aF0.95405981205900003
aF0.96338844277799995
aF0.97402552055400005
aF0.98526481076200001
aF0.99808150342699997
aF1.00881814468
aF1.0181152037700001
aF1.02462072395
aF1.0362614133200001
aF1.0501057383200001
aF1.05573829434
aF1.0663375241399999
aF1.0815544234900001
aF1.0920197863400001
aF1.10280835408
aF1.1180455459900001
aF1.1302349147199999
aF1.14338393376
aF1.1517784771899999
aF1.16459044846
aF1.17843359548
aF1.1909602731
aF1.2038564818399999
aF1.2161138792399999
aF1.22899884794
aF1.24167619324
aF1.25804220029
aF1.26669854112
aF1.28319750286
aF1.29839920006
aF1.31138545902
aF1.3222317000599999
aF1.34185918055
aF1.3547619368999999
aF1.3711217067000001
aF1.3874485756199999
aF1.4017178245899999
aF1.4176863825099999
aF1.43525875504
aF1.4513358921899999
aF1.4669285814799999
aF1.49058059786
aF1.51243917885
aF1.5343601628600001
aF1.5519685841999999
aF1.5858246281799999
aF1.6052702545799999
aF1.6255288476200001
aF1.645511371
aF1.67744979518
aF1.7003145979100001
aF1.7236176675199999
aF1.74467645265
aF1.7809151811699999
aF1.8104241704099999
aF1.85100020932
aF1.8902605480300001
aF1.9127629589099999
aF1.94264465956
aF1.98831619403
aF2.0462312106199998
aF2.1088091964400002
aF2.1589111550700002
aF2.19880416124
aF2.2551363689100001
aF2.32115689321
aF2.3900112406699998
aF2.4355086734200002
aF2.53167527975
aF2.5574390199299999
aF2.69075228193
aF2.80722131929
aF2.8827815963000001
aF3.0169724035100001
aF3.1020365340699998
aF3.2877647668300001
aF3.4186314330799998
aF3.55711527829
aF3.7777833577900002
aF4.0940063095600001
aF4.35113022089
aF4.7722176832300001
aF5.4945754250499999
aF6.0600360065499999
aF6.7983858917699997
aF9.1234186672500002
aF40.009378980599998
aF0
aF0.067895952064799994
aF0.084300078749299998
aF0.095052432169299997
aF0.102638659398
aF0.112117784904
aF0.11826939027900001
aF0.12549932636300001
aF0.12979818836900001
aF0.14651996704600001
aF0.15100212390600001
aF0.161663165759
aF0.16954870848299999
aF0.177081348221
aF0.18018558524200001
aF0.18303580819699999
aF0.19216015759300001
aF0.19761816342399999
aF0.20405892001000001
aF0.208512677383
aF0.2121909193
aF0.219201257102
aF0.226866968867
aF0.23794276716900001
aF0.24987132195699999
aF0.25465170763400002
aF0.26099785587800001
aF0.26730559655899999
aF0.28331961066
aF0.29096521670800002
aF0.29624967979200001
aF0.29829805930100001
aF0.30951316035100002
aF0.31770754811700003
aF0.32720886553700002
aF0.33647444911699997
aF0.34198895204000002
aF0.35025569471500001
aF0.35723583674800002
aF0.36574792956399999
aF0.37381139126899998
aF0.38799391889500001
aF0.39067031169299998
aF0.39620024782899999
aF0.40020907354500002
aF0.406629782376
aF0.41587001647900002
aF0.42064605710199998
aF0.427983894024
aF0.43880340547500002
aF0.446223080223
aF0.450449340882
aF0.45558651616200002
aF0.46105934588699998
aF0.46416526610600001
aF0.47234232416100003
aF0.47838800081799998
aF0.48398364517499998
aF0.49028214090200001
aF0.499284532015
aF0.50451360745100005
aF0.509733914146
aF0.51534943972199998
aF0.51694525305200001
aF0.52351544417600004
aF0.52741635274900001
aF0.53030801158100005
aF0.54039249319000005
aF0.543358519993
aF0.55090831684899999
aF0.56351528162800002
aF0.57109497028699996
aF0.57678495336900004
aF0.58431894816300001
aF0.59453107257500004
aF0.60337885959000004
aF0.61000337793399995
aF0.61727383516599998
aF0.62371645808300002
aF0.629855469291
aF0.64046230499599999
aF0.64338774420900002
aF0.64928236111199999
aF0.65253922932700004
aF0.65630438988100004
aF0.66542800844200001
aF0.67245369789099996
aF0.67689678974900003
aF0.68490163471400001
aF0.697879548796
aF0.70321721042899998
aF0.70825620560000002
aF0.71214130965099998
aF0.71606229576000002
aF0.72849739743399999
aF0.72997690491599998
aF0.73496304621899999
aF0.74722916204000001
aF0.75461055645599995
aF0.76049922669799996
aF0.76492250952399998
aF0.77219537422499995
aF0.77615043430200004
aF0.78272629883699996
aF0.78806707738399995
aF0.803877101727
aF0.81237050231600005
aF0.82231101211000002
aF0.82643891219300003
aF0.82994343368199996
aF0.84104036655799996
aF0.85001450139900003
aF0.85722719700299999
aF0.86813520497600005
aF0.87634807207999998
aF0.87849406127499996
aF0.88626760274000005
aF0.89464524886600005
aF0.89854680515700003
aF0.90579336081200001
aF0.90937836218900003
aF0.92263809143499997
aF0.92671709472899999
aF0.93140291302300005
aF0.93889838636400003
aF0.94817473635500005
aF0.95134624523199995
aF0.95948566447500006
aF0.96931430537899999
aF0.97827519300099997
aF0.98284090499800003
aF0.98853660864199999
aF0.99999303088000002
aF1.00933104878
aF1.02227252775
aF1.0339923686800001
aF1.03840687036
aF1.04500879737
aF1.05122171927
aF1.06723984471
aF1.07953686403
aF1.09113807067
aF1.10417487551
aF1.11446546637
aF1.1254220105599999
aF1.1353940360999999
aF1.16144655068
aF1.1695186521200001
aF1.1831819617599999
aF1.2096151764900001
aF1.2368935164299999
aF1.2456266675500001
aF1.25296303964
aF1.26564891435
aF1.2701959942000001
aF1.28466851306
aF1.29873724956
aF1.31966389347
aF1.3313272542500001
aF1.34786430325
aF1.3621826611400001
aF1.3720433831700001
aF1.3971090305
aF1.4043458957999999
aF1.4238434153299999
aF1.4590867995000001
aF1.4854743821
aF1.5153253015599999
aF1.54813838085
aF1.57329724758
aF1.6116532666100001
aF1.62277970085
aF1.63219947245
aF1.6666665269000001
aF1.73127681763
aF1.7492774307700001
aF1.80557771894
aF1.8267234865099999
aF1.88934211181
aF1.9203963709
aF1.99466093314
aF2.0230718376899999
aF2.0628543274000002
aF2.1367073224899999
aF2.1821320160500002
aF2.22093938088
aF2.3072520016700002
aF2.3621845025599999
aF2.44517002578
aF2.5015913727800001
aF2.5975738754100002
aF2.7045052724200001
aF2.8865631109500001
aF3.1260959842
aF3.39849260601
aF3.6254807685400001
aF4.0097191798100003
aF4.5724242129699997
aF5.4143250544999999
aF6.3272292972399997
aF17.5560575511
aF0
aF0.085458258148600003
aF0.098622234580399995
aF0.106568524017
aF0.108057180859
aF0.1107805041
aF0.11464013028599999
aF0.13602438252499999
aF0.14300574817799999
aF0.146684159845
aF0.15122598984999999
aF0.154733085331
aF0.161754974932
aF0.17723910406000001
aF0.18032389045700001
aF0.18658548177699999
aF0.18746673820000001
aF0.19896129970099999
aF0.209234599805
aF0.21980562614900001
aF0.228062016284
aF0.23711187915099999
aF0.23869840689499999
aF0.240361816358
aF0.27144033681000002
aF0.27327373169399999
aF0.27458858408600001
aF0.28007177711800002
aF0.28248298888899998
aF0.28387767697499999
aF0.287453003343
aF0.292023090998
aF0.29519223190999999
aF0.31407066578100001
aF0.32033662902100002
aF0.32377361486099998
aF0.33791304018399998
aF0.340145093994
aF0.34355792125200002
aF0.35986952431000002
aF0.36278049873099999
aF0.36565591999199998
aF0.36887445402199998
aF0.37307785833099999
aF0.37522358431500002
aF0.38644599385299999
aF0.38905873533300001
aF0.39011760635100001
aF0.39429900482899999
aF0.40016937602000002
aF0.40636267913899998
aF0.408103464438
aF0.411985395905
aF0.42002274379400001
aF0.42424580987299998
aF0.42889507706199997
aF0.43431096613499998
aF0.43634598755999998
aF0.44074601502999999
aF0.44833586654099999
aF0.44981411452999998
aF0.45139144803199999
aF0.45825414352600002
aF0.465858692219
aF0.46971239089400002
aF0.48073097106200002
aF0.49008253400700003
aF0.49019267044199999
aF0.49421178442399999
aF0.49592401222499999
aF0.51649450538700004
aF0.52148438326400004
aF0.52450649919199999
aF0.52875492868700003
aF0.53851929926099995
aF0.55522500190799995
aF0.56567545616600001
aF0.57500972364500003
aF0.575413910571
aF0.577492611263
aF0.58282093829299997
aF0.5882333891
aF0.59178334343399996
aF0.59490514439200004
aF0.59707926005599998
aF0.60398628531999998
aF0.61018821270699997
aF0.62788446277499999
aF0.62845001268199996
aF0.63245592828700004
aF0.64203220116600002
aF0.64960047364600004
aF0.65218235923199996
aF0.65302094855500004
aF0.65709800478699998
aF0.66525750618900004
aF0.66772838617499997
aF0.66931616078599998
aF0.67398981338899999
aF0.67995566798200002
aF0.69261712558099997
aF0.69323176238100004
aF0.70328807748099997
aF0.70817581305300004
aF0.71362676385000001
aF0.72122326659400005
aF0.72982093594899999
aF0.73501610749799995
aF0.74418077769299995
aF0.74740381350899998
aF0.75972971198000006
aF0.76542085452499997
aF0.77293727748999996
aF0.77569521588599999
aF0.79040702133899998
aF0.79124143409100001
aF0.79674835901600005
aF0.801314329913
aF0.80761727105100001
aF0.81334526814800001
aF0.82599153547399995
aF0.835753037664
aF0.84010997734000004
aF0.84324537731399996
aF0.84524994337100001
aF0.852251511771
aF0.85726585936199995
aF0.86776513236499997
aF0.87321839355800002
aF0.88257634312599997
aF0.88885223178899997
aF0.89462277052799999
aF0.89929289721500005
aF0.91054077473399997
aF0.91235045283799998
aF0.91859506476800001
aF0.92379410344599999
aF0.92778311003299996
aF0.95200833907100002
aF0.96058777907100001
aF0.96275379136000006
aF0.96711989399800002
aF0.98158423342400003
aF0.99959381644599998
aF1.0158547410300001
aF1.0257344455099999
aF1.0386164152999999
aF1.05829394823
aF1.0652432737599999
aF1.06870005665
aF1.0850122523800001
aF1.08895555924
aF1.1035938848
aF1.1079237802499999
aF1.14480878564
aF1.1555554675299999
aF1.1789854119500001
aF1.21604495077
aF1.21944541763
aF1.2255115895799999
aF1.2349135122299999
aF1.2574900653700001
aF1.2756099428300001
aF1.27830965632
aF1.29563470054
aF1.33511311013
aF1.37879372829
aF1.4104141532900001
aF1.42999159888
aF1.4340564609599999
aF1.4404309370999999
aF1.45125639917
aF1.4753290649999999
aF1.50104361326
aF1.5067651051299999
aF1.56173064277
aF1.5867665737000001
aF1.6529842751699999
aF1.68573957888
aF1.6981474139899999
aF1.7544189081799999
aF1.79075077468
aF1.8606238073600001
aF1.9675939468600001
aF1.99649367583
aF2.0088494420599998
aF2.0624960910299999
aF2.1345821995000001
aF2.25477797389
aF2.4129377727399999
aF2.4947352830499998
aF2.6183637912700002
aF3.0074794112299998
aF3.1791961046799999
aF3.4293356642399999
aF3.8514844690699999
aF4.2517228191100003
aF4.9637069833399998
aF6.0765632038800002
aF6.7603904355099997
aF10.3173126473
aF0
aF0.078613919986899997
aF0.086706257325800007
aF0.086706257325800007
aF0.114789651673
aF0.12273957318299999
aF0.127062920365
aF0.128484790396
aF0.13578225807899999
aF0.13578225807899999
aF0.14730174056500001
aF0.14730174056500001
aF0.15501754607599999
aF0.17160764402600001
aF0.17160764402600001
aF0.17716597523700001
aF0.19318889167600001
aF0.201064059002
aF0.20544566915199999
aF0.208662339522
aF0.208662339522
aF0.209070783313
aF0.217981911645
aF0.21984720431800001
aF0.22959168302800001
aF0.22959168302800001
aF0.22979925938500001
aF0.23023398217900001
aF0.23282324285100001
aF0.23847389001200001
aF0.24981772981200001
aF0.24981772981200001
aF0.251976912788
aF0.26484603340399998
aF0.267063574626
aF0.276065116128
aF0.27955725551999999
aF0.27955725551999999
aF0.29253129065099998
aF0.29257984585899999
aF0.29426519135099999
aF0.29991973517600001
aF0.29991973517600001
aF0.300865581125
aF0.30629956382500001
aF0.33189640078299998
aF0.33193362117300002
aF0.332892715999
aF0.332892715999
aF0.33786995917700002
aF0.34286355479300001
aF0.35037131399499999
aF0.36538777844499998
aF0.36538777844499998
aF0.39533598300400002
aF0.40761459269400002
aF0.43071349334699999
aF0.44611156073300001
aF0.44821302280300002
aF0.44821302280300002
aF0.45970379461999999
aF0.479322648149
aF0.49927725766600001
aF0.50856338644599997
aF0.50856338644599997
aF0.51381349247600006
aF0.52312377414900002
aF0.52365255460899995
aF0.524357535308
aF0.52449511360300005
aF0.53246792168500001
aF0.53246792168500001
aF0.53406269761799996
aF0.54066543759600005
aF0.54165597718199998
aF0.54165597718199998
aF0.54286979560399995
aF0.54565296744199998
aF0.54680412639599996
aF0.55924698793600003
aF0.55948804920899997
aF0.55948804920899997
aF0.56237285913900004
aF0.61191574840100005
aF0.61803286518099998
aF0.62621800263899996
aF0.62894744300399996
aF0.62894744300399996
aF0.64175065233299999
aF0.64274226864700001
aF0.643141090937
aF0.64957757771299995
aF0.64957757771299995
aF0.65462416615899999
aF0.65508592379599995
aF0.65577214273499995
aF0.65867533793400002
aF0.65966257080699997
aF0.65966257080699997
aF0.67002637381200003
aF0.6862767676
aF0.68775204324200001
aF0.68935688154399999
aF0.68935688154399999
aF0.68958321519599997
aF0.69489243672400003
aF0.69799974598299996
aF0.70085954020999996
aF0.70570470911100003
aF0.70570470911100003
aF0.71529355939600003
aF0.71529355939600003
aF0.73061672396900001
aF0.73147192102699998
aF0.73147192102699998
aF0.73172502367900005
aF0.74705904753800001
aF0.75069245931200002
aF0.76171481537700003
aF0.78431047228100004
aF0.78431047228100004
aF0.79589062785700004
aF0.79985244088700003
aF0.80739451523600003
aF0.80995278660199999
aF0.80995278660199999
aF0.818149271693
aF0.81876691441600002
aF0.82187704197599998
aF0.82398018051199995
aF0.83061310912300002
aF0.83061310912300002
aF0.841520560606
aF0.84283988029500001
aF0.845286826815
aF0.85635186159599996
aF0.88301536060399999
aF0.88301536060399999
aF0.89457113891100004
aF0.90319721159599997
aF0.91110728614600001
aF0.920115781518
aF0.920115781518
aF0.924752016362
aF0.93270708632099997
aF0.93634613579199999
aF0.93668785307699998
aF0.938056933654
aF0.938056933654
aF0.963093301648
aF0.97003534928799995
aF0.97433733039600001
aF0.98296990885400004
aF0.98296990885400004
aF0.99165891962800001
aF0.99363899328700001
aF1.00411505522
aF1.0082220608200001
aF1.04142653436
aF1.04142653436
aF1.05299960148
aF1.0584566497800001
aF1.0631344471799999
aF1.0702232139000001
aF1.0702232139000001
aF1.0745255061000001
aF1.07801171048
aF1.09546502235
aF1.1130150782399999
aF1.1212890952400001
aF1.1453294864700001
aF1.1453294864700001
aF1.14683578271
aF1.14912419314
aF1.1868862875699999
aF1.1868862875699999
aF1.2135111146399999
aF1.2764048086199999
aF1.3014758897300001
aF1.33521824385
aF1.3586680634799999
aF1.3586680634799999
aF1.39549136126
aF1.4365610253900001
aF1.4568919919400001
aF1.5925258819899999
aF1.67910648307
aF1.67910648307
aF1.7175836223800001
aF1.8595366530499999
aF2.22804691293
aF2.4236335095200001
aF2.4236335095200001
aF2.5444902152200002
aF2.7565764210300001
aF3.0002289122299999
aF3.2770080283
aF6.1761254131100003
aF6.1761254131100003
aF9.0448113096899991
aF9.0448113096899991
aF0
aF0
aF0.084719549076999995
aF0.084719549076999995
aF0.162771060016
aF0.162771060016
aF0.162771060016
aF0.174797101293
aF0.174797101293
aF0.19337957316099999
aF0.19634700654600001
aF0.19634700654600001
aF0.19634700654600001
aF0.19634700654600001
aF0.19855375347500001
aF0.19855375347500001
aF0.19855375347500001
aF0.200626535691
aF0.200626535691
aF0.20443169045699999
aF0.20443169045699999
aF0.20546703844700001
aF0.20546703844700001
aF0.20546703844700001
aF0.22648266447400001
aF0.22648266447400001
aF0.240550688555
aF0.240550688555
aF0.240550688555
aF0.25396349222699999
aF0.26176107887200001
aF0.26176107887200001
aF0.26176107887200001
aF0.26176107887200001
aF0.27888116985299999
aF0.27888116985299999
aF0.29428424249599999
aF0.29428424249599999
aF0.29428424249599999
aF0.299788951114
aF0.299788951114
aF0.31720186969399999
aF0.31720186969399999
aF0.31720186969399999
aF0.35285717429300001
aF0.35285717429300001
aF0.35967187727099997
aF0.35967187727099997
aF0.35967187727099997
aF0.36425099049600002
aF0.37144632312499998
aF0.37144632312499998
aF0.37144632312499998
aF0.37144632312499998
aF0.393647946528
aF0.393647946528
aF0.40432582434100001
aF0.40432582434100001
aF0.40432582434100001
aF0.41409827036399999
aF0.41409827036399999
aF0.42605819547399998
aF0.42605819547399998
aF0.438201525694
aF0.438201525694
aF0.438201525694
aF0.52412206191900002
aF0.52412206191900002
aF0.53036211888999996
aF0.53036211888999996
aF0.53947846940699995
aF0.53947846940699995
aF0.53947846940699995
aF0.54022582851800005
aF0.54022582851800005
aF0.54022582851800005
aF0.55304014916499999
aF0.55304014916499999
aF0.58228935374099999
aF0.58228935374099999
aF0.58228935374099999
aF0.60596028174500005
aF0.60596028174500005
aF0.61041536468199997
aF0.61041536468199997
aF0.61041536468199997
aF0.65478363743500001
aF0.65478363743500001
aF0.67732197187900001
aF0.67732197187900001
aF0.69170398708900005
aF0.69170398708900005
aF0.69170398708900005
aF0.71778169588399998
aF0.71778169588399998
aF0.71778169588399998
aF0.724448255762
aF0.724448255762
aF0.73445742378500001
aF0.73445742378500001
aF0.73445742378500001
aF0.74008547261299995
aF0.74008547261299995
aF0.74881364436599995
aF0.74881364436599995
aF0.77742926704699999
aF0.77742926704699999
aF0.77742926704699999
aF0.80214410030399996
aF0.80214410030399996
aF0.80237181021399995
aF0.80237181021399995
aF0.80237181021399995
aF0.80480889025799995
aF0.80480889025799995
aF0.81567228496599997
aF0.81567228496599997
aF0.81567228496599997
aF0.82045939538299995
aF0.82045939538299995
aF0.82352724851000003
aF0.82352724851000003
aF0.82352724851000003
aF0.832308451359
aF0.832308451359
aF0.85064319551300005
aF0.85064319551300005
aF0.85064319551300005
aF0.86707524700500005
aF0.86707524700500005
aF0.87113615998799998
aF0.87113615998799998
aF0.87113615998799998
aF0.893480617719
aF0.893480617719
aF0.91025084198899997
aF0.91025084198899997
aF0.91025084198899997
aF0.92945707303699998
aF0.92945707303699998
aF0.94367179870100004
aF0.94367179870100004
aF0.96249504634000005
aF0.96249504634000005
aF0.96249504634000005
aF1.04851239622
aF1.04851239622
aF1.05472835341
aF1.05472835341
aF1.05472835341
aF1.0571022668900001
aF1.0571022668900001
aF1.0795501896999999
aF1.0795501896999999
aF1.0795501896999999
aF1.08606295202
aF1.08606295202
aF1.1610428489
aF1.1610428489
aF1.1610428489
aF1.1737862567099999
aF1.1737862567099999
aF1.19233887401
aF1.19233887401
aF1.19233887401
aF1.23499695024
aF1.23499695024
aF1.32872584115
aF1.32872584115
aF1.32872584115
aF1.4875655673799999
aF1.4875655673799999
aF1.7768916535799999
aF1.7768916535799999
aF1.7768916535799999
aF1.90484127934
aF1.90484127934
aF1.9108413266499999
aF1.9108413266499999
aF1.9108413266499999
aF2.0007729910999998
aF2.0007729910999998
aF2.3382342441700001
aF2.3382342441700001
aF2.5987544026
aF2.5987544026
aF2.5987544026
aF2.6082788293000001
aF2.6082788293000001
aF2.6082788293000001
aF2.8392763735900002
aF2.8392763735900002
aF3.3819024131300002
aF3.3819024131300002
aF3.7018275480299998
aF3.7018275480299998
aF3.7018275480299998
aF4.72930160618
aF4.72930160618
aF4.72930160618
aF4.72930160618
a.