(lp1
F0
aF1.19643536295
aF1.7799429438800001
aF2.5000897208500001
aF3.0593132287299998
aF3.4839286608000002
aF3.9982294568999999
aF4.4402913862600002
aF4.8147369692600002
aF5.3054432104
aF5.8105717909600001
aF6.1370968299099999
aF6.7475810144699997
aF7.3015792720599997
aF7.6896019690199999
aF8.13938977856
aF8.4515096605100002
aF8.9879216562900002
aF9.4927671192999998
aF10.085788064899999
aF10.625255410199999
aF11.0026891093
aF11.3895870178
aF11.843719932200001
aF12.253271789299999
aF12.767614137500001
aF13.262427498099999
aF13.786048882799999
aF14.16595075
aF14.643883369899999
aF15.146539539600001
aF15.7813472808
aF16.280656373900001
aF16.655646821400001
aF17.114459585199999
aF17.598615494000001
aF18.184936752399999
aF18.740805828900001
aF19.248318706700001
aF19.9296167205
aF20.463100761100002
aF21.2124495216
aF21.626706539400001
aF22.210655822100001
aF22.700941956400001
aF23.302821910599999
aF23.920510033900001
aF24.580456784700001
aF25.2569820073
aF25.959142340700001
aF26.512265281099999
aF27.196530728900001
aF27.733216163200002
aF28.478633239299999
aF29.299270036500001
aF30.256722160100001
aF30.986221208
aF31.737877171200001
aF32.3960443243
aF33.105226859200002
aF33.767065963699999
aF34.404378731100003
aF34.924274373000003
aF35.644436068099999
aF36.564111572900003
aF37.417350414600001
aF38.238436024899997
aF38.799991177199999
aF39.436095377800001
aF40.277347542100003
aF41.016879076899997
aF41.908435708699997
aF42.819594709699999
aF43.738915136400003
aF44.846693151399997
aF45.536023954699999
aF46.546157932100002
aF47.460643921100001
aF48.624537354399997
aF49.4055755953
aF50.186510797700002
aF51.175277055499997
aF52.089204297199998
aF53.122068163400002
aF54.127727041100002
aF54.940780204399999
aF56.114554909900001
aF57.0656839854
aF57.894406169100002
aF59.009235477799997
aF60.0914392866
aF61.208045864900001
aF62.2858241466
aF63.543350702799998
aF64.856196127700002
aF66.682225449399994
aF68.209557105800002
aF69.742463108799996
aF71.750057073999997
aF73.414467924899995
aF75.307815587799993
aF77.118795934299996
aF78.812379695000004
aF80.355455134600007
aF81.877925440300004
aF83.662200974800001
aF85.224686517899997
aF86.615321828199995
aF88.267510348100004
aF89.802469557099997
aF91.374895675700003
aF93.408025320799993
aF95.336052711299999
aF97.395921625599996
aF98.859486409499993
aF100.657442178
aF102.99984774399999
aF105.41734144900001
aF107.273191485
aF109.044242849
aF110.937136356
aF113.583166593
aF115.56257233300001
aF117.846911268
aF120.681655831
aF122.799469999
aF124.375415383
aF126.97394391900001
aF129.436815795
aF132.49568735599999
aF135.98857834699999
aF138.09223868300001
aF141.65649987800001
aF146.09086464500001
aF149.16576952099999
aF152.208770273
aF155.187653896
aF157.43246798000001
aF160.43301280700001
aF162.84002901100001
aF166.77052560600001
aF169.29494600500001
aF172.91801473500001
aF176.654293306
aF180.23478114700001
aF183.296380473
aF186.73903581499999
aF190.86755789399999
aF195.654394298
aF199.69558299600001
aF203.92254700699999
aF208.397049907
aF213.10008202399999
aF217.93095747000001
aF222.20188235800001
aF227.07325009499999
aF230.860699883
aF237.97819378299999
aF245.85743037500001
aF252.73101680400001
aF258.89556405000002
aF268.60486464500002
aF276.47499798699999
aF282.03633185400003
aF289.17078451600003
aF302.06749436299998
aF312.57905513100002
aF322.60452264899999
aF331.014610371
aF341.75075497
aF350.173888159
aF361.88637575400003
aF371.61412230500002
aF385.17435225200001
aF400.72319405799999
aF411.753441162
aF422.75058281299999
aF437.11037701999999
aF453.45288953800002
aF474.420871385
aF488.318616894
aF512.11653910200005
aF535.54182501000003
aF555.56166528300002
aF573.43505104999997
aF593.13241480700003
aF614.79560775100003
aF649.435414896
aF688.17560751799999
aF721.87795355000003
aF773.415382937
aF813.66800489900004
aF877.39648314099998
aF964.732528602
aF1069.40860047
aF1223.88660858
aF1424.4787858300001
aF1674.8315303500001
aF1977.7544173799999
aF2651.83993319
aF200410.392804
aF0
aF1.1584312650099999
aF1.8096405876999999
aF2.08809545024
aF2.39759603108
aF2.8210825374900002
aF3.2262415616500002
aF3.6767261063199999
aF4.0712643350700004
aF4.3358305431000002
aF4.6961593196700004
aF5.0048297457600004
aF5.3979863436900004
aF5.8290699240099997
aF6.1960232764300001
aF6.5088252292500002
aF6.8948342983900002
aF7.2696660689300003
aF7.5399291096800001
aF8.01313726329
aF8.3889381116700008
aF8.8151563879800001
aF9.3221845714700002
aF9.7919081310700005
aF10.197322679699999
aF10.690667428799999
aF11.1669675994
aF11.439377929899999
aF11.6674844277
aF12.008682137099999
aF12.4556500154
aF12.8218557119
aF13.3281486992
aF13.7095661165
aF14.2163312161
aF14.836869545500001
aF15.3589870134
aF15.8272834403
aF16.238276813700001
aF16.5883025266
aF17.023074348600002
aF17.414160002799999
aF17.848152475399999
aF18.247715569499999
aF18.664561518999999
aF19.075395695600001
aF19.486374441700001
aF19.973916476399999
aF20.5269080381
aF21.020846655300002
aF21.507367194299999
aF22.0135312996
aF22.461208124300001
aF23.036281720800002
aF23.480764591
aF23.9941998794
aF24.413118882100001
aF24.9392923634
aF25.478485752899999
aF26.086617298499998
aF26.6809648813
aF27.1950947449
aF28.074728258899999
aF28.720521756
aF29.3654350726
aF30.087513917199999
aF30.702053779700002
aF31.306689242899999
aF31.780186689299999
aF32.4753156827
aF33.135143889299997
aF33.888469867399998
aF34.645545953000003
aF35.367533057599999
aF36.110020627200001
aF36.758678629099997
aF37.497664023799999
aF38.081984167100003
aF38.997417122999998
aF39.672472603700001
aF40.429274192199998
aF41.295854716299999
aF41.954930876799999
aF42.5972412096
aF43.276950597999999
aF44.159449579799997
aF45.025165711200003
aF45.821814644200003
aF46.555175562499997
aF47.583311010599999
aF48.589989172199999
aF49.510833894599998
aF50.257035760699999
aF51.092289456800003
aF52.258119141000002
aF52.938195970499997
aF53.804888863800002
aF54.8416712187
aF55.960279943899998
aF57.006686652699997
aF58.274563175499999
aF59.3790074307
aF60.283128322000003
aF61.549512813600003
aF62.4978155636
aF63.834912981700001
aF64.904107601199996
aF66.223931861400004
aF67.086972593499993
aF68.397576571800002
aF69.942186175000003
aF71.207027708799998
aF72.602512277200006
aF73.560342838699995
aF74.967359775099993
aF76.577240733500005
aF78.057764533799997
aF79.513502422499997
aF81.078073566599997
aF82.165643638800006
aF83.719127560900006
aF85.148667228299999
aF86.337704861199995
aF87.860157790000002
aF89.431109054900006
aF90.980131378099998
aF92.433634234400003
aF94.226038238300006
aF95.621501725399995
aF97.080958997099998
aF99.134428385800007
aF101.04854586800001
aF102.97657310699999
aF105.139486026
aF107.602665034
aF109.70147691299999
aF112.05021857600001
aF114.125549412
aF116.61722458
aF118.189314409
aF120.82322130999999
aF123.127890034
aF125.47513250999999
aF127.848312975
aF130.41431036200001
aF133.57317560600001
aF136.49161050999999
aF140.74286875799999
aF143.71689255300001
aF146.67120050400001
aF149.59581133399999
aF152.22756825499999
aF156.533766931
aF160.06017973100001
aF165.11262847200001
aF169.23166942399999
aF175.315765167
aF179.524732857
aF183.40525104400001
aF188.17945511100001
aF191.82963235400001
aF197.202013322
aF202.34316464599999
aF207.99698327900001
aF215.67824328500001
aF224.47764356499999
aF230.63417344199999
aF236.60643002699999
aF242.61055810900001
aF251.77410247
aF259.46544586200002
aF268.047248459
aF276.79107524199998
aF286.15718497099999
aF295.84758942399998
aF305.58034509200002
aF314.60780894999999
aF325.34498936799997
aF338.27578485100003
aF348.53507352600002
aF362.42239857200002
aF375.083278597
aF389.444337389
aF407.52083932199997
aF423.996775576
aF439.86516896699999
aF461.74456199100001
aF481.21447879099998
aF506.20652181600002
aF531.64557102599997
aF563.79744206400005
aF601.85836871599997
aF633.07763874900002
aF693.45668289599996
aF762.28141866299995
aF852.11407475700003
aF985.769367053
aF1195.0785449099999
aF1389.62431328
aF2042.8647050500001
aF78636.810297999997
aF0
aF1.0297464516799999
aF1.60346935644
aF2.0630353810100002
aF2.4007054222700002
aF2.7231158619300002
aF3.0845870231900001
aF3.3825315783100001
aF3.7827559602099998
aF4.1271402089200002
aF4.4667826236700003
aF4.7067760450099998
aF5.1713770843100004
aF5.53668279583
aF5.74764546799
aF6.1299980556899998
aF6.3496742207699999
aF6.6781045773500001
aF7.12938206889
aF7.39578341085
aF7.7627325807999998
aF8.0843024355399997
aF8.3430476893299996
aF8.7253588764300005
aF9.0323780076000002
aF9.3251680266000001
aF9.7700665673099998
aF10.103065082900001
aF10.4121667828
aF10.792220887399999
aF11.114426525200001
aF11.3987065041
aF11.7259278942
aF12.148971416
aF12.454565579200001
aF12.7910859418
aF13.0925963376
aF13.4917267129
aF13.8568357546
aF14.099344370200001
aF14.466338023
aF14.773502690999999
aF15.1559213702
aF15.4627289245
aF15.735248281500001
aF16.264394708800001
aF16.624779056400001
aF17.059591039099999
aF17.366603691200002
aF17.645800374
aF18.074841360299999
aF18.3713457528
aF18.6782869727
aF19.1657010441
aF19.623227022799998
aF20.045230785600001
aF20.669991472
aF21.181226625299999
aF21.496046951899999
aF22.092489347299999
aF22.5203682028
aF22.913515129299999
aF23.382882170199998
aF23.760241867400001
aF24.103618211899999
aF24.540791235699999
aF25.0420139973
aF25.4305135832
aF26.0666776578
aF26.564557883900001
aF27.273553850399999
aF27.7820097687
aF28.3303665601
aF28.745443715499999
aF29.332968781000002
aF30.009561780399999
aF30.6135990386
aF31.065902801899998
aF31.520776554800001
aF32.034559784499997
aF32.646134072499997
aF33.136621810400001
aF34.091020344699999
aF34.492997237600001
aF34.960981709999999
aF35.534538623400003
aF36.397290535000003
aF36.973557298199999
aF37.496289196399999
aF38.275574691300001
aF39.132056666700002
aF39.940285424599999
aF40.663404855499998
aF41.192514081399999
aF41.940303401100003
aF42.428268793400001
aF43.002423862000001
aF43.754682545599998
aF44.392160792200002
aF45.226295550300001
aF45.955474380200002
aF46.6701829171
aF47.223011101499999
aF47.870306336100001
aF49.055475024800003
aF49.870096181000001
aF50.573112358800003
aF51.511936900599999
aF52.294025013499997
aF52.962422501100001
aF54.0366510279
aF54.7208861318
aF55.623480251799997
aF56.401930573599998
aF57.257184440700001
aF58.072153872400001
aF58.874410881099998
aF60.104082592799998
aF61.246007962100002
aF62.248201307400002
aF63.333179544099998
aF64.4524632575
aF65.680454143800006
aF66.683104472400004
aF67.860077341099995
aF68.838786806399995
aF69.8305645449
aF71.030064286699997
aF72.106640080299996
aF73.718568832599999
aF74.8928190476
aF76.122150548999997
aF77.8978499384
aF79.078046305800001
aF80.938626385199996
aF82.707864462499998
aF84.409564379399995
aF85.580444997300006
aF87.015983902800002
aF88.433916929199995
aF90.027633876400003
aF91.989641288499996
aF94.085497345299999
aF97.019197389300004
aF98.948948656499994
aF101.110113046
aF102.857621045
aF104.948948472
aF107.370061428
aF110.309341836
aF113.069785897
aF115.334911873
aF118.811007467
aF121.8903905
aF124.534635235
aF127.237679828
aF130.822044406
aF133.95795785600001
aF137.088601866
aF141.331942336
aF144.39698896600001
aF148.46879151300001
aF151.54049203599999
aF156.010435457
aF159.23907638899999
aF163.84405742499999
aF167.20574813600001
aF171.571248282
aF175.307565178
aF180.898544257
aF188.209642444
aF192.88951267100001
aF199.07961470500001
aF204.98453083699999
aF210.87189762099999
aF217.37683173400001
aF226.04598215600001
aF233.03168449699999
aF241.629711085
aF246.946999901
aF257.88334712900001
aF264.42034237600001
aF275.808770686
aF285.32670270400001
aF296.425658236
aF311.66211481800002
aF325.77524805600001
aF339.41158178199998
aF359.89737101100002
aF378.89288395099999
aF407.45313021999999
aF430.825250423
aF463.86767345999999
aF495.964419029
aF532.31966564899994
aF589.85183477299995
aF656.18178811200005
aF784.26433017099998
aF943.24503690999995
aF1302.9980653
aF102139.29543300001
aF0
aF0.86743237287200003
aF1.3552076122000001
aF1.74882176592
aF2.1568118435899999
aF2.5442077510700001
aF2.7836243977500001
aF3.00643655951
aF3.2689355412999999
aF3.5104534629600002
aF3.8022522251600002
aF4.0581864022299996
aF4.3187967801799996
aF4.5167601174499996
aF4.8300373207899998
aF5.1908096910400001
aF5.4523307194299999
aF5.7058518279000001
aF6.0398043860700001
aF6.3374641220700001
aF6.6584016957400003
aF6.8846773738299998
aF7.1723016125100001
aF7.48248963179
aF7.7608348148299999
aF8.0287909583299992
aF8.3818549816299992
aF8.7220174560999997
aF9.0911091549999998
aF9.35929759333
aF9.6835960622500004
aF9.9959322308900003
aF10.3919770948
aF10.747496464799999
aF11.051538298500001
aF11.316949795799999
aF11.6183662131
aF11.847164556699999
aF12.1264569509
aF12.437037774
aF12.678519424999999
aF13.016651663899999
aF13.442219338399999
aF13.7024184299
aF14.0640518316
aF14.3690724623
aF14.6322090714
aF15.003935011899999
aF15.4618156875
aF15.691396925499999
aF16.018873943599999
aF16.325083680199999
aF16.72412623
aF17.1800229961
aF17.565089287999999
aF17.955333696
aF18.350394168699999
aF18.662332183499998
aF19.055520775400002
aF19.3243741866
aF19.697736269300002
aF20.1598827376
aF20.587558148399999
aF20.947803652899999
aF21.377289620700001
aF21.7382160949
aF22.148445907799999
aF22.538187253499999
aF22.969405032299999
aF23.3515975378
aF23.7868814409
aF24.248895708799999
aF24.763958241200001
aF25.1997621694
aF25.508926166199998
aF25.958095899700002
aF26.333188731500002
aF26.824658796200001
aF27.2155445271
aF27.6568308628
aF28.003116157499999
aF28.541185737399999
aF29.063342253199998
aF29.560897612200002
aF30.089418954599999
aF30.597578276299998
aF31.089081956699999
aF31.4765648224
aF31.894925652200001
aF32.457647031999997
aF33.030174841600001
aF33.487885595199998
aF34.018036955900001
aF34.729723770100001
aF35.271537205000001
aF35.835399970200001
aF36.307941559900001
aF37.035916915500003
aF37.561814357099998
aF38.147376215199998
aF38.7343663929
aF39.318444863700002
aF40.219249623899998
aF40.878162636200003
aF41.4384018103
aF42.125905574999997
aF42.975687067999999
aF43.8669515737
aF44.7165019555
aF45.320383934500001
aF46.290441078699999
aF47.103139229999996
aF47.737629462800001
aF48.481018605400003
aF49.4000519043
aF50.130121766099997
aF51.236341089200003
aF52.022103237400003
aF53.121350018199998
aF54.3133505427
aF55.198931289699999
aF56.1880323006
aF57.196115179099998
aF58.388588195399997
aF59.017601707799997
aF60.191491397699998
aF61.1785764937
aF62.150011268
aF63.062827775300001
aF64.255070623099996
aF65.725583058799998
aF67.146069528200002
aF68.855182272500002
aF70.625039886400003
aF72.517402771500002
aF74.012329769800004
aF75.142684897799995
aF77.263163371999994
aF78.970113074099999
aF81.015664056600002
aF82.952470754299995
aF84.358247795500006
aF86.345419452399994
aF87.398236220800001
aF88.877403817100003
aF91.486012660200004
aF93.475534618099999
aF95.836579746699996
aF99.517911350299997
aF102.47972814000001
aF104.56502959399999
aF106.80315385900001
aF109.427661664
aF112.172083348
aF114.752710729
aF117.319711297
aF120.332179395
aF122.523137369
aF125.80426376699999
aF128.152192243
aF130.68223203400001
aF135.03565554799999
aF138.836718018
aF142.72321670599999
aF145.83471307600001
aF148.23894481900001
aF150.940455676
aF155.45888045199999
aF160.45763036100001
aF165.78439021700001
aF170.10783283399999
aF176.981973885
aF182.24637161699999
aF187.99729957
aF193.341158584
aF201.153499485
aF209.89557814400001
aF215.512255272
aF222.916166694
aF234.63262219500001
aF242.24162438799999
aF250.84387633899999
aF264.39217630600001
aF286.10701643599998
aF294.863916168
aF309.35324268800002
aF326.01462315399999
aF343.064113615
aF361.99177679500002
aF387.72006495800002
aF407.06863126899998
aF432.93714764600003
aF471.081198336
aF512.23599568500003
aF547.44287580900004
aF597.93801741300001
aF672.97299630600003
aF816.76871595199998
aF996.88891773900002
aF1291.9070935100001
aF161358.74421500001
aF0
aF0.99453276649300004
aF1.34957440998
aF1.80040223325
aF2.1674828403999999
aF2.48530115303
aF2.78071282241
aF3.0627252072600002
aF3.2784701121599999
aF3.5719852163999999
aF3.9766675073700002
aF4.1919498196699996
aF4.4401116787000001
aF4.7010850741399999
aF4.8325546723099997
aF4.9905503588400002
aF5.2121802011499998
aF5.4487589889699999
aF5.7199962258500001
aF5.9713598443100002
aF6.2934525916500004
aF6.5164568592299998
aF6.7356095053300002
aF6.9021306576599999
aF7.1721655965900002
aF7.3281530158799999
aF7.5914585431999999
aF7.8254960779699996
aF7.9993083693299996
aF8.2012397418000003
aF8.3720004276700006
aF8.6300188092199992
aF8.9217519372599998
aF9.3077081475300005
aF9.6043493889500002
aF9.8964144834100001
aF10.211666127200001
aF10.4213008992
aF10.788691589500001
aF11.051012050900001
aF11.344200771000001
aF11.725614780600001
aF11.9588900773
aF12.2827247511
aF12.637968324099999
aF12.966823288900001
aF13.168992016800001
aF13.4745396448
aF13.785583859500001
aF14.036187573499999
aF14.3890843198
aF14.7328997316
aF15.1242120858
aF15.3426967014
aF15.6612958042
aF15.9789841683
aF16.360263102400001
aF16.772235545499999
aF17.216064751899999
aF17.589241161899999
aF17.8572448364
aF18.1950328878
aF18.559156973699999
aF18.792157978999999
aF19.092364930399999
aF19.509183897500002
aF19.8903785993
aF20.395241299399999
aF20.715609197399999
aF21.129151485000001
aF21.4384474457
aF21.8051370373
aF22.0983151782
aF22.589355123800001
aF22.923955315299999
aF23.293660984199999
aF23.8073499164
aF24.164663172499999
aF24.468464225200002
aF24.9136660319
aF25.292481224799999
aF25.704244781
aF26.122315593700002
aF26.745139958900001
aF27.142677224500002
aF27.678661556600002
aF28.172552657800001
aF28.7004617023
aF29.254574122400001
aF29.9576316134
aF30.320919945
aF30.8651150524
aF31.535303165799998
aF32.0284025188
aF32.4595794536
aF32.939819047199997
aF33.536005820299998
aF34.287543194800001
aF34.940091845399998
aF35.379675577999997
aF36.122305638999997
aF36.623643357600002
aF37.258982358499999
aF37.645211866499999
aF38.348043171800001
aF39.121822204899999
aF39.903193717900002
aF40.5501905506
aF41.172201017399999
aF41.965871158399999
aF42.633532572999997
aF43.135795547100003
aF43.854137299599998
aF44.859996618799997
aF45.622113159199998
aF46.6849616684
aF47.678221519899999
aF48.843464619499997
aF49.8146602526
aF50.688647234999998
aF51.583461331899997
aF52.591197556700003
aF53.717957165400001
aF55.506732086500001
aF56.662175622500001
aF58.167854235900002
aF59.062885457699998
aF60.411246125200002
aF61.391033951200001
aF62.368874448500002
aF63.688858420800003
aF64.888271486199997
aF66.635858121799998
aF67.817878363199995
aF68.880671285700004
aF70.095051569500001
aF71.501848303100005
aF72.775151774600005
aF74.558541465199994
aF76.409518135499994
aF77.761688797700003
aF79.005647183500002
aF80.295269079099995
aF82.4136017931
aF84.613797778800006
aF86.016896733899998
aF87.430508335200003
aF88.670983118500004
aF90.231433799300007
aF91.891509509399995
aF94.498776834500006
aF97.249232232899999
aF98.623021338599997
aF101.238294708
aF102.87975996900001
aF105.291018643
aF107.24435443199999
aF109.666596011
aF113.098272596
aF115.61031488
aF119.614780612
aF123.287443794
aF126.249115391
aF128.58356817500001
aF131.775900138
aF135.290949961
aF139.29796378500001
aF146.262327629
aF150.00976835200001
aF154.61572367400001
aF160.255070652
aF165.26334147099999
aF170.16736670500001
aF173.77829739699999
aF179.56132179599999
aF184.561922764
aF190.69775108499999
aF196.65891324699999
aF203.521908177
aF211.093916154
aF221.47514707299999
aF231.47529352399999
aF237.75562241
aF244.883786829
aF253.30171895399999
aF261.76505171600002
aF278.98552843200002
aF292.60068635200003
aF311.55099943599998
aF325.88771172899999
aF343.19537559700001
aF365.551962753
aF393.39248336999998
aF422.56973752499999
aF461.27635287499999
aF502.54248837599999
aF563.31345992700005
aF636.33864636400006
aF803.18510591400002
aF1017.18613565
aF2073.8933950400001
aF0
aF0.84882448919599995
aF1.1297295603899999
aF1.43790054577
aF1.8034031745600001
aF2.1567378511699999
aF2.46200691124
aF2.7164909210600001
aF2.9725139778099998
aF3.3258460814699999
aF3.51565620581
aF3.6829072744900002
aF3.8503255597599999
aF4.0960101060699996
aF4.3195587197099998
aF4.5180080510099998
aF4.7208657011600001
aF4.9188747051200004
aF5.0822519781400004
aF5.2471047837700002
aF5.4397152562800004
aF5.6442757923500002
aF5.94422558704
aF6.2491652156599997
aF6.5158366836499999
aF6.6694208713499998
aF6.9618320371699998
aF7.0954639576199998
aF7.3925975604899996
aF7.6671833348599998
aF8.0270911346999991
aF8.2155617499000009
aF8.3810446408000008
aF8.6728270830500005
aF8.9919564023300005
aF9.1979666478599995
aF9.4613822654199993
aF9.8638159812400001
aF10.064467502699999
aF10.300861637400001
aF10.5922395715
aF10.898994478100001
aF11.2204623911
aF11.462764891000001
aF11.827261590299999
aF12.083868714099999
aF12.386429319099999
aF12.6393019529
aF12.853547404
aF13.1367142199
aF13.3487410123
aF13.656895326200001
aF14.024084867899999
aF14.2305895378
aF14.537063637599999
aF14.7677980479
aF14.983400628
aF15.254355192
aF15.4728650747
aF15.7833358443
aF16.258317366699998
aF16.591420611899999
aF16.7968951537
aF17.321484078699999
aF17.688159546000001
aF17.9917501318
aF18.4264735655
aF18.751733764800001
aF19.0344300858
aF19.372343152500001
aF19.740307887699998
aF20.051092925599999
aF20.305765000400001
aF20.618187255599999
aF20.819816596500001
aF21.0782135131
aF21.397939723499999
aF21.854582025799999
aF22.2881163357
aF22.6506377304
aF22.877000473599999
aF23.384389492899999
aF23.836418588899999
aF24.222254926800002
aF24.655197791999999
aF25.022161849
aF25.444878252500001
aF26.053606325400001
aF26.614004877900001
aF27.0211182404
aF27.401244503200001
aF27.7850805052
aF28.159129948299999
aF28.6603675532
aF29.200278675
aF29.671973053799999
aF30.210222716600001
aF30.961837351900002
aF31.650008409800002
aF32.094382395700002
aF32.843304519299998
aF33.577328693699997
aF34.237700249100001
aF34.801256214399999
aF35.485455770500003
aF35.9765981579
aF36.670725593599997
aF37.170285661000001
aF37.990796691500002
aF38.642774190700003
aF39.528303337300002
aF39.978645888499997
aF40.8020907732
aF41.489481081900003
aF42.4638964743
aF43.139901183799999
aF44.090235702199998
aF45.199560705499998
aF45.817027413600002
aF47.017044573200003
aF48.262105780699997
aF49.1479688362
aF50.425156699799999
aF51.855557858499999
aF52.673049050499998
aF53.828962193300001
aF54.706265736600002
aF55.754088218
aF56.6875216169
aF57.802232958300003
aF59.077269420699999
aF59.802668045799997
aF60.803463371600003
aF62.277143198700003
aF63.318223359400001
aF64.249051654799999
aF65.723438296400005
aF66.690473547300002
aF67.987683240400003
aF69.312005970800001
aF70.335791722799996
aF71.525547407700003
aF73.2296426005
aF74.761566365899995
aF76.401961372800002
aF78.083813237900003
aF79.959478159499994
aF81.411397194700001
aF83.907706583600003
aF85.130641549399996
aF86.564841115600004
aF88.151400025100003
aF90.839542183500001
aF93.404373994799997
aF95.237850676600004
aF96.510747774899997
aF98.111723876599996
aF100.59771252100001
aF103.473781565
aF106.22999075200001
aF109.035110547
aF111.514197384
aF114.660071867
aF117.91431810100001
aF120.95989149899999
aF125.315578238
aF127.97488147200001
aF131.55766028400001
aF133.79550634099999
aF136.780043667
aF143.37105514300001
aF147.41143759799999
aF152.70084909799999
aF158.68963683999999
aF163.480470784
aF168.40748618699999
aF176.23576411799999
aF181.51714572399999
aF188.435573998
aF193.69868358400001
aF201.866252981
aF209.69486823
aF221.66246932499999
aF231.771152277
aF245.05347127900001
aF258.89263676799999
aF273.73973170099998
aF290.43652293600002
aF304.91784651400002
aF317.71453254800002
aF345.81680795
aF370.51493599600002
aF396.34922032399999
aF427.34649876600002
aF472.648184012
aF548.811516697
aF616.97696803199995
aF698.58074685700001
aF921.70016827699999
aF1351.93476429
aF4555.3138270099998
aF0
aF1.05775845422
aF1.30722302885
aF1.6550836259599999
aF2.0164548998499998
aF2.22264762997
aF2.4339426832900002
aF2.63987900941
aF2.8474331698999999
aF3.1394413773199998
aF3.3488811388099999
aF3.5845593259999999
aF3.7278526245200001
aF3.89707499961
aF4.0930076946499998
aF4.2667403322500004
aF4.4444123281100003
aF4.7057346005499996
aF4.8776095749700001
aF5.0766543427900004
aF5.2576254422700002
aF5.4227043983799996
aF5.5565800836300001
aF5.6921444728099999
aF5.8967927912900002
aF6.0520540232300002
aF6.18092403149
aF6.4448963355100002
aF6.6606765375799997
aF6.8569177525900002
aF6.9871721176600001
aF7.1997752419300003
aF7.4790143792799997
aF7.6433232341600004
aF7.8838845337299999
aF8.0362724982000007
aF8.2491173118100001
aF8.4854912803700007
aF8.7981272976200007
aF8.98771466078
aF9.2672797478700009
aF9.4910127015200008
aF9.7196918691600001
aF9.9958458284499994
aF10.2946220832
aF10.5192779153
aF10.7367739562
aF11.0486241079
aF11.264306749099999
aF11.610683487999999
aF11.8590324631
aF12.102995508599999
aF12.274140378
aF12.5626984562
aF12.777400244300001
aF13.0071767612
aF13.3075190692
aF13.506522563900001
aF13.7736133375
aF14.034237147500001
aF14.3718879313
aF14.704450492399999
aF15.006497291000001
aF15.4860321302
aF15.8250864202
aF16.068562412599999
aF16.366417189700002
aF16.791695786399998
aF17.1963988083
aF17.692784723599999
aF17.9889456748
aF18.250281237599999
aF18.540758284100001
aF19.105488743399999
aF19.3676116446
aF19.9057967233
aF20.372155027400002
aF20.617865943399998
aF21.0056881543
aF21.3998014925
aF21.886629124399999
aF22.301586328599999
aF22.8157840378
aF23.1577773249
aF23.562675140700001
aF23.9908312801
aF24.371709623200001
aF24.853048289
aF25.321527433499998
aF25.817410943100001
aF26.333798079699999
aF26.743897014000002
aF27.404019467800001
aF27.750455412299999
aF28.245307990099999
aF28.8302203846
aF29.238499632700002
aF29.908395497000001
aF30.222815192500001
aF30.759701009099999
aF31.296847612400001
aF31.809133106099999
aF32.3396270004
aF33.065629932
aF33.614025315299997
aF34.269816387299997
aF35.012311410899997
aF35.852750563500003
aF36.404141805499997
aF36.8294660038
aF37.935726292200002
aF38.368785425900001
aF39.1826087245
aF40.008409596500002
aF40.726090274800001
aF41.337873114600001
aF42.209034503799998
aF43.359563836100001
aF44.113217655
aF44.844831191300003
aF45.6845486769
aF46.347966789700003
aF47.331044909100001
aF48.2533342455
aF49.162487231599997
aF50.1543142202
aF50.931869310099998
aF51.636126617899997
aF52.181963144800001
aF53.396775668799997
aF55.032301978100001
aF55.596427951899997
aF56.5791496927
aF57.542454919599997
aF58.554653988799998
aF59.636429710999998
aF61.407241399900002
aF62.509754862100003
aF63.601590468700003
aF64.824312135300005
aF66.386878043999999
aF67.693732305799998
aF69.365119204300001
aF71.025400599899996
aF72.653909433799996
aF74.395827576000002
aF75.769964444999999
aF77.234020831500004
aF78.433715899099994
aF81.101681241799994
aF83.076307199300004
aF84.5988995469
aF86.376895072899998
aF88.194960597199994
aF90.441746414899995
aF92.189595910199998
aF93.440994131400004
aF95.435247487400005
aF99.0558885879
aF101.49204924999999
aF104.088533635
aF106.181199298
aF109.219007221
aF112.61624315100001
aF116.029069048
aF119.96844246400001
aF124.344004768
aF127.91969076300001
aF132.149553927
aF135.922055457
aF140.068507211
aF144.15378361399999
aF148.60536720600001
aF153.82589839900001
aF158.576947158
aF165.555672257
aF171.63158056899999
aF176.33047682
aF181.08906739299999
aF186.793582875
aF192.534521512
aF203.56027511299999
aF211.12137373499999
aF218.32402486300001
aF227.271126122
aF239.72295971400001
aF255.439273482
aF266.59600377999999
aF284.21895951499999
aF302.86802943499998
aF319.3660428
aF335.96299544999999
aF371.29655514500001
aF386.65083379800001
aF434.96311705400001
aF521.05039447499996
aF574.39597849699999
aF643.38261744700003
aF749.10677599899998
aF937.47346937500004
aF2164.74350723
aF0
aF0.87216036854099999
aF1.1731523662100001
aF1.4528318226800001
aF1.7506036653599999
aF1.95830274355
aF2.1933454622299999
aF2.4315041290299999
aF2.6097449606700001
aF2.8143037344300001
aF2.98234250898
aF3.14296097174
aF3.28163067285
aF3.4197130756399998
aF3.5577964282300001
aF3.7192315259700002
aF3.8806453857499998
aF4.0848607038400004
aF4.27058822443
aF4.4259870320300001
aF4.6202853710799996
aF4.8079818422300002
aF4.9703096793699997
aF5.1771997283899998
aF5.32208420074
aF5.4736064223099996
aF5.6716933713
aF5.7948310020399996
aF5.9616974056899998
aF6.1294408520800001
aF6.3200579482499997
aF6.5465172585299998
aF6.7046238334500003
aF6.8696070854100002
aF7.0421250211300004
aF7.21408035417
aF7.3666599903499996
aF7.5629677715200003
aF7.7854370727999997
aF8.0250690670800005
aF8.2018499794099995
aF8.4165599450900004
aF8.6205648003099995
aF8.8020739087200006
aF8.9976602698800008
aF9.2090483824400007
aF9.40554714598
aF9.6268466056699999
aF9.8387845757699992
aF10.063513496600001
aF10.3066855573
aF10.5490401104
aF10.760759543200001
aF11.0190557159
aF11.247083638299999
aF11.487903512700001
aF11.690503747999999
aF11.9163331257
aF12.1540624086
aF12.3754681949
aF12.6225724062
aF12.8298548017
aF13.105360490300001
aF13.352707515200001
aF13.600565291800001
aF13.8363089384
aF14.081226945299999
aF14.370552543500001
aF14.6854081396
aF14.959606431799999
aF15.238257795699999
aF15.488877516500001
aF15.783357724
aF16.059268546999999
aF16.371064702799998
aF16.635482564899998
aF16.926054678500002
aF17.2595416636
aF17.558429913600001
aF17.873233837699999
aF18.1713476396
aF18.437921946300001
aF18.808552489299998
aF19.094615129400001
aF19.521706635899999
aF19.8753230885
aF20.298514125000001
aF20.622495869000002
aF20.9353854017
aF21.4098244692
aF21.829437198099999
aF22.259602406999999
aF22.672559352
aF23.1204515296
aF23.483853294300001
aF23.9484201462
aF24.3248985436
aF24.847141378100002
aF25.2522052389
aF25.681308357599999
aF26.205337182699999
aF26.576187536300001
aF27.078663830899998
aF27.677873063900002
aF28.2381539971
aF28.8023214868
aF29.3993510241
aF29.912833547399998
aF30.573666294900001
aF31.104430988600001
aF31.796146883399999
aF32.497170738500003
aF33.279496414699999
aF34.098064962599999
aF34.843216272900001
aF35.542133214099998
aF36.276287779500002
aF36.975928357500003
aF37.504257990799999
aF38.314777833900003
aF39.177430845000004
aF39.819717746400002
aF40.407911670099999
aF41.120240020300002
aF41.978665155199998
aF42.866256983200003
aF43.496257352299999
aF44.207718886199999
aF44.967775733800003
aF45.845529661199997
aF46.8316582737
aF47.606961498799997
aF48.454226783199999
aF49.675775014400003
aF50.5811434361
aF51.543186701800003
aF52.633751532200002
aF53.929547364699999
aF55.037714174199998
aF56.301767675000001
aF57.451158926300003
aF58.714248343199998
aF59.628151489899999
aF60.807000845600001
aF62.156996127799999
aF63.456997649599998
aF65.008915114800004
aF66.386142722499997
aF67.978491519900004
aF69.422238847200006
aF70.791592380799997
aF72.011370736700002
aF73.522117942199998
aF75.359756207299995
aF77.030728253800007
aF78.893995033400003
aF80.530957561600005
aF81.946598575099998
aF84.055736077199995
aF86.177382717599997
aF88.231077799399998
aF90.830107187099998
aF93.291203665799998
aF96.842991020100001
aF99.738754614200005
aF102.822309851
aF106.472937214
aF109.712921572
aF112.28819169
aF115.383539528
aF118.33937052500001
aF121.6283803
aF126.21758780099999
aF130.559458404
aF135.25935161000001
aF139.64966053500001
aF144.08321394399999
aF149.81024360000001
aF155.95824547500001
aF160.54965979900001
aF165.74901272299999
aF173.07092800300001
aF181.971265612
aF190.12184997899999
aF199.140874
aF208.94440364799999
aF219.692760295
aF231.41654560800001
aF244.813734337
aF260.64934893600002
aF276.86471985399999
aF297.854074072
aF327.675880581
aF363.64694161300002
aF395.28587648799999
aF430.29646448199998
aF476.771927382
aF552.10628605099998
aF688.09209059399996
aF965.66929444699997
aF5512.1265341500002
aF0
aF0.62589083024600001
aF1.0089155589900001
aF1.2669403239100001
aF1.4930834132099999
aF1.6647456778
aF1.86494432327
aF2.0537877508200002
aF2.25391444537
aF2.4255788848600002
aF2.5625113900800001
aF2.70119472848
aF2.8053232942299999
aF2.92720031662
aF3.1007147687100001
aF3.2394799841499999
aF3.39215368186
aF3.5920914079299999
aF3.74416489544
aF3.8829579282000002
aF4.0121750001200001
aF4.1604435034699998
aF4.2969491096299999
aF4.4303864671199999
aF4.5829179833699998
aF4.7183684166099997
aF4.8667168998800001
aF4.9825970049999997
aF5.1443596513600003
aF5.29642331298
aF5.5116304645699996
aF5.6662601962099997
aF5.8151835779100001
aF5.9375451382
aF6.1570517624500001
aF6.3131151288699998
aF6.52398099929
aF6.6722523007500003
aF6.86154545663
aF7.0599193283100004
aF7.3129107271700002
aF7.5490299843899997
aF7.7172198221199997
aF7.8648526311499998
aF8.0837370196799991
aF8.2593266698099992
aF8.4613117407199994
aF8.6884386074200002
aF8.8745901890700001
aF9.1116656074600009
aF9.3126467721299999
aF9.5071399643899994
aF9.7151605657500006
aF9.9551889093600003
aF10.149609288200001
aF10.3401891662
aF10.621445531099999
aF10.8426697409
aF11.0272843935
aF11.270829726400001
aF11.4694723487
aF11.6178469386
aF11.821109029700001
aF12.021790796499999
aF12.3252449453
aF12.5092794759
aF12.818332850699999
aF13.020756306899999
aF13.310810976799999
aF13.5124599496
aF13.767115336
aF14.0644181972
aF14.332859790200001
aF14.5607314245
aF14.9082657073
aF15.125302185800001
aF15.3715537263
aF15.670518073
aF16.0341797918
aF16.263188094
aF16.565119653299998
aF16.768979356500001
aF17.107996179400001
aF17.3155602187
aF17.633055544099999
aF17.978850956799999
aF18.239306430100001
aF18.603581283899999
aF18.890651686000002
aF19.2448822751
aF19.6097734435
aF19.926314503299999
aF20.1586253842
aF20.499346128900001
aF20.763220895300002
aF21.214468897100001
aF21.6883372251
aF21.932186764800001
aF22.421734858200001
aF22.8480131942
aF23.3200873278
aF23.594830171000002
aF24.038195447900002
aF24.408468226699998
aF24.92649372
aF25.442113401899999
aF25.8447679595
aF26.3726873799
aF26.812905815000001
aF27.122537899899999
aF27.7422113077
aF28.078738693199998
aF28.5723682014
aF29.0944195565
aF29.5634253395
aF30.1247268702
aF30.983710482300001
aF31.826570418700001
aF32.3620827385
aF33.029481950899999
aF33.566683207600001
aF34.288337869199999
aF34.942294123800004
aF35.546860066900003
aF36.362485731600003
aF37.2408130333
aF38.058683128600002
aF38.750745497600001
aF39.428888690199997
aF40.115263124599998
aF40.901282995400003
aF41.4018687274
aF42.138788071800001
aF43.018359615500003
aF44.106243223500002
aF45.093539481699999
aF45.8411771739
aF46.570250118399997
aF47.841644068400001
aF49.303024838200002
aF50.464239790100002
aF51.234103358299997
aF52.317696309799999
aF53.0996279724
aF54.369256693700002
aF55.965980526800003
aF57.287395203700001
aF58.636793195099997
aF60.683809927200002
aF62.106524762100001
aF63.455965556400002
aF64.508962315299996
aF65.830030819000001
aF67.3272861871
aF68.485336924099997
aF69.962539390399996
aF71.3643490332
aF73.207148927299997
aF75.267417445500001
aF77.636856277999996
aF79.567969825700004
aF81.887922453399995
aF84.409393872699994
aF86.252385378499994
aF89.609195726400003
aF92.058129085499999
aF94.237863167399993
aF97.130241311000006
aF99.337287984200003
aF102.785121426
aF105.16684627799999
aF108.155644287
aF111.12424827
aF114.20309084500001
aF118.25567124200001
aF120.63906266799999
aF126.769351089
aF131.30368792600001
aF135.35008283600001
aF140.167179914
aF146.276635801
aF154.69830296500001
aF162.097699463
aF168.49842445199999
aF174.39338381300001
aF183.839663489
aF194.04584716900001
aF205.199824904
aF216.99026627999999
aF226.397941844
aF239.11086462599999
aF257.98370514300001
aF272.68513598700002
aF294.38470478199997
aF317.32579381900001
aF352.86648779500001
aF396.000885729
aF447.65133356299998
aF552.83482503000005
aF744.96290114700003
aF7762.8570038400003
aF0
aF0.36214416262600002
aF0.60004394504000003
aF0.87269790764999999
aF1.0816835608199999
aF1.1769418756600001
aF1.3339406513100001
aF1.5379932977899999
aF1.64092011303
aF1.8114937983699999
aF1.92478153605
aF2.0791194022399999
aF2.18522431294
aF2.3239286241100001
aF2.4474903603299998
aF2.56875405118
aF2.6706112235399999
aF2.7868128103399998
aF2.89962589709
aF3.0247650187300001
aF3.1799188214799998
aF3.3163269799299999
aF3.4326557716099999
aF3.5761530940699999
aF3.6698664516599999
aF3.8395536775700001
aF3.9742173052399998
aF4.0666621486399999
aF4.1860672163199997
aF4.2677782405900002
aF4.39398556059
aF4.5599359743100001
aF4.7182993929599997
aF4.8549576225899997
aF4.9793340551199998
aF5.1106161380800001
aF5.22653369925
aF5.3697032505699998
aF5.5502664604199996
aF5.6901435710500001
aF5.81186063054
aF5.9447132463900001
aF6.05627291431
aF6.16844943146
aF6.3088485415099997
aF6.5158703652999996
aF6.6663173981500004
aF6.7889778856399996
aF6.92685753591
aF7.05832274623
aF7.2113778586999997
aF7.3735471867099998
aF7.4967882360999996
aF7.67708191997
aF7.8383618689299999
aF8.0007809638400005
aF8.2598039090000004
aF8.4646047196400005
aF8.6068680876200006
aF8.7919284529800006
aF8.9449623581599997
aF9.1615349379200008
aF9.3168642346000006
aF9.4680652743600007
aF9.7295350278099999
aF9.9208554836600005
aF10.0769753157
aF10.1731120514
aF10.3276036073
aF10.6154476322
aF10.8889357781
aF11.016681222400001
aF11.166106582099999
aF11.3010656278
aF11.460114477099999
aF11.6049507496
aF11.754826317499999
aF12.128326894900001
aF12.393725440500001
aF12.601959282999999
aF12.929220557000001
aF13.2033834409
aF13.496651655100001
aF13.6720510495
aF14.0106799329
aF14.2715969553
aF14.4738353905
aF14.887431385199999
aF15.0448999294
aF15.3053817024
aF15.6545606815
aF15.9636364194
aF16.322553926800001
aF16.694194434500002
aF17.030383725899998
aF17.430560569699999
aF17.700358551699999
aF18.117532589300001
aF18.425291790799999
aF18.722525176000001
aF19.151242618000001
aF19.5588949566
aF19.985716502399999
aF20.4476355348
aF20.9045258441
aF21.276626095099999
aF21.575188439600002
aF22.0493676255
aF22.446726857400002
aF22.7039434454
aF23.13535392
aF23.679737149400001
aF24.0913996564
aF24.592582522600001
aF24.846344199699999
aF25.1692127267
aF25.707613397399999
aF26.060921460599999
aF26.402713800499999
aF26.7672555555
aF27.323489971800001
aF28.1384294904
aF28.886585523400001
aF29.625952655700001
aF30.049929096700001
aF30.912490141700001
aF31.7116329208
aF32.432935618400002
aF33.0836818525
aF33.756748210399998
aF34.448977073899997
aF34.967596885500001
aF35.526411413300004
aF36.153337627600003
aF37.193655335499997
aF37.865997652899999
aF38.746337718900001
aF39.2502404719
aF39.9758412025
aF40.513914754399998
aF41.377973330099998
aF42.134772359599999
aF42.670801806599997
aF43.359820479100001
aF44.8475078349
aF45.403055004400002
aF46.8336235847
aF47.7113874912
aF48.6941028253
aF49.650345725199998
aF50.665570570200003
aF51.724056971300001
aF53.992577544
aF55.575370979100001
aF57.251984441700003
aF58.745608337299998
aF60.1648035049
aF61.246203909800002
aF62.419975842699998
aF63.422574513400001
aF64.876159087000005
aF66.885247274500003
aF68.391010214800005
aF69.915828121700002
aF72.4871931144
aF74.172952607699997
aF75.652527461199995
aF78.468287273000001
aF80.721637548800004
aF83.956121732200003
aF87.163249777199994
aF88.897109974100005
aF91.2752939664
aF93.173034590599997
aF95.435791827200006
aF100.344464677
aF104.832073959
aF109.276679528
aF112.578422989
aF114.53132503400001
aF119.746495774
aF124.493025184
aF129.95658998100001
aF134.31216815799999
aF137.89688887400001
aF140.67569338600001
aF147.559990177
aF157.91491644199999
aF164.60831501999999
aF171.84101301800001
aF186.69105907299999
aF195.42122663699999
aF208.16940782099999
aF238.53526263200001
aF245.87424240300001
aF268.33659908499999
aF292.616848678
aF312.784421705
aF376.69900637799998
aF486.40594854400001
aF909.54311207000001
aF0
aF0.29947032321799999
aF0.52334873310399999
aF0.68115226771299997
aF0.86995042995600003
aF0.98257819082099995
aF1.1046843742300001
aF1.1768999986299999
aF1.2647418797800001
aF1.36884910987
aF1.4645619499
aF1.5759885725
aF1.6653002782099999
aF1.75269298364
aF1.87728664641
aF1.9895373943000001
aF2.0546833007099998
aF2.1563717716299999
aF2.2189233742900001
aF2.3098127374300002
aF2.4206150527000001
aF2.4845079548800002
aF2.6079748566799998
aF2.6769284875300001
aF2.7907616607699999
aF2.8700892704999998
aF2.93034323954
aF2.9963469551599999
aF3.06834808782
aF3.1480022766900002
aF3.2256769408800001
aF3.30379140374
aF3.3884221330000002
aF3.4570332483000001
aF3.54002670756
aF3.6248614990800001
aF3.7101075382699999
aF3.7687182426899999
aF3.8163207208699998
aF3.89049827354
aF3.9685665546200002
aF4.0278252280400002
aF4.1485435748499997
aF4.2118118690999999
aF4.2767713334400002
aF4.3538326518200003
aF4.4579713825800003
aF4.5508743169399999
aF4.6676333956900002
aF4.74653167618
aF4.8197525947199997
aF4.9241035310900001
aF5.0189077614800004
aF5.1005151570300002
aF5.2006018753400003
aF5.2927488243700003
aF5.4001527926900001
aF5.4768772282700002
aF5.5890430439100003
aF5.7009271960400003
aF5.80755356372
aF5.9548448325700001
aF6.0994726695899999
aF6.25645276871
aF6.3819964031299996
aF6.4711966493400004
aF6.5880414298299996
aF6.7348102011000002
aF6.8307196477099996
aF6.9337887910999996
aF7.1040524671199998
aF7.2069620188099996
aF7.3301993509400001
aF7.4527574858900003
aF7.5532437966600003
aF7.6852803779599999
aF7.8640635376499999
aF8.0318076099900004
aF8.1796189996499997
aF8.3642059418999999
aF8.5050041495500004
aF8.6533583034700001
aF8.7675089334600003
aF8.90401831396
aF9.0651446520400008
aF9.2032868451700001
aF9.3704603805200009
aF9.5586269002000002
aF9.7223680241999997
aF9.9347655253599996
aF10.098260913100001
aF10.255212992300001
aF10.4208240003
aF10.5811816078
aF10.765906323299999
aF10.957390713400001
aF11.087388472400001
aF11.328556388399999
aF11.528238631900001
aF11.7872480683
aF11.915456216899999
aF12.1248574875
aF12.422258492999999
aF12.630647267100001
aF12.8227992595
aF13.1516423519
aF13.4269728621
aF13.7263917941
aF13.910454382299999
aF14.1519663254
aF14.338029858300001
aF14.560423425
aF14.770007548300001
aF14.9841095141
aF15.334444082699999
aF15.4948694147
aF15.855824070500001
aF16.241262736900001
aF16.5489680156
aF16.821966605299998
aF17.034108685700001
aF17.2704823658
aF17.5373816422
aF17.870520279099999
aF18.260020296
aF18.612564062099999
aF18.852361614399999
aF19.4196515169
aF19.842134040099999
aF20.208065711
aF20.730183175899999
aF21.211762532200002
aF21.724835097900002
aF22.113935455899998
aF22.527518860600001
aF22.952535640800001
aF23.578085247400001
aF24.165234135199999
aF24.660451264300001
aF25.101613714700001
aF25.726113937200001
aF26.0893457106
aF26.669907244299999
aF27.169577979900001
aF27.596626516000001
aF28.329601780800001
aF28.779048282000002
aF29.224608145400001
aF29.781331889800001
aF30.432540589399999
aF31.415359296199998
aF31.9605897486
aF32.492956216000003
aF33.285631429200002
aF34.070187818800001
aF35.060381063199998
aF35.680990641100003
aF36.895345624699999
aF37.869889303100003
aF38.7151898057
aF39.673959652199997
aF40.7449007739
aF42.072602957599997
aF43.253042370099998
aF44.872848970500002
aF46.556160648899997
aF48.1796820673
aF49.545397762699999
aF51.074845857200003
aF52.800367472799998
aF54.781904047099999
aF56.6419800444
aF58.294167776899997
aF59.890254052499998
aF62.933262895200002
aF64.383209257600001
aF66.273695300300005
aF68.879466623300004
aF71.737383912400006
aF73.694424811299996
aF76.676559064200006
aF79.509307012099995
aF82.2830341003
aF85.991392160700002
aF90.717177404200001
aF94.429171780900006
aF97.473571158699997
aF102.467911147
aF107.546301419
aF114.342831581
aF121.31476895
aF126.05533253199999
aF137.91440966299999
aF144.79876003499999
aF163.923571595
aF181.508527445
aF213.04454604899999
aF245.38055141000001
aF301.25496328499997
aF332.04731076600001
aF25328.083268499999
aF0
aF0.16960710904000001
aF0.24797331543600001
aF0.30236896744000002
aF0.34361899401099999
aF0.40999983457
aF0.48890969043100002
aF0.54342837436299996
aF0.60861265194400005
aF0.64673129635399995
aF0.69004038945699997
aF0.73679534547199999
aF0.77536960959000001
aF0.82841780807499998
aF0.90256777434299995
aF0.93909860962199998
aF1.00410024985
aF1.0408385717899999
aF1.11535670052
aF1.14711502865
aF1.15928977273
aF1.18798598113
aF1.2274534778099999
aF1.26769475616
aF1.3002205824799999
aF1.3310033753199999
aF1.3446656342200001
aF1.3760840745
aF1.39081400794
aF1.4505341583
aF1.4632661604999999
aF1.4984860150399999
aF1.5529767251
aF1.57864986714
aF1.6173517424399999
aF1.67533252068
aF1.70471580487
aF1.7278608476799999
aF1.7811033034399999
aF1.82818139122
aF1.86555208204
aF1.8941511847700001
aF1.92488230379
aF1.95851626987
aF1.99363516305
aF2.0170055272299998
aF2.0586483531600002
aF2.0850970425700002
aF2.1085030088000001
aF2.1283137664099998
aF2.16603036339
aF2.19060342065
aF2.2345184857999998
aF2.2714847812799999
aF2.2993152139899999
aF2.3222064716699999
aF2.3498083965699998
aF2.3879408831800002
aF2.4133674625900001
aF2.45645766658
aF2.5043169972600001
aF2.5332218388799999
aF2.5860056276300001
aF2.6092200429700001
aF2.6593928409799998
aF2.7167476183999999
aF2.7528966109600002
aF2.8165365213600002
aF2.8466368258900001
aF2.8966874532100002
aF2.9315763405099999
aF2.9602961735200002
aF2.9944957343700001
aF3.0486180954200002
aF3.1054310960799998
aF3.17422308542
aF3.22876924922
aF3.2476266926499999
aF3.2895811744699999
aF3.33758062866
aF3.3814007836000002
aF3.4235448060599998
aF3.49735659195
aF3.5619485828699999
aF3.61508084496
aF3.6882879176299999
aF3.7441381326799998
aF3.8290921697
aF3.87138230506
aF3.9399367140599999
aF3.9855674425799998
aF4.03423244708
aF4.1224800094800003
aF4.1617950069500003
aF4.2098466376400001
aF4.2671599100500002
aF4.3072566201600004
aF4.3243450788600004
aF4.3957664746200003
aF4.4519812552699998
aF4.4969306764399999
aF4.5152175579399998
aF4.56732663911
aF4.6752821882199997
aF4.7424836408799997
aF4.8540575522499996
aF4.9112049708600001
aF4.9863832664899999
aF5.0723492115899997
aF5.1341872206300003
aF5.1757472919899996
aF5.2672883329999998
aF5.3193278175799996
aF5.3545440009799998
aF5.3662639863299999
aF5.4478164688200001
aF5.51018935901
aF5.6222469255899998
aF5.7031572715200003
aF5.78511780914
aF5.87666466639
aF6.0267396241600002
aF6.1198844067399998
aF6.1979622858300001
aF6.28159827041
aF6.3904158104600004
aF6.4453162825900003
aF6.5218544413200004
aF6.6086381632900002
aF6.6725993210399999
aF6.8163144940900002
aF6.97804495911
aF7.0227642352400004
aF7.1626846845100003
aF7.3423024204600003
aF7.5327362668799998
aF7.6978310374000003
aF7.7611027450999996
aF7.88016729875
aF7.9472676633599999
aF8.1244228188799994
aF8.2399482591299993
aF8.3372351004799992
aF8.5151888904599993
aF8.5980587770099994
aF8.7064795243800006
aF8.9028549639799994
aF9.1412099458099991
aF9.2928218155500009
aF9.5260445012799995
aF9.7243731171600007
aF9.9194989507500004
aF10.158387747800001
aF10.358305334700001
aF10.8456897256
aF11.0126503317
aF11.1397484418
aF11.3568231431
aF11.725070023000001
aF11.952829343599999
aF12.355631104
aF12.741115586999999
aF12.9604116418
aF13.0782774906
aF13.386035293300001
aF13.7586242928
aF14.065910686100001
aF14.481276965199999
aF14.8428342578
aF15.0857067332
aF15.5610363036
aF15.9877621903
aF16.564935242699999
aF17.222646941699999
aF17.705236311899998
aF18.2065490938
aF18.6451801326
aF19.1223591105
aF19.606893553199999
aF20.1404072423
aF20.653286086600001
aF21.431578720299999
aF21.979215851300001
aF23.048094735900001
aF23.846359740299999
aF24.3529984143
aF24.985293486700002
aF25.965109587899999
aF26.669072074799999
aF27.831042996200001
aF29.685768165100001
aF30.986492906100001
aF32.7579031852
aF34.704015628800001
aF39.043339889599999
aF43.627269160300003
aF50.063241984299999
aF55.522634061300003
aF63.83632205
aF80.274312648399999
aF121.666396689
a.