(lp1
I0
aF0
aF0
aF0
aF0.91489362716699996
aF0.95692306757000001
aF0.98613864183400002
aF0.99072849750500003
aF0.98903292417499999
aF0.98952460288999999
aF0.99774098396300004
aF0.99152541160600005
aF0.99343830347100004
aF0.99500310421000004
aF0.99360203742999997
aF0.99673414230299995
aF0.99803018569900004
aF0.99857753515199998
aF0.99271136522299996
aF0.993197262287
aF0.997596144676
aF0.99408286809900004
aF0.99648505449299996
aF0.99720668792699996
aF0.99559080600700001
aF0.99696666002300005
aF0.99382078647600003
aF0.99571734666800005
aF0.99760192632699995
aF0.99768519401599998
aF0.99423962831500001
aF0.99749684333800004
aF0.99865412712099999
aF0.99725276231799997
aF0.99565845727900004
aF1
aF0.995768666267
aF0.99697428941699995
aF0.99658703804000004
aF0.995065808296
aF0.998257815838
aF0.99835252761799997
aF0.99401199817700003
aF1
aF0.99435025453600001
aF0.99797159433399996
aF0.99582463502899998
aF0.99365752935399998
aF0.99794661998699996
aF0.99550563097
aF0.99768519401599998
aF0.99052131176000002
aF0.99722993373900004
aF0.99507391452799998
aF0.98961037397399998
aF0.99184781312900006
aF0.98863637447399999
aF0.99135446548499995
aF0.99723756313300005
aF0.99006623029700003
aF0.99099099636099997
aF0.99672132730499996
aF0.992857158184
aF1
aF1
aF1
aF0.98947370052299999
aF0.99640285968800002
aF0.99641579389599999
aF0.98892986774400005
aF0.984126985073
aF0.99591839313499997
aF0.98765432834599998
aF0.98712444305400004
aF0.99523806571999995
aF0.98076921701399999
aF1
aF1
aF1
aF1
aI0
aF0
aF0
aF0
aF0.031914893537799999
aF0.68923074006999996
aF0.94653463363599999
aF0.97483444213899995
aF0.98404783010499997
aF0.98952460288999999
aF0.99397587776200003
aF0.99022161960599997
aF0.99081367254300001
aF0.99312931299200002
aF0.99488162994399998
aF0.99738734960599995
aF0.99606043100399999
aF0.99431008100499996
aF0.99562680721300001
aF0.99546486139299994
aF0.997596144676
aF0.99408286809900004
aF0.99648505449299996
aF0.996275603771
aF0.99823635816599998
aF0.99494439363499998
aF0.99485069513299995
aF0.99678802490200002
aF0.99520385265400002
aF0.99884259700800004
aF0.99539172649399998
aF0.99374216795000003
aF0.99730819463700005
aF0.99450546503100001
aF0.99565845727900004
aF1
aF0.99435824155800001
aF0.99546140432399999
aF0.99488055706
aF0.99342107772800003
aF0.99651569127999995
aF0.99670511484099999
aF0.99401199817700003
aF0.99616122245799998
aF0.99811673164400005
aF0.99594318866700005
aF0.99791228771200002
aF0.99154335260399995
aF0.99794661998699996
aF0.99775278568299997
aF0.99768519401599998
aF0.99289101362200005
aF0.99722993373900004
aF0.99014776945100003
aF0.98961037397399998
aF0.99728262424500003
aF0.98863637447399999
aF0.98559075593900003
aF0.99447512626599999
aF0.98675495386099998
aF0.98798799514799995
aF0.99672132730499996
aF0.98571425676299995
aF0.99662160873399996
aF1
aF1
aF0.98947370052299999
aF0.99640285968800002
aF0.99641579389599999
aF0.98892986774400005
aF0.99603176116900005
aF0.99591839313499997
aF0.99588477611500004
aF0.99570816755299996
aF0.99523806571999995
aF0.98076921701399999
aF1
aF0.99545454978900005
aF0.98958331346499995
aF1
aI0
aF0
aF0
aF0
aF0
aF0
aF0.31881189346299998
aF0.88344371318799997
aF0.95014953613300002
aF0.97824335098299997
aF0.97515058517499997
aF0.98370271921200003
aF0.98556429147699998
aF0.99250465631499996
aF0.99168264865900002
aF0.99281513690900003
aF0.99409061670300003
aF0.99217641353599995
aF0.99271136522299996
aF0.99168556928600005
aF0.99439102411299995
aF0.99492812156699995
aF0.99384886026399999
aF0.99720668792699996
aF0.99029982090000002
aF0.99089992046399999
aF0.99382078647600003
aF0.99571734666800005
aF0.99040764570200002
aF0.99884259700800004
aF0.98847925663000002
aF0.99624532461199999
aF0.99327051639599995
aF0.99450546503100001
aF0.99710565805399998
aF0.99855905771300002
aF0.99012696742999995
aF0.99546140432399999
aF0.99317407607999997
aF0.99013155698800004
aF1
aF0.99341022968299997
aF0.99201595783200003
aF0.99808061122900005
aF0.99811673164400005
aF0.99594318866700005
aF0.99791228771200002
aF0.98308670520800001
aF0.99794661998699996
aF0.99775278568299997
aF1
aF0.99052131176000002
aF0.99445980787300003
aF0.99014776945100003
aF0.984415590763
aF0.98913043737399997
aF0.98579543829000005
aF0.97982710599900003
aF0.98895025253299995
aF0.98675495386099998
aF0.98798799514799995
aF0.99672132730499996
aF0.98928570747400002
aF0.99662160873399996
aF0.98207885026899999
aF0.99658703804000004
aF0.98596489429500001
aF0.98920863866800002
aF0.99641579389599999
aF0.98154979944200005
aF0.98809522390399995
aF0.99591839313499997
aF0.99176955223100005
aF0.982832610607
aF0.98571425676299995
aF0.98076921701399999
aF1
aF0.99545454978900005
aF0.99479168653500005
aF1
aI0
aF0
aF0
aF0
aF0
aF0
aF0.00198019808158
aF0.076821193098999999
aF0.595214366913
aF0.90491539239899998
aF0.95858430862400001
aF0.96870923042299995
aF0.98556429147699998
aF0.98750782012899996
aF0.98784387111700001
aF0.98889613151599998
aF0.99146419763600002
aF0.99359887838399996
aF0.98833817243599997
aF0.993197262287
aF0.99038463830900003
aF0.99492812156699995
aF0.99384886026399999
aF0.99720668792699996
aF0.99206346273400003
aF0.99494439363499998
aF0.99176108837099997
aF0.99357599019999998
aF0.99040764570200002
aF0.99652779102300004
aF0.98732721805599999
aF0.99374216795000003
aF0.99327051639599995
aF0.99587911367399995
aF0.99565845727900004
aF0.99711817503
aF0.99294781684900002
aF0.98940998315799999
aF0.98634815216100002
aF0.991776287556
aF0.99477350711800006
aF0.99341022968299997
aF0.98602795600899995
aF0.99232244491599997
aF0.99811673164400005
aF0.993914783001
aF0.99791228771200002
aF0.98520082235299999
aF0.99794661998699996
aF0.99775278568299997
aF0.99768519401599998
aF0.98815166950199995
aF0.99445980787300003
aF0.99261081218699998
aF0.98701298236799995
aF0.99184781312900006
aF0.991477251053
aF0.97694522142399998
aF0.99171268940000001
aF0.98344373702999999
aF0.98498499393500005
aF0.99344259500499998
aF0.98928570747400002
aF0.99324321746800004
aF0.98924732208300004
aF0.99658703804000004
aF0.98596489429500001
aF0.98561149835600004
aF0.98207885026899999
aF0.985239863396
aF0.98809522390399995
aF0.98775511980099995
aF0.99588477611500004
aF0.98712444305400004
aF0.98095238208799995
aF0.97596156597100003
aF0.99512195587200003
aF0.99090909957899997
aF0.98958331346499995
aF1
a.