(i__main__
LogFile
p0
(dp1
S'_installed_files'
p2
(dp3
S'../../../../../../../../afs/cern.ch/sw/Gaudi/releases/GAUDI/GAUDI_v20r4/GaudiPolicy/cmt/fragments/__init__.py'
p4
S'../../../InstallArea/python/Sim/__init__.py'
p5
sS'../../Sim/P2VVGenLevel/genConf/Sim'
p6
(dp7
S'../../../Sim/P2VVGenLevel/genConf/Sim/P2VVGenLevel_confDb.py'
p8
S'../../../InstallArea/python/Sim/P2VVGenLevel_confDb.py'
p9
sS'../../../Sim/P2VVGenLevel/genConf/Sim/P2VVGenLevelConf.py'
p10
S'../../../InstallArea/python/Sim/P2VVGenLevelConf.py'
p11
ssS'../../../../../../../../afs/cern.ch/sw/Gaudi/releases/GAUDI/GAUDI_v19r9/GaudiPolicy/v8r2/cmt/fragments/__init__.py'
p12
S'../../../../InstallArea/python/P2VVGenLevel/__init__.py'
p13
sS'../../../../../../../../sw/Gaudi/releases/GAUDI/GAUDI_v19r9/GaudiPolicy/v8r2/cmt/fragments/__init__.py'
p14
S'../../../../InstallArea/python/P2VVGenLevel/__init__.py'
p15
sS'../../../../../../../../afs/cern.ch/sw/Gaudi/releases/GAUDI/GAUDI_v20r2/GaudiPolicy/v8r5/cmt/fragments/__init__.py'
p16
S'../../../../InstallArea/python/P2VVGenLevel/__init__.py'
p17
sS'../../Sim/P2VVGenLevel/v1r0/genConf/P2VVGenLevel'
p18
(dp19
S'../../../Sim/P2VVGenLevel/v1r0/genConf/P2VVGenLevel/P2VVGenLevel_confDb.py'
p20
S'../../../../InstallArea/python/P2VVGenLevel/P2VVGenLevel_confDb.py'
p21
sS'../../../Sim/P2VVGenLevel/v1r0/genConf/P2VVGenLevel/P2VVGenLevelConf.py'
p22
S'../../../../InstallArea/python/P2VVGenLevel/P2VVGenLevelConf.py'
p23
ssS'../../../Sim/P2VVGenLevel/v1r0/slc4_ia32_gcc34/libP2VVGenLevel.so'
p24
S'../../../../InstallArea/slc4_ia32_gcc34/lib/libP2VVGenLevel.so'
p25
sS'../../../Sim/P2VVGenLevel/slc4_ia32_gcc34/libP2VVGenLevel.so'
p26
S'../../../InstallArea/slc4_ia32_gcc34/lib/libP2VVGenLevel.so'
p27
sS'../../../Sim/P2VVGenLevel/v1r0/slc4_amd64_gcc34/libP2VVGenLevel.so'
p28
S'../../../../InstallArea/slc4_amd64_gcc34/lib/libP2VVGenLevel.so'
p29
sS'../../../../../../../../sw/Gaudi/releases/GAUDI/GAUDI_v20r2/GaudiPolicy/v8r5/cmt/fragments/__init__.py'
p30
S'../../../InstallArea/python/Sim/__init__.py'
p31
ssb.