(i__main__
LogFile
p0
(dp1
S'_installed_files'
p2
(dp3
S'../../../../../../../../afs/cern.ch/sw/Gaudi/releases/GAUDI/GAUDI_v20r4/GaudiPolicy/cmt/fragments/__init__.py'
p4
S'../../../InstallArea/python/Gauss/__init__.py'
p5
sS'../Sim/Gauss/python'
p6
(dp7
S'../../../Sim/Gauss/python/Gauss/Configuration.py'
p8
S'../../../InstallArea/python/Gauss/Configuration.py'
p9
sssb.